ccopy_reg
_reconstructor
p0
(cnltk.classify.naivebayes
NaiveBayesClassifier
p1
c__builtin__
object
p2
Ntp3
Rp4
(dp5
S'_labels'
p6
(lp7
S'1'
p8
aS'3'
p9
aS'2'
p10
aS'5'
p11
aS'4'
p12
aS'7'
p13
aS'6'
p14
asS'_feature_probdist'
p15
(dp16
(g8
Vcontains(certif)
p17
tp18
g0
(cnltk.probability
ELEProbDist
p19
g2
Ntp20
Rp21
(dp22
S'_gamma'
p23
F0.5
sS'_N'
p24
I29752
sS'_freqdist'
p25
cnltk.probability
FreqDist
p26
((dp27
I00
I29634
sI01
I118
stp28
Rp29
sS'_bins'
p30
I2
sS'_divisor'
p31
F29753.0
sbs(g14
Vcontains(time)
p32
tp33
g0
(g19
g2
Ntp34
Rp35
(dp36
g23
F0.5
sg24
I11590
sg25
g26
((dp37
I00
I11381
sI01
I209
stp38
Rp39
sg30
I2
sg31
F11591.0
sbs(g8
Vcontains(skill)
p40
tp41
g0
(g19
g2
Ntp42
Rp43
(dp44
g23
F0.5
sg24
I29752
sg25
g26
((dp45
I00
I26903
sI01
I2849
stp46
Rp47
sg30
I2
sg31
F29753.0
sbs(g10
Vcontains(peer)
p48
tp49
g0
(g19
g2
Ntp50
Rp51
(dp52
g23
F0.5
sg24
I9294
sg25
g26
((dp53
I00
I9279
sI01
I15
stp54
Rp55
sg30
I2
sg31
F9295.0
sbs(g9
Vcontains(ethic)
p56
tp57
g0
(g19
g2
Ntp58
Rp59
(dp60
g23
F0.5
sg24
I62008
sg25
g26
((dp61
I00
I61809
sI01
I199
stp62
Rp63
sg30
I2
sg31
F62009.0
sbs(g9
Vcontains(supervisor)
p64
tp65
g0
(g19
g2
Ntp66
Rp67
(dp68
g23
F0.5
sg24
I62008
sg25
g26
((dp69
I00
I61451
sI01
I557
stp70
Rp71
sg30
I2
sg31
F62009.0
sbs(g12
Vcontains(career)
p72
tp73
g0
(g19
g2
Ntp74
Rp75
(dp76
g23
F0.5
sg24
I13347
sg25
g26
((dp77
I00
I13259
sI01
I88
stp78
Rp79
sg30
I2
sg31
F13348.0
sbs(g13
Vcontains(employ)
p80
tp81
g0
(g19
g2
Ntp82
Rp83
(dp84
g23
F0.5
sg24
I39554
sg25
g26
((dp85
I00
I39554
stp86
Rp87
sg30
I2
sg31
F39555.0
sbs(g10
Vcontains(teach)
p88
tp89
g0
(g19
g2
Ntp90
Rp91
(dp92
g23
F0.5
sg24
I9294
sg25
g26
((dp93
I00
I9294
stp94
Rp95
sg30
I2
sg31
F9295.0
sbs(g13
Vcontains(promot)
p96
tp97
g0
(g19
g2
Ntp98
Rp99
(dp100
g23
F0.5
sg24
I39554
sg25
g26
((dp101
I00
I39554
stp102
Rp103
sg30
I2
sg31
F39555.0
sbs(g11
Vcontains(encourag)
p104
tp105
g0
(g19
g2
Ntp106
Rp107
(dp108
g23
F0.5
sg24
I4099
sg25
g26
((dp109
I00
I4093
sI01
I6
stp110
Rp111
sg30
I2
sg31
F4100.0
sbs(g10
Vcontains(support)
p112
tp113
g0
(g19
g2
Ntp114
Rp115
(dp116
g23
F0.5
sg24
I9294
sg25
g26
((dp117
I00
I9248
sI01
I46
stp118
Rp119
sg30
I2
sg31
F9295.0
sbs(g11
Vcontains(educ)
p120
tp121
g0
(g19
g2
Ntp122
Rp123
(dp124
g23
F0.5
sg24
I4099
sg25
g26
((dp125
I00
I4093
sI01
I6
stp126
Rp127
sg30
I2
sg31
F4100.0
sbs(g14
Vcontains(life)
p128
tp129
g0
(g19
g2
Ntp130
Rp131
(dp132
g23
F0.5
sg24
I11590
sg25
g26
((dp133
I00
I11333
sI01
I257
stp134
Rp135
sg30
I2
sg31
F11591.0
sbs(g10
Vcontains(ethic)
p136
tp137
g0
(g19
g2
Ntp138
Rp139
(dp140
g23
F0.5
sg24
I9294
sg25
g26
((dp141
I00
I9289
sI01
I5
stp142
Rp143
sg30
I2
sg31
F9295.0
sbs(g14
Vcontains(packag)
p144
tp145
g0
(g19
g2
Ntp146
Rp147
(dp148
g23
F0.5
sg24
I11590
sg25
g26
((dp149
I00
I11578
sI01
I12
stp150
Rp151
sg30
I2
sg31
F11591.0
sbs(g8
Vcontains(confid)
p152
tp153
g0
(g19
g2
Ntp154
Rp155
(dp156
g23
F0.5
sg24
I29752
sg25
g26
((dp157
I00
I29617
sI01
I135
stp158
Rp159
sg30
I2
sg31
F29753.0
sbs(g10
Vcontains(atmospher)
p160
tp161
g0
(g19
g2
Ntp162
Rp163
(dp164
g23
F0.5
sg24
I9294
sg25
g26
((dp165
I00
I9285
sI01
I9
stp166
Rp167
sg30
I2
sg31
F9295.0
sbs(g12
Vcontains(exposur)
p168
tp169
g0
(g19
g2
Ntp170
Rp171
(dp172
g23
F0.5
sg24
I13347
sg25
g26
((dp173
I00
I13326
sI01
I21
stp174
Rp175
sg30
I2
sg31
F13348.0
sbs(g11
Vcontains(stress)
p176
tp177
g0
(g19
g2
Ntp178
Rp179
(dp180
g23
F0.5
sg24
I4099
sg25
g26
((dp181
I00
I4092
sI01
I7
stp182
Rp183
sg30
I2
sg31
F4100.0
sbs(g13
Vcontains(teammat)
p184
tp185
g0
(g19
g2
Ntp186
Rp187
(dp188
g23
F0.5
sg24
I39554
sg25
g26
((dp189
I00
I39554
stp190
Rp191
sg30
I2
sg31
F39555.0
sbs(g10
Vcontains(educ)
p192
tp193
g0
(g19
g2
Ntp194
Rp195
(dp196
g23
F0.5
sg24
I9294
sg25
g26
((dp197
I00
I9277
sI01
I17
stp198
Rp199
sg30
I2
sg31
F9295.0
sbs(g14
Vcontains(stronger)
p200
tp201
g0
(g19
g2
Ntp202
Rp203
(dp204
g23
F0.5
sg24
I11590
sg25
g26
((dp205
I00
I11589
sI01
I1
stp206
Rp207
sg30
I2
sg31
F11591.0
sbs(g11
Vcontains(hard-work)
p208
tp209
g0
(g19
g2
Ntp210
Rp211
(dp212
g23
F0.5
sg24
I4099
sg25
g26
((dp213
I00
I4099
stp214
Rp215
sg30
I1
sg31
F4099.5
sbs(g14
Vcontains(commun)
p216
tp217
g0
(g19
g2
Ntp218
Rp219
(dp220
g23
F0.5
sg24
I11590
sg25
g26
((dp221
I00
I11537
sI01
I53
stp222
Rp223
sg30
I2
sg31
F11591.0
sbs(g11
Vcontains(atmospher)
p224
tp225
g0
(g19
g2
Ntp226
Rp227
(dp228
g23
F0.5
sg24
I4099
sg25
g26
((dp229
I00
I4097
sI01
I2
stp230
Rp231
sg30
I2
sg31
F4100.0
sbs(g8
Vcontains(knowledg)
p232
tp233
g0
(g19
g2
Ntp234
Rp235
(dp236
g23
F0.5
sg24
I29752
sg25
g26
((dp237
I00
I29063
sI01
I689
stp238
Rp239
sg30
I2
sg31
F29753.0
sbs(g13
Vcontains(train)
p240
tp241
g0
(g19
g2
Ntp242
Rp243
(dp244
g23
F0.5
sg24
I39554
sg25
g26
((dp245
I00
I39554
stp246
Rp247
sg30
I2
sg31
F39555.0
sbs(g8
Vcontains(life)
p248
tp249
g0
(g19
g2
Ntp250
Rp251
(dp252
g23
F0.5
sg24
I29752
sg25
g26
((dp253
I00
I29283
sI01
I469
stp254
Rp255
sg30
I2
sg31
F29753.0
sbs(g11
Vcontains(support)
p256
tp257
g0
(g19
g2
Ntp258
Rp259
(dp260
g23
F0.5
sg24
I4099
sg25
g26
((dp261
I00
I4012
sI01
I87
stp262
Rp263
sg30
I2
sg31
F4100.0
sbs(g12
Vcontains(snack)
p264
tp265
g0
(g19
g2
Ntp266
Rp267
(dp268
g23
F0.5
sg24
I13347
sg25
g26
((dp269
I00
I13345
sI01
I2
stp270
Rp271
sg30
I2
sg31
F13348.0
sbs(g8
Vcontains(rais)
p272
tp273
g0
(g19
g2
Ntp274
Rp275
(dp276
g23
F0.5
sg24
I29752
sg25
g26
((dp277
I00
I29731
sI01
I21
stp278
Rp279
sg30
I2
sg31
F29753.0
sbs(g11
Vcontains(canteen)
p280
tp281
g0
(g19
g2
Ntp282
Rp283
(dp284
g23
F0.5
sg24
I4099
sg25
g26
((dp285
I00
I4070
sI01
I29
stp286
Rp287
sg30
I2
sg31
F4100.0
sbs(g14
Vcontains(grow)
p288
tp289
g0
(g19
g2
Ntp290
Rp291
(dp292
g23
F0.5
sg24
I11590
sg25
g26
((dp293
I00
I11542
sI01
I48
stp294
Rp295
sg30
I2
sg31
F11591.0
sbs(g9
Vcontains(campu)
p296
tp297
g0
(g19
g2
Ntp298
Rp299
(dp300
g23
F0.5
sg24
I62008
sg25
g26
((dp301
I00
I61981
sI01
I27
stp302
Rp303
sg30
I2
sg31
F62009.0
sbs(g9
Vcontains(teach)
p304
tp305
g0
(g19
g2
Ntp306
Rp307
(dp308
g23
F0.5
sg24
I62008
sg25
g26
((dp309
I00
I61956
sI01
I52
stp310
Rp311
sg30
I2
sg31
F62009.0
sbs(g12
Vcontains(collegu)
p312
tp313
g0
(g19
g2
Ntp314
Rp315
(dp316
g23
F0.5
sg24
I13347
sg25
g26
((dp317
I00
I13347
stp318
Rp319
sg30
I1
sg31
F13347.5
sbs(g13
Vcontains(lovabl)
p320
tp321
g0
(g19
g2
Ntp322
Rp323
(dp324
g23
F0.5
sg24
I39554
sg25
g26
((dp325
I00
I39554
stp326
Rp327
sg30
I2
sg31
F39555.0
sbs(g11
Vcontains(scope)
p328
tp329
g0
(g19
g2
Ntp330
Rp331
(dp332
g23
F0.5
sg24
I4099
sg25
g26
((dp333
I00
I4095
sI01
I4
stp334
Rp335
sg30
I2
sg31
F4100.0
sbs(g14
Vcontains(benefit)
p336
tp337
g0
(g19
g2
Ntp338
Rp339
(dp340
g23
F0.5
sg24
I11590
sg25
g26
((dp341
I00
I11516
sI01
I74
stp342
Rp343
sg30
I2
sg31
F11591.0
sbs(g8
Vcontains(execut)
p344
tp345
g0
(g19
g2
Ntp346
Rp347
(dp348
g23
F0.5
sg24
I29752
sg25
g26
((dp349
I00
I29686
sI01
I66
stp350
Rp351
sg30
I2
sg31
F29753.0
sbs(g14
Vcontains(encourag)
p352
tp353
g0
(g19
g2
Ntp354
Rp355
(dp356
g23
F0.5
sg24
I11590
sg25
g26
((dp357
I00
I11082
sI01
I508
stp358
Rp359
sg30
I2
sg31
F11591.0
sbs(g8
Vcontains(futur)
p360
tp361
g0
(g19
g2
Ntp362
Rp363
(dp364
g23
F0.5
sg24
I29752
sg25
g26
((dp365
I00
I29437
sI01
I315
stp366
Rp367
sg30
I2
sg31
F29753.0
sbs(g8
Vcontains(peer)
p368
tp369
g0
(g19
g2
Ntp370
Rp371
(dp372
g23
F0.5
sg24
I29752
sg25
g26
((dp373
I00
I29706
sI01
I46
stp374
Rp375
sg30
I2
sg31
F29753.0
sbs(g12
Vcontains(mentor)
p376
tp377
g0
(g19
g2
Ntp378
Rp379
(dp380
g23
F0.5
sg24
I13347
sg25
g26
((dp381
I00
I13339
sI01
I8
stp382
Rp383
sg30
I2
sg31
F13348.0
sbs(g8
Vcontains(growth)
p384
tp385
g0
(g19
g2
Ntp386
Rp387
(dp388
g23
F0.5
sg24
I29752
sg25
g26
((dp389
I00
I28661
sI01
I1091
stp390
Rp391
sg30
I2
sg31
F29753.0
sbs(g13
Vcontains(learn)
p392
tp393
g0
(g19
g2
Ntp394
Rp395
(dp396
g23
F0.5
sg24
I39554
sg25
g26
((dp397
I00
I39554
stp398
Rp399
sg30
I2
sg31
F39555.0
sbs(g12
Vcontains(enterpris)
p400
tp401
g0
(g19
g2
Ntp402
Rp403
(dp404
g23
F0.5
sg24
I13347
sg25
g26
((dp405
I00
I13347
stp406
Rp407
sg30
I2
sg31
F13348.0
sbs(g14
Vcontains(collegu)
p408
tp409
g0
(g19
g2
Ntp410
Rp411
(dp412
g23
F0.5
sg24
I11590
sg25
g26
((dp413
I00
I11590
stp414
Rp415
sg30
I1
sg31
F11590.5
sbs(g8
Vcontains(challeng)
p416
tp417
g0
(g19
g2
Ntp418
Rp419
(dp420
g23
F0.5
sg24
I29752
sg25
g26
((dp421
I00
I28086
sI01
I1666
stp422
Rp423
sg30
I2
sg31
F29753.0
sbs(g10
Vcontains(progress)
p424
tp425
g0
(g19
g2
Ntp426
Rp427
(dp428
g23
F0.5
sg24
I9294
sg25
g26
((dp429
I00
I9286
sI01
I8
stp430
Rp431
sg30
I2
sg31
F9295.0
sbs(g12
Vcontains(organis)
p432
tp433
g0
(g19
g2
Ntp434
Rp435
(dp436
g23
F0.5
sg24
I13347
sg25
g26
((dp437
I00
I13347
stp438
Rp439
sg30
I1
sg31
F13347.5
sbs(g14
Vcontains(compet)
p440
tp441
g0
(g19
g2
Ntp442
Rp443
(dp444
g23
F0.5
sg24
I11590
sg25
g26
((dp445
I00
I11585
sI01
I5
stp446
Rp447
sg30
I2
sg31
F11591.0
sbs(g14
Vcontains(motiv)
p448
tp449
g0
(g19
g2
Ntp450
Rp451
(dp452
g23
F0.5
sg24
I11590
sg25
g26
((dp453
I00
I11126
sI01
I464
stp454
Rp455
sg30
I2
sg31
F11591.0
sbs(g11
Vcontains(tea)
p456
tp457
g0
(g19
g2
Ntp458
Rp459
(dp460
g23
F0.5
sg24
I4099
sg25
g26
((dp461
I00
I4073
sI01
I26
stp462
Rp463
sg30
I2
sg31
F4100.0
sbs(g12
Vcontains(reward)
p464
tp465
g0
(g19
g2
Ntp466
Rp467
(dp468
g23
F0.5
sg24
I13347
sg25
g26
((dp469
I00
I13320
sI01
I27
stp470
Rp471
sg30
I2
sg31
F13348.0
sbs(g8
Vcontains(canteen)
p472
tp473
g0
(g19
g2
Ntp474
Rp475
(dp476
g23
F0.5
sg24
I29752
sg25
g26
((dp477
I00
I29749
sI01
I3
stp478
Rp479
sg30
I2
sg31
F29753.0
sbs(g12
Vcontains(oppurtun)
p480
tp481
g0
(g19
g2
Ntp482
Rp483
(dp484
g23
F0.5
sg24
I13347
sg25
g26
((dp485
I00
I13347
stp486
Rp487
sg30
I1
sg31
F13347.5
sbs(g9
Vcontains(system)
p488
tp489
g0
(g19
g2
Ntp490
Rp491
(dp492
g23
F0.5
sg24
I62008
sg25
g26
((dp493
I00
I61729
sI01
I279
stp494
Rp495
sg30
I2
sg31
F62009.0
sbs(g8
Vcontains(system)
p496
tp497
g0
(g19
g2
Ntp498
Rp499
(dp500
g23
F0.5
sg24
I29752
sg25
g26
((dp501
I00
I29600
sI01
I152
stp502
Rp503
sg30
I2
sg31
F29753.0
sbs(g12
Vcontains(leader)
p504
tp505
g0
(g19
g2
Ntp506
Rp507
(dp508
g23
F0.5
sg24
I13347
sg25
g26
((dp509
I00
I13307
sI01
I40
stp510
Rp511
sg30
I2
sg31
F13348.0
sbs(g14
Vcontains(wage)
p512
tp513
g0
(g19
g2
Ntp514
Rp515
(dp516
g23
F0.5
sg24
I11590
sg25
g26
((dp517
I00
I11582
sI01
I8
stp518
Rp519
sg30
I2
sg31
F11591.0
sbs(g9
Vcontains(enjoy)
p520
tp521
g0
(g19
g2
Ntp522
Rp523
(dp524
g23
F0.5
sg24
I62008
sg25
g26
((dp525
I00
I58963
sI01
I3045
stp526
Rp527
sg30
I2
sg31
F62009.0
sbs(g11
Vcontains(reward)
p528
tp529
g0
(g19
g2
Ntp530
Rp531
(dp532
g23
F0.5
sg24
I4099
sg25
g26
((dp533
I00
I4084
sI01
I15
stp534
Rp535
sg30
I2
sg31
F4100.0
sbs(g11
Vcontains(work-from-hom)
p536
tp537
g0
(g19
g2
Ntp538
Rp539
(dp540
g23
F0.5
sg24
I4099
sg25
g26
((dp541
I00
I4099
stp542
Rp543
sg30
I1
sg31
F4099.5
sbs(g13
Vcontains(packag)
p544
tp545
g0
(g19
g2
Ntp546
Rp547
(dp548
g23
F0.5
sg24
I39554
sg25
g26
((dp549
I00
I39554
stp550
Rp551
sg30
I2
sg31
F39555.0
sbs(g13
Vcontains(explor)
p552
tp553
g0
(g19
g2
Ntp554
Rp555
(dp556
g23
F0.5
sg24
I39554
sg25
g26
((dp557
I00
I39520
sI01
I34
stp558
Rp559
sg30
I2
sg31
F39555.0
sbs(g8
Vcontains(monetari)
p560
tp561
g0
(g19
g2
Ntp562
Rp563
(dp564
g23
F0.5
sg24
I29752
sg25
g26
((dp565
I00
I29747
sI01
I5
stp566
Rp567
sg30
I2
sg31
F29753.0
sbs(g8
Vcontains(fresher)
p568
tp569
g0
(g19
g2
Ntp570
Rp571
(dp572
g23
F0.5
sg24
I29752
sg25
g26
((dp573
I00
I29354
sI01
I398
stp574
Rp575
sg30
I2
sg31
F29753.0
sbs(g12
Vcontains(advanc)
p576
tp577
g0
(g19
g2
Ntp578
Rp579
(dp580
g23
F0.5
sg24
I13347
sg25
g26
((dp581
I00
I13287
sI01
I60
stp582
Rp583
sg30
I2
sg31
F13348.0
sbs(g13
Vcontains(technolog)
p584
tp585
g0
(g19
g2
Ntp586
Rp587
(dp588
g23
F0.5
sg24
I39554
sg25
g26
((dp589
I00
I39256
sI01
I298
stp590
Rp591
sg30
I2
sg31
F39555.0
sbs(g11
Vcontains(explor)
p592
tp593
g0
(g19
g2
Ntp594
Rp595
(dp596
g23
F0.5
sg24
I4099
sg25
g26
((dp597
I00
I4096
sI01
I3
stp598
Rp599
sg30
I2
sg31
F4100.0
sbs(g8
Vcontains(supervisor)
p600
tp601
g0
(g19
g2
Ntp602
Rp603
(dp604
g23
F0.5
sg24
I29752
sg25
g26
((dp605
I00
I29703
sI01
I49
stp606
Rp607
sg30
I2
sg31
F29753.0
sbs(g13
Vcontains(rais)
p608
tp609
g0
(g19
g2
Ntp610
Rp611
(dp612
g23
F0.5
sg24
I39554
sg25
g26
((dp613
I00
I39554
stp614
Rp615
sg30
I2
sg31
F39555.0
sbs(g13
Vcontains(job/work)
p616
tp617
g0
(g19
g2
Ntp618
Rp619
(dp620
g23
F0.5
sg24
I39554
sg25
g26
((dp621
I00
I39554
stp622
Rp623
sg30
I1
sg31
F39554.5
sbs(g12
Vcontains(atmospher)
p624
tp625
g0
(g19
g2
Ntp626
Rp627
(dp628
g23
F0.5
sg24
I13347
sg25
g26
((dp629
I00
I13323
sI01
I24
stp630
Rp631
sg30
I2
sg31
F13348.0
sbs(g9
Vcontains(job/work)
p632
tp633
g0
(g19
g2
Ntp634
Rp635
(dp636
g23
F0.5
sg24
I62008
sg25
g26
((dp637
I00
I62008
stp638
Rp639
sg30
I1
sg31
F62008.5
sbs(g8
Vcontains(flexibl)
p640
tp641
g0
(g19
g2
Ntp642
Rp643
(dp644
g23
F0.5
sg24
I29752
sg25
g26
((dp645
I00
I29640
sI01
I112
stp646
Rp647
sg30
I2
sg31
F29753.0
sbs(g9
Vcontains(stronger)
p648
tp649
g0
(g19
g2
Ntp650
Rp651
(dp652
g23
F0.5
sg24
I62008
sg25
g26
((dp653
I00
I61982
sI01
I26
stp654
Rp655
sg30
I2
sg31
F62009.0
sbs(g8
Vcontains(work-from-hom)
p656
tp657
g0
(g19
g2
Ntp658
Rp659
(dp660
g23
F0.5
sg24
I29752
sg25
g26
((dp661
I00
I29752
stp662
Rp663
sg30
I1
sg31
F29752.5
sbs(g13
Vcontains(support)
p664
tp665
g0
(g19
g2
Ntp666
Rp667
(dp668
g23
F0.5
sg24
I39554
sg25
g26
((dp669
I00
I38881
sI01
I673
stp670
Rp671
sg30
I2
sg31
F39555.0
sbs(g12
Vcontains(support)
p672
tp673
g0
(g19
g2
Ntp674
Rp675
(dp676
g23
F0.5
sg24
I13347
sg25
g26
((dp677
I00
I13226
sI01
I121
stp678
Rp679
sg30
I2
sg31
F13348.0
sbs(g9
Vcontains(facil)
p680
tp681
g0
(g19
g2
Ntp682
Rp683
(dp684
g23
F0.5
sg24
I62008
sg25
g26
((dp685
I00
I61872
sI01
I136
stp686
Rp687
sg30
I2
sg31
F62009.0
sbs(g12
Vcontains(natur)
p688
tp689
g0
(g19
g2
Ntp690
Rp691
(dp692
g23
F0.5
sg24
I13347
sg25
g26
((dp693
I00
I13337
sI01
I10
stp694
Rp695
sg30
I2
sg31
F13348.0
sbs(g9
Vcontains(freedom)
p696
tp697
g0
(g19
g2
Ntp698
Rp699
(dp700
g23
F0.5
sg24
I62008
sg25
g26
((dp701
I00
I61947
sI01
I61
stp702
Rp703
sg30
I2
sg31
F62009.0
sbs(g13
Vcontains(atmospher)
p704
tp705
g0
(g19
g2
Ntp706
Rp707
(dp708
g23
F0.5
sg24
I39554
sg25
g26
((dp709
I00
I39554
stp710
Rp711
sg30
I2
sg31
F39555.0
sbs(g14
Vcontains(food)
p712
tp713
g0
(g19
g2
Ntp714
Rp715
(dp716
g23
F0.5
sg24
I11590
sg25
g26
((dp717
I00
I11585
sI01
I5
stp718
Rp719
sg30
I2
sg31
F11591.0
sbs(g8
Vcontains(chanc)
p720
tp721
g0
(g19
g2
Ntp722
Rp723
(dp724
g23
F0.5
sg24
I29752
sg25
g26
((dp725
I00
I29199
sI01
I553
stp726
Rp727
sg30
I2
sg31
F29753.0
sbs(g9
Vcontains(increment)
p728
tp729
g0
(g19
g2
Ntp730
Rp731
(dp732
g23
F0.5
sg24
I62008
sg25
g26
((dp733
I00
I61998
sI01
I10
stp734
Rp735
sg30
I2
sg31
F62009.0
sbs(g8
Vcontains(oppurtun)
p736
tp737
g0
(g19
g2
Ntp738
Rp739
(dp740
g23
F0.5
sg24
I29752
sg25
g26
((dp741
I00
I29752
stp742
Rp743
sg30
I1
sg31
F29752.5
sbs(g10
Vcontains(chanc)
p744
tp745
g0
(g19
g2
Ntp746
Rp747
(dp748
g23
F0.5
sg24
I9294
sg25
g26
((dp749
I00
I9268
sI01
I26
stp750
Rp751
sg30
I2
sg31
F9295.0
sbs(g11
Vcontains(organis)
p752
tp753
g0
(g19
g2
Ntp754
Rp755
(dp756
g23
F0.5
sg24
I4099
sg25
g26
((dp757
I00
I4099
stp758
Rp759
sg30
I1
sg31
F4099.5
sbs(g12
Vcontains(stronger)
p760
tp761
g0
(g19
g2
Ntp762
Rp763
(dp764
g23
F0.5
sg24
I13347
sg25
g26
((dp765
I00
I13345
sI01
I2
stp766
Rp767
sg30
I2
sg31
F13348.0
sbs(g9
Vcontains(grow)
p768
tp769
g0
(g19
g2
Ntp770
Rp771
(dp772
g23
F0.5
sg24
I62008
sg25
g26
((dp773
I00
I61825
sI01
I183
stp774
Rp775
sg30
I2
sg31
F62009.0
sbs(g10
Vcontains(enjoy)
p776
tp777
g0
(g19
g2
Ntp778
Rp779
(dp780
g23
F0.5
sg24
I9294
sg25
g26
((dp781
I00
I9169
sI01
I125
stp782
Rp783
sg30
I2
sg31
F9295.0
sbs(g8
Vcontains(recogn)
p784
tp785
g0
(g19
g2
Ntp786
Rp787
(dp788
g23
F0.5
sg24
I29752
sg25
g26
((dp789
I00
I29728
sI01
I24
stp790
Rp791
sg30
I2
sg31
F29753.0
sbs(g11
Vcontains(challeng)
p792
tp793
g0
(g19
g2
Ntp794
Rp795
(dp796
g23
F0.5
sg24
I4099
sg25
g26
((dp797
I00
I4087
sI01
I12
stp798
Rp799
sg30
I2
sg31
F4100.0
sbs(g11
Vcontains(recogn)
p800
tp801
g0
(g19
g2
Ntp802
Rp803
(dp804
g23
F0.5
sg24
I4099
sg25
g26
((dp805
I00
I4098
sI01
I1
stp806
Rp807
sg30
I2
sg31
F4100.0
sbs(g13
Vcontains(progress)
p808
tp809
g0
(g19
g2
Ntp810
Rp811
(dp812
g23
F0.5
sg24
I39554
sg25
g26
((dp813
I00
I39554
stp814
Rp815
sg30
I2
sg31
F39555.0
sbs(g14
Vcontains(scope)
p816
tp817
g0
(g19
g2
Ntp818
Rp819
(dp820
g23
F0.5
sg24
I11590
sg25
g26
((dp821
I00
I11574
sI01
I16
stp822
Rp823
sg30
I2
sg31
F11591.0
sbs(g11
Vcontains(cab)
p824
tp825
g0
(g19
g2
Ntp826
Rp827
(dp828
g23
F0.5
sg24
I4099
sg25
g26
((dp829
I00
I4045
sI01
I54
stp830
Rp831
sg30
I2
sg31
F4100.0
sbs(g8
Vcontains(freedom)
p832
tp833
g0
(g19
g2
Ntp834
Rp835
(dp836
g23
F0.5
sg24
I29752
sg25
g26
((dp837
I00
I29585
sI01
I167
stp838
Rp839
sg30
I2
sg31
F29753.0
sbs(g8
Vcontains(food)
p840
tp841
g0
(g19
g2
Ntp842
Rp843
(dp844
g23
F0.5
sg24
I29752
sg25
g26
((dp845
I00
I29731
sI01
I21
stp846
Rp847
sg30
I2
sg31
F29753.0
sbs(g11
Vcontains(learn)
p848
tp849
g0
(g19
g2
Ntp850
Rp851
(dp852
g23
F0.5
sg24
I4099
sg25
g26
((dp853
I00
I3839
sI01
I260
stp854
Rp855
sg30
I2
sg31
F4100.0
sbs(g14
Vcontains(job/lif)
p856
tp857
g0
(g19
g2
Ntp858
Rp859
(dp860
g23
F0.5
sg24
I11590
sg25
g26
((dp861
I00
I11590
stp862
Rp863
sg30
I1
sg31
F11590.5
sbs(g13
Vcontains(lead)
p864
tp865
g0
(g19
g2
Ntp866
Rp867
(dp868
g23
F0.5
sg24
I39554
sg25
g26
((dp869
I00
I39554
stp870
Rp871
sg30
I2
sg31
F39555.0
sbs(g13
Vcontains(competit)
p872
tp873
g0
(g19
g2
Ntp874
Rp875
(dp876
g23
F0.5
sg24
I39554
sg25
g26
((dp877
I00
I39479
sI01
I75
stp878
Rp879
sg30
I2
sg31
F39555.0
sbs(g13
Vcontains(educ)
p880
tp881
g0
(g19
g2
Ntp882
Rp883
(dp884
g23
F0.5
sg24
I39554
sg25
g26
((dp885
I00
I39554
stp886
Rp887
sg30
I2
sg31
F39555.0
sbs(g8
Vcontains(benefit)
p888
tp889
g0
(g19
g2
Ntp890
Rp891
(dp892
g23
F0.5
sg24
I29752
sg25
g26
((dp893
I00
I29603
sI01
I149
stp894
Rp895
sg30
I2
sg31
F29753.0
sbs(g9
Vcontains(coffe)
p896
tp897
g0
(g19
g2
Ntp898
Rp899
(dp900
g23
F0.5
sg24
I62008
sg25
g26
((dp901
I00
I61996
sI01
I12
stp902
Rp903
sg30
I2
sg31
F62009.0
sbs(g11
Vcontains(friendli)
p904
tp905
g0
(g19
g2
Ntp906
Rp907
(dp908
g23
F0.5
sg24
I4099
sg25
g26
((dp909
I00
I4066
sI01
I33
stp910
Rp911
sg30
I2
sg31
F4100.0
sbs(g11
Vcontains(enjoy)
p912
tp913
g0
(g19
g2
Ntp914
Rp915
(dp916
g23
F0.5
sg24
I4099
sg25
g26
((dp917
I00
I3988
sI01
I111
stp918
Rp919
sg30
I2
sg31
F4100.0
sbs(g12
Vcontains(innov)
p920
tp921
g0
(g19
g2
Ntp922
Rp923
(dp924
g23
F0.5
sg24
I13347
sg25
g26
((dp925
I00
I13335
sI01
I12
stp926
Rp927
sg30
I2
sg31
F13348.0
sbs(g14
Vcontains(enterpris)
p928
tp929
g0
(g19
g2
Ntp930
Rp931
(dp932
g23
F0.5
sg24
I11590
sg25
g26
((dp933
I00
I11585
sI01
I5
stp934
Rp935
sg30
I2
sg31
F11591.0
sbs(g11
Vcontains(leader)
p936
tp937
g0
(g19
g2
Ntp938
Rp939
(dp940
g23
F0.5
sg24
I4099
sg25
g26
((dp941
I00
I4082
sI01
I17
stp942
Rp943
sg30
I2
sg31
F4100.0
sbs(g12
Vcontains(scope)
p944
tp945
g0
(g19
g2
Ntp946
Rp947
(dp948
g23
F0.5
sg24
I13347
sg25
g26
((dp949
I00
I13329
sI01
I18
stp950
Rp951
sg30
I2
sg31
F13348.0
sbs(g14
Vcontains(increment)
p952
tp953
g0
(g19
g2
Ntp954
Rp955
(dp956
g23
F0.5
sg24
I11590
sg25
g26
((dp957
I00
I11581
sI01
I9
stp958
Rp959
sg30
I2
sg31
F11591.0
sbs(g9
Vcontains(scope)
p960
tp961
g0
(g19
g2
Ntp962
Rp963
(dp964
g23
F0.5
sg24
I62008
sg25
g26
((dp965
I00
I61917
sI01
I91
stp966
Rp967
sg30
I2
sg31
F62009.0
sbs(g11
Vcontains(cafeteria)
p968
tp969
g0
(g19
g2
Ntp970
Rp971
(dp972
g23
F0.5
sg24
I4099
sg25
g26
((dp973
I00
I4040
sI01
I59
stp974
Rp975
sg30
I2
sg31
F4100.0
sbs(g14
Vcontains(compens)
p976
tp977
g0
(g19
g2
Ntp978
Rp979
(dp980
g23
F0.5
sg24
I11590
sg25
g26
((dp981
I00
I11571
sI01
I19
stp982
Rp983
sg30
I2
sg31
F11591.0
sbs(g12
Vcontains(manag)
p984
tp985
g0
(g19
g2
Ntp986
Rp987
(dp988
g23
F0.5
sg24
I13347
sg25
g26
((dp989
I00
I12186
sI01
I1161
stp990
Rp991
sg30
I2
sg31
F13348.0
sbs(g12
Vcontains(compens)
p992
tp993
g0
(g19
g2
Ntp994
Rp995
(dp996
g23
F0.5
sg24
I13347
sg25
g26
((dp997
I00
I13311
sI01
I36
stp998
Rp999
sg30
I2
sg31
F13348.0
sbs(g10
Vcontains(overtim)
p1000
tp1001
g0
(g19
g2
Ntp1002
Rp1003
(dp1004
g23
F0.5
sg24
I9294
sg25
g26
((dp1005
I00
I9249
sI01
I45
stp1006
Rp1007
sg30
I2
sg31
F9295.0
sbs(g9
Vcontains(cab)
p1008
tp1009
g0
(g19
g2
Ntp1010
Rp1011
(dp1012
g23
F0.5
sg24
I62008
sg25
g26
((dp1013
I00
I61998
sI01
I10
stp1014
Rp1015
sg30
I2
sg31
F62009.0
sbs(g12
Vcontains(mobil)
p1016
tp1017
g0
(g19
g2
Ntp1018
Rp1019
(dp1020
g23
F0.5
sg24
I13347
sg25
g26
((dp1021
I00
I13340
sI01
I7
stp1022
Rp1023
sg30
I2
sg31
F13348.0
sbs(g10
Vcontains(learn)
p1024
tp1025
g0
(g19
g2
Ntp1026
Rp1027
(dp1028
g23
F0.5
sg24
I9294
sg25
g26
((dp1029
I00
I9135
sI01
I159
stp1030
Rp1031
sg30
I2
sg31
F9295.0
sbs(g8
Vcontains(meal)
p1032
tp1033
g0
(g19
g2
Ntp1034
Rp1035
(dp1036
g23
F0.5
sg24
I29752
sg25
g26
((dp1037
I00
I29751
sI01
I1
stp1038
Rp1039
sg30
I2
sg31
F29753.0
sbs(g11
Vcontains(life)
p1040
tp1041
g0
(g19
g2
Ntp1042
Rp1043
(dp1044
g23
F0.5
sg24
I4099
sg25
g26
((dp1045
I00
I4068
sI01
I31
stp1046
Rp1047
sg30
I2
sg31
F4100.0
sbs(g12
Vcontains(coffe)
p1048
tp1049
g0
(g19
g2
Ntp1050
Rp1051
(dp1052
g23
F0.5
sg24
I13347
sg25
g26
((dp1053
I00
I13343
sI01
I4
stp1054
Rp1055
sg30
I2
sg31
F13348.0
sbs(g14
Vcontains(gain)
p1056
tp1057
g0
(g19
g2
Ntp1058
Rp1059
(dp1060
g23
F0.5
sg24
I11590
sg25
g26
((dp1061
I00
I11313
sI01
I277
stp1062
Rp1063
sg30
I2
sg31
F11591.0
sbs(g14
Vcontains(explor)
p1064
tp1065
g0
(g19
g2
Ntp1066
Rp1067
(dp1068
g23
F0.5
sg24
I11590
sg25
g26
((dp1069
I00
I11578
sI01
I12
stp1070
Rp1071
sg30
I2
sg31
F11591.0
sbs(g8
Vcontains(promot)
p1072
tp1073
g0
(g19
g2
Ntp1074
Rp1075
(dp1076
g23
F0.5
sg24
I29752
sg25
g26
((dp1077
I00
I29599
sI01
I153
stp1078
Rp1079
sg30
I2
sg31
F29753.0
sbs(g8
Vcontains(wifi)
p1080
tp1081
g0
(g19
g2
Ntp1082
Rp1083
(dp1084
g23
F0.5
sg24
I29752
sg25
g26
((dp1085
I00
I29752
stp1086
Rp1087
sg30
I1
sg31
F29752.5
sbs(g11
Vcontains(platform)
p1088
tp1089
g0
(g19
g2
Ntp1090
Rp1091
(dp1092
g23
F0.5
sg24
I4099
sg25
g26
((dp1093
I00
I4090
sI01
I9
stp1094
Rp1095
sg30
I2
sg31
F4100.0
sbs(g14
Vcontains(technolog)
p1096
tp1097
g0
(g19
g2
Ntp1098
Rp1099
(dp1100
g23
F0.5
sg24
I11590
sg25
g26
((dp1101
I00
I11468
sI01
I122
stp1102
Rp1103
sg30
I2
sg31
F11591.0
sbs(g13
Vcontains(knowledg)
p1104
tp1105
g0
(g19
g2
Ntp1106
Rp1107
(dp1108
g23
F0.5
sg24
I39554
sg25
g26
((dp1109
I00
I39362
sI01
I192
stp1110
Rp1111
sg30
I2
sg31
F39555.0
sbs(g8
Vcontains(wage)
p1112
tp1113
g0
(g19
g2
Ntp1114
Rp1115
(dp1116
g23
F0.5
sg24
I29752
sg25
g26
((dp1117
I00
I29748
sI01
I4
stp1118
Rp1119
sg30
I2
sg31
F29753.0
sbs(g8
Vcontains(stress)
p1120
tp1121
g0
(g19
g2
Ntp1122
Rp1123
(dp1124
g23
F0.5
sg24
I29752
sg25
g26
((dp1125
I00
I29703
sI01
I49
stp1126
Rp1127
sg30
I2
sg31
F29753.0
sbs(g12
Vcontains(option)
p1128
tp1129
g0
(g19
g2
Ntp1130
Rp1131
(dp1132
g23
F0.5
sg24
I13347
sg25
g26
((dp1133
I00
I13310
sI01
I37
stp1134
Rp1135
sg30
I2
sg31
F13348.0
sbs(g9
Vcontains(enviro)
p1136
tp1137
g0
(g19
g2
Ntp1138
Rp1139
(dp1140
g23
F0.5
sg24
I62008
sg25
g26
((dp1141
I00
I62008
stp1142
Rp1143
sg30
I1
sg31
F62008.5
sbs(g8
Vcontains(time)
p1144
tp1145
g0
(g19
g2
Ntp1146
Rp1147
(dp1148
g23
F0.5
sg24
I29752
sg25
g26
((dp1149
I00
I28851
sI01
I901
stp1150
Rp1151
sg30
I2
sg31
F29753.0
sbs(g8
Vcontains(motiv)
p1152
tp1153
g0
(g19
g2
Ntp1154
Rp1155
(dp1156
g23
F0.5
sg24
I29752
sg25
g26
((dp1157
I00
I29693
sI01
I59
stp1158
Rp1159
sg30
I2
sg31
F29753.0
sbs(g14
Vcontains(mobil)
p1160
tp1161
g0
(g19
g2
Ntp1162
Rp1163
(dp1164
g23
F0.5
sg24
I11590
sg25
g26
((dp1165
I00
I11585
sI01
I5
stp1166
Rp1167
sg30
I2
sg31
F11591.0
sbs(g12
Vcontains(meal)
p1168
tp1169
g0
(g19
g2
Ntp1170
Rp1171
(dp1172
g23
F0.5
sg24
I13347
sg25
g26
((dp1173
I00
I13342
sI01
I5
stp1174
Rp1175
sg30
I2
sg31
F13348.0
sbs(g11
Vcontains(certif)
p1176
tp1177
g0
(g19
g2
Ntp1178
Rp1179
(dp1180
g23
F0.5
sg24
I4099
sg25
g26
((dp1181
I00
I4097
sI01
I2
stp1182
Rp1183
sg30
I2
sg31
F4100.0
sbs(g11
Vcontains(natur)
p1184
tp1185
g0
(g19
g2
Ntp1186
Rp1187
(dp1188
g23
F0.5
sg24
I4099
sg25
g26
((dp1189
I00
I4099
stp1190
Rp1191
sg30
I2
sg31
F4100.0
sbs(g12
Vcontains(gain)
p1192
tp1193
g0
(g19
g2
Ntp1194
Rp1195
(dp1196
g23
F0.5
sg24
I13347
sg25
g26
((dp1197
I00
I13311
sI01
I36
stp1198
Rp1199
sg30
I2
sg31
F13348.0
sbs(g10
Vcontains(promot)
p1200
tp1201
g0
(g19
g2
Ntp1202
Rp1203
(dp1204
g23
F0.5
sg24
I9294
sg25
g26
((dp1205
I00
I8432
sI01
I862
stp1206
Rp1207
sg30
I2
sg31
F9295.0
sbs(g13
Vcontains(amen)
p1208
tp1209
g0
(g19
g2
Ntp1210
Rp1211
(dp1212
g23
F0.5
sg24
I39554
sg25
g26
((dp1213
I00
I39554
stp1214
Rp1215
sg30
I2
sg31
F39555.0
sbs(g13
Vcontains(oppurtun)
p1216
tp1217
g0
(g19
g2
Ntp1218
Rp1219
(dp1220
g23
F0.5
sg24
I39554
sg25
g26
((dp1221
I00
I39554
stp1222
Rp1223
sg30
I1
sg31
F39554.5
sbs(g9
Vcontains(incent)
p1224
tp1225
g0
(g19
g2
Ntp1226
Rp1227
(dp1228
g23
F0.5
sg24
I62008
sg25
g26
((dp1229
I00
I61979
sI01
I29
stp1230
Rp1231
sg30
I2
sg31
F62009.0
sbs(g10
Vcontains(gener)
p1232
tp1233
g0
(g19
g2
Ntp1234
Rp1235
(dp1236
g23
F0.5
sg24
I9294
sg25
g26
((dp1237
I00
I9275
sI01
I19
stp1238
Rp1239
sg30
I2
sg31
F9295.0
sbs(g12
Vcontains(technolog)
p1240
tp1241
g0
(g19
g2
Ntp1242
Rp1243
(dp1244
g23
F0.5
sg24
I13347
sg25
g26
((dp1245
I00
I13274
sI01
I73
stp1246
Rp1247
sg30
I2
sg31
F13348.0
sbs(g10
Vcontains(enterpris)
p1248
tp1249
g0
(g19
g2
Ntp1250
Rp1251
(dp1252
g23
F0.5
sg24
I9294
sg25
g26
((dp1253
I00
I9288
sI01
I6
stp1254
Rp1255
sg30
I2
sg31
F9295.0
sbs(g14
Vcontains(growth)
p1256
tp1257
g0
(g19
g2
Ntp1258
Rp1259
(dp1260
g23
F0.5
sg24
I11590
sg25
g26
((dp1261
I00
I11502
sI01
I88
stp1262
Rp1263
sg30
I2
sg31
F11591.0
sbs(g8
Vcontains(option)
p1264
tp1265
g0
(g19
g2
Ntp1266
Rp1267
(dp1268
g23
F0.5
sg24
I29752
sg25
g26
((dp1269
I00
I29440
sI01
I312
stp1270
Rp1271
sg30
I2
sg31
F29753.0
sbs(g9
Vcontains(support)
p1272
tp1273
g0
(g19
g2
Ntp1274
Rp1275
(dp1276
g23
F0.5
sg24
I62008
sg25
g26
((dp1277
I00
I60859
sI01
I1149
stp1278
Rp1279
sg30
I2
sg31
F62009.0
sbs(g8
Vcontains(enviro)
p1280
tp1281
g0
(g19
g2
Ntp1282
Rp1283
(dp1284
g23
F0.5
sg24
I29752
sg25
g26
((dp1285
I00
I29752
stp1286
Rp1287
sg30
I1
sg31
F29752.5
sbs(g13
Vcontains(career)
p1288
tp1289
g0
(g19
g2
Ntp1290
Rp1291
(dp1292
g23
F0.5
sg24
I39554
sg25
g26
((dp1293
I00
I39554
stp1294
Rp1295
sg30
I2
sg31
F39555.0
sbs(g13
Vcontains(exposur)
p1296
tp1297
g0
(g19
g2
Ntp1298
Rp1299
(dp1300
g23
F0.5
sg24
I39554
sg25
g26
((dp1301
I00
I39554
stp1302
Rp1303
sg30
I2
sg31
F39555.0
sbs(g11
Vcontains(enviro)
p1304
tp1305
g0
(g19
g2
Ntp1306
Rp1307
(dp1308
g23
F0.5
sg24
I4099
sg25
g26
((dp1309
I00
I4099
stp1310
Rp1311
sg30
I1
sg31
F4099.5
sbs(g9
Vcontains(certif)
p1312
tp1313
g0
(g19
g2
Ntp1314
Rp1315
(dp1316
g23
F0.5
sg24
I62008
sg25
g26
((dp1317
I00
I61996
sI01
I12
stp1318
Rp1319
sg30
I2
sg31
F62009.0
sbs(g14
Vcontains(cab)
p1320
tp1321
g0
(g19
g2
Ntp1322
Rp1323
(dp1324
g23
F0.5
sg24
I11590
sg25
g26
((dp1325
I00
I11587
sI01
I3
stp1326
Rp1327
sg30
I2
sg31
F11591.0
sbs(g11
Vcontains(rais)
p1328
tp1329
g0
(g19
g2
Ntp1330
Rp1331
(dp1332
g23
F0.5
sg24
I4099
sg25
g26
((dp1333
I00
I4093
sI01
I6
stp1334
Rp1335
sg30
I2
sg31
F4100.0
sbs(g10
Vcontains(infrastructur)
p1336
tp1337
g0
(g19
g2
Ntp1338
Rp1339
(dp1340
g23
F0.5
sg24
I9294
sg25
g26
((dp1341
I00
I9286
sI01
I8
stp1342
Rp1343
sg30
I2
sg31
F9295.0
sbs(g8
Vcontains(lovabl)
p1344
tp1345
g0
(g19
g2
Ntp1346
Rp1347
(dp1348
g23
F0.5
sg24
I29752
sg25
g26
((dp1349
I00
I29751
sI01
I1
stp1350
Rp1351
sg30
I2
sg31
F29753.0
sbs(g8
Vcontains(facil)
p1352
tp1353
g0
(g19
g2
Ntp1354
Rp1355
(dp1356
g23
F0.5
sg24
I29752
sg25
g26
((dp1357
I00
I29697
sI01
I55
stp1358
Rp1359
sg30
I2
sg31
F29753.0
sbs(g11
Vcontains(teach)
p1360
tp1361
g0
(g19
g2
Ntp1362
Rp1363
(dp1364
g23
F0.5
sg24
I4099
sg25
g26
((dp1365
I00
I4098
sI01
I1
stp1366
Rp1367
sg30
I2
sg31
F4100.0
sbs(g13
Vcontains(peer)
p1368
tp1369
g0
(g19
g2
Ntp1370
Rp1371
(dp1372
g23
F0.5
sg24
I39554
sg25
g26
((dp1373
I00
I39554
stp1374
Rp1375
sg30
I2
sg31
F39555.0
sbs(g14
Vcontains(work/lif)
p1376
tp1377
g0
(g19
g2
Ntp1378
Rp1379
(dp1380
g23
F0.5
sg24
I11590
sg25
g26
((dp1381
I00
I11590
stp1382
Rp1383
sg30
I1
sg31
F11590.5
sbs(g9
Vcontains(paid)
p1384
tp1385
g0
(g19
g2
Ntp1386
Rp1387
(dp1388
g23
F0.5
sg24
I62008
sg25
g26
((dp1389
I00
I61919
sI01
I89
stp1390
Rp1391
sg30
I2
sg31
F62009.0
sbs(g11
Vcontains(gym)
p1392
tp1393
g0
(g19
g2
Ntp1394
Rp1395
(dp1396
g23
F0.5
sg24
I4099
sg25
g26
((dp1397
I00
I4061
sI01
I38
stp1398
Rp1399
sg30
I2
sg31
F4100.0
sbs(g14
Vcontains(rais)
p1400
tp1401
g0
(g19
g2
Ntp1402
Rp1403
(dp1404
g23
F0.5
sg24
I11590
sg25
g26
((dp1405
I00
I11585
sI01
I5
stp1406
Rp1407
sg30
I2
sg31
F11591.0
sbs(g13
Vcontains(wage)
p1408
tp1409
g0
(g19
g2
Ntp1410
Rp1411
(dp1412
g23
F0.5
sg24
I39554
sg25
g26
((dp1413
I00
I39554
stp1414
Rp1415
sg30
I2
sg31
F39555.0
sbs(g8
Vcontains(upward)
p1416
tp1417
g0
(g19
g2
Ntp1418
Rp1419
(dp1420
g23
F0.5
sg24
I29752
sg25
g26
((dp1421
I00
I29710
sI01
I42
stp1422
Rp1423
sg30
I2
sg31
F29753.0
sbs(g9
Vcontains(teammat)
p1424
tp1425
g0
(g19
g2
Ntp1426
Rp1427
(dp1428
g23
F0.5
sg24
I62008
sg25
g26
((dp1429
I00
I61943
sI01
I65
stp1430
Rp1431
sg30
I2
sg31
F62009.0
sbs(g11
Vcontains(creativ)
p1432
tp1433
g0
(g19
g2
Ntp1434
Rp1435
(dp1436
g23
F0.5
sg24
I4099
sg25
g26
((dp1437
I00
I4098
sI01
I1
stp1438
Rp1439
sg30
I2
sg31
F4100.0
sbs(g9
Vcontains(explor)
p1440
tp1441
g0
(g19
g2
Ntp1442
Rp1443
(dp1444
g23
F0.5
sg24
I62008
sg25
g26
((dp1445
I00
I61968
sI01
I40
stp1446
Rp1447
sg30
I2
sg31
F62009.0
sbs(g14
Vcontains(manger)
p1448
tp1449
g0
(g19
g2
Ntp1450
Rp1451
(dp1452
g23
F0.5
sg24
I11590
sg25
g26
((dp1453
I00
I11586
sI01
I4
stp1454
Rp1455
sg30
I2
sg31
F11591.0
sbs(g8
Vcontains(carreer)
p1456
tp1457
g0
(g19
g2
Ntp1458
Rp1459
(dp1460
g23
F0.5
sg24
I29752
sg25
g26
((dp1461
I00
I29752
stp1462
Rp1463
sg30
I1
sg31
F29752.5
sbs(g11
Vcontains(employ)
p1464
tp1465
g0
(g19
g2
Ntp1466
Rp1467
(dp1468
g23
F0.5
sg24
I4099
sg25
g26
((dp1469
I00
I4090
sI01
I9
stp1470
Rp1471
sg30
I2
sg31
F4100.0
sbs(g9
Vcontains(leader)
p1472
tp1473
g0
(g19
g2
Ntp1474
Rp1475
(dp1476
g23
F0.5
sg24
I62008
sg25
g26
((dp1477
I00
I61124
sI01
I884
stp1478
Rp1479
sg30
I2
sg31
F62009.0
sbs(g13
Vcontains(ethic)
p1480
tp1481
g0
(g19
g2
Ntp1482
Rp1483
(dp1484
g23
F0.5
sg24
I39554
sg25
g26
((dp1485
I00
I39554
stp1486
Rp1487
sg30
I2
sg31
F39555.0
sbs(g13
Vcontains(leader)
p1488
tp1489
g0
(g19
g2
Ntp1490
Rp1491
(dp1492
g23
F0.5
sg24
I39554
sg25
g26
((dp1493
I00
I39554
stp1494
Rp1495
sg30
I2
sg31
F39555.0
sbs(g13
Vcontains(cultur)
p1496
tp1497
g0
(g19
g2
Ntp1498
Rp1499
(dp1500
g23
F0.5
sg24
I39554
sg25
g26
((dp1501
I00
I39554
stp1502
Rp1503
sg30
I2
sg31
F39555.0
sbs(g12
Vcontains(upward)
p1504
tp1505
g0
(g19
g2
Ntp1506
Rp1507
(dp1508
g23
F0.5
sg24
I13347
sg25
g26
((dp1509
I00
I13346
sI01
I1
stp1510
Rp1511
sg30
I2
sg31
F13348.0
sbs(g11
Vcontains(lovabl)
p1512
tp1513
g0
(g19
g2
Ntp1514
Rp1515
(dp1516
g23
F0.5
sg24
I4099
sg25
g26
((dp1517
I00
I4099
stp1518
Rp1519
sg30
I2
sg31
F4100.0
sbs(g8
Vcontains(platform)
p1520
tp1521
g0
(g19
g2
Ntp1522
Rp1523
(dp1524
g23
F0.5
sg24
I29752
sg25
g26
((dp1525
I00
I29452
sI01
I300
stp1526
Rp1527
sg30
I2
sg31
F29753.0
sbs(g11
Vcontains(option)
p1528
tp1529
g0
(g19
g2
Ntp1530
Rp1531
(dp1532
g23
F0.5
sg24
I4099
sg25
g26
((dp1533
I00
I4091
sI01
I8
stp1534
Rp1535
sg30
I2
sg31
F4100.0
sbs(g13
Vcontains(campu)
p1536
tp1537
g0
(g19
g2
Ntp1538
Rp1539
(dp1540
g23
F0.5
sg24
I39554
sg25
g26
((dp1541
I00
I39554
stp1542
Rp1543
sg30
I2
sg31
F39555.0
sbs(g13
Vcontains(life)
p1544
tp1545
g0
(g19
g2
Ntp1546
Rp1547
(dp1548
g23
F0.5
sg24
I39554
sg25
g26
((dp1549
I00
I39554
stp1550
Rp1551
sg30
I2
sg31
F39555.0
sbs(g14
Vcontains(hard-work)
p1552
tp1553
g0
(g19
g2
Ntp1554
Rp1555
(dp1556
g23
F0.5
sg24
I11590
sg25
g26
((dp1557
I00
I11590
stp1558
Rp1559
sg30
I1
sg31
F11590.5
sbs(g9
Vcontains(lovabl)
p1560
tp1561
g0
(g19
g2
Ntp1562
Rp1563
(dp1564
g23
F0.5
sg24
I62008
sg25
g26
((dp1565
I00
I62003
sI01
I5
stp1566
Rp1567
sg30
I2
sg31
F62009.0
sbs(g10
Vcontains(transport)
p1568
tp1569
g0
(g19
g2
Ntp1570
Rp1571
(dp1572
g23
F0.5
sg24
I9294
sg25
g26
((dp1573
I00
I9279
sI01
I15
stp1574
Rp1575
sg30
I2
sg31
F9295.0
sbs(g8
Vcontains(cultur)
p1576
tp1577
g0
(g19
g2
Ntp1578
Rp1579
(dp1580
g23
F0.5
sg24
I29752
sg25
g26
((dp1581
I00
I29329
sI01
I423
stp1582
Rp1583
sg30
I2
sg31
F29753.0
sbs(g8
Vcontains(abil)
p1584
tp1585
g0
(g19
g2
Ntp1586
Rp1587
(dp1588
g23
F0.5
sg24
I29752
sg25
g26
((dp1589
I00
I29292
sI01
I460
stp1590
Rp1591
sg30
I2
sg31
F29753.0
sbs(g10
Vcontains(certif)
p1592
tp1593
g0
(g19
g2
Ntp1594
Rp1595
(dp1596
g23
F0.5
sg24
I9294
sg25
g26
((dp1597
I00
I9290
sI01
I4
stp1598
Rp1599
sg30
I2
sg31
F9295.0
sbs(g11
Vcontains(manger)
p1600
tp1601
g0
(g19
g2
Ntp1602
Rp1603
(dp1604
g23
F0.5
sg24
I4099
sg25
g26
((dp1605
I00
I4096
sI01
I3
stp1606
Rp1607
sg30
I2
sg31
F4100.0
sbs(g11
Vcontains(packag)
p1608
tp1609
g0
(g19
g2
Ntp1610
Rp1611
(dp1612
g23
F0.5
sg24
I4099
sg25
g26
((dp1613
I00
I4094
sI01
I5
stp1614
Rp1615
sg30
I2
sg31
F4100.0
sbs(g14
Vcontains(competit)
p1616
tp1617
g0
(g19
g2
Ntp1618
Rp1619
(dp1620
g23
F0.5
sg24
I11590
sg25
g26
((dp1621
I00
I11552
sI01
I38
stp1622
Rp1623
sg30
I2
sg31
F11591.0
sbs(g12
Vcontains(drink)
p1624
tp1625
g0
(g19
g2
Ntp1626
Rp1627
(dp1628
g23
F0.5
sg24
I13347
sg25
g26
((dp1629
I00
I13346
sI01
I1
stp1630
Rp1631
sg30
I2
sg31
F13348.0
sbs(g11
Vcontains(meal)
p1632
tp1633
g0
(g19
g2
Ntp1634
Rp1635
(dp1636
g23
F0.5
sg24
I4099
sg25
g26
((dp1637
I00
I4063
sI01
I36
stp1638
Rp1639
sg30
I2
sg31
F4100.0
sbs(g13
Vcontains(job/lif)
p1640
tp1641
g0
(g19
g2
Ntp1642
Rp1643
(dp1644
g23
F0.5
sg24
I39554
sg25
g26
((dp1645
I00
I39554
stp1646
Rp1647
sg30
I1
sg31
F39554.5
sbs(g11
Vcontains(paid)
p1648
tp1649
g0
(g19
g2
Ntp1650
Rp1651
(dp1652
g23
F0.5
sg24
I4099
sg25
g26
((dp1653
I00
I4090
sI01
I9
stp1654
Rp1655
sg30
I2
sg31
F4100.0
sbs(g11
Vcontains(gain)
p1656
tp1657
g0
(g19
g2
Ntp1658
Rp1659
(dp1660
g23
F0.5
sg24
I4099
sg25
g26
((dp1661
I00
I4081
sI01
I18
stp1662
Rp1663
sg30
I2
sg31
F4100.0
sbs(g9
Vcontains(job/lif)
p1664
tp1665
g0
(g19
g2
Ntp1666
Rp1667
(dp1668
g23
F0.5
sg24
I62008
sg25
g26
((dp1669
I00
I62008
stp1670
Rp1671
sg30
I1
sg31
F62008.5
sbs(g12
Vcontains(worklif)
p1672
tp1673
g0
(g19
g2
Ntp1674
Rp1675
(dp1676
g23
F0.5
sg24
I13347
sg25
g26
((dp1677
I00
I13347
stp1678
Rp1679
sg30
I1
sg31
F13347.5
sbs(g13
Vcontains(worklif)
p1680
tp1681
g0
(g19
g2
Ntp1682
Rp1683
(dp1684
g23
F0.5
sg24
I39554
sg25
g26
((dp1685
I00
I39554
stp1686
Rp1687
sg30
I1
sg31
F39554.5
sbs(g8
Vcontains(work/lif)
p1688
tp1689
g0
(g19
g2
Ntp1690
Rp1691
(dp1692
g23
F0.5
sg24
I29752
sg25
g26
((dp1693
I00
I29752
stp1694
Rp1695
sg30
I1
sg31
F29752.5
sbs(g11
Vcontains(skill)
p1696
tp1697
g0
(g19
g2
Ntp1698
Rp1699
(dp1700
g23
F0.5
sg24
I4099
sg25
g26
((dp1701
I00
I3860
sI01
I239
stp1702
Rp1703
sg30
I2
sg31
F4100.0
sbs(g9
Vcontains(gener)
p1704
tp1705
g0
(g19
g2
Ntp1706
Rp1707
(dp1708
g23
F0.5
sg24
I62008
sg25
g26
((dp1709
I00
I61825
sI01
I183
stp1710
Rp1711
sg30
I2
sg31
F62009.0
sbs(g11
Vcontains(train)
p1712
tp1713
g0
(g19
g2
Ntp1714
Rp1715
(dp1716
g23
F0.5
sg24
I4099
sg25
g26
((dp1717
I00
I4048
sI01
I51
stp1718
Rp1719
sg30
I2
sg31
F4100.0
sbs(g9
Vcontains(train)
p1720
tp1721
g0
(g19
g2
Ntp1722
Rp1723
(dp1724
g23
F0.5
sg24
I62008
sg25
g26
((dp1725
I00
I61452
sI01
I556
stp1726
Rp1727
sg30
I2
sg31
F62009.0
sbs(g14
Vcontains(lovabl)
p1728
tp1729
g0
(g19
g2
Ntp1730
Rp1731
(dp1732
g23
F0.5
sg24
I11590
sg25
g26
((dp1733
I00
I11589
sI01
I1
stp1734
Rp1735
sg30
I2
sg31
F11591.0
sbs(g14
Vcontains(friendli)
p1736
tp1737
g0
(g19
g2
Ntp1738
Rp1739
(dp1740
g23
F0.5
sg24
I11590
sg25
g26
((dp1741
I00
I11322
sI01
I268
stp1742
Rp1743
sg30
I2
sg31
F11591.0
sbs(g11
Vcontains(freedom)
p1744
tp1745
g0
(g19
g2
Ntp1746
Rp1747
(dp1748
g23
F0.5
sg24
I4099
sg25
g26
((dp1749
I00
I4099
stp1750
Rp1751
sg30
I2
sg31
F4100.0
sbs(g9
Vcontains(hard-work)
p1752
tp1753
g0
(g19
g2
Ntp1754
Rp1755
(dp1756
g23
F0.5
sg24
I62008
sg25
g26
((dp1757
I00
I62008
stp1758
Rp1759
sg30
I1
sg31
F62008.5
sbs(g13
Vcontains(time)
p1760
tp1761
g0
(g19
g2
Ntp1762
Rp1763
(dp1764
g23
F0.5
sg24
I39554
sg25
g26
((dp1765
I00
I39554
stp1766
Rp1767
sg30
I2
sg31
F39555.0
sbs(g11
Vcontains(compens)
p1768
tp1769
g0
(g19
g2
Ntp1770
Rp1771
(dp1772
g23
F0.5
sg24
I4099
sg25
g26
((dp1773
I00
I4094
sI01
I5
stp1774
Rp1775
sg30
I2
sg31
F4100.0
sbs(g8
Vcontains(learn)
p1776
tp1777
g0
(g19
g2
Ntp1778
Rp1779
(dp1780
g23
F0.5
sg24
I29752
sg25
g26
((dp1781
I00
I18847
sI01
I10905
stp1782
Rp1783
sg30
I2
sg31
F29753.0
sbs(g12
Vcontains(motiv)
p1784
tp1785
g0
(g19
g2
Ntp1786
Rp1787
(dp1788
g23
F0.5
sg24
I13347
sg25
g26
((dp1789
I00
I13325
sI01
I22
stp1790
Rp1791
sg30
I2
sg31
F13348.0
sbs(g9
Vcontains(execut)
p1792
tp1793
g0
(g19
g2
Ntp1794
Rp1795
(dp1796
g23
F0.5
sg24
I62008
sg25
g26
((dp1797
I00
I61478
sI01
I530
stp1798
Rp1799
sg30
I2
sg31
F62009.0
sbs(g12
Vcontains(time)
p1800
tp1801
g0
(g19
g2
Ntp1802
Rp1803
(dp1804
g23
F0.5
sg24
I13347
sg25
g26
((dp1805
I00
I5804
sI01
I7543
stp1806
Rp1807
sg30
I2
sg31
F13348.0
sbs(g8
Vcontains(talent)
p1808
tp1809
g0
(g19
g2
Ntp1810
Rp1811
(dp1812
g23
F0.5
sg24
I29752
sg25
g26
((dp1813
I00
I29010
sI01
I742
stp1814
Rp1815
sg30
I2
sg31
F29753.0
sbs(g11
Vcontains(drink)
p1816
tp1817
g0
(g19
g2
Ntp1818
Rp1819
(dp1820
g23
F0.5
sg24
I4099
sg25
g26
((dp1821
I00
I4014
sI01
I85
stp1822
Rp1823
sg30
I2
sg31
F4100.0
sbs(g14
Vcontains(canteen)
p1824
tp1825
g0
(g19
g2
Ntp1826
Rp1827
(dp1828
g23
F0.5
sg24
I11590
sg25
g26
((dp1829
I00
I11586
sI01
I4
stp1830
Rp1831
sg30
I2
sg31
F11591.0
sbs(g12
Vcontains(stress)
p1832
tp1833
g0
(g19
g2
Ntp1834
Rp1835
(dp1836
g23
F0.5
sg24
I13347
sg25
g26
((dp1837
I00
I13259
sI01
I88
stp1838
Rp1839
sg30
I2
sg31
F13348.0
sbs(g12
Vcontains(wage)
p1840
tp1841
g0
(g19
g2
Ntp1842
Rp1843
(dp1844
g23
F0.5
sg24
I13347
sg25
g26
((dp1845
I00
I13329
sI01
I18
stp1846
Rp1847
sg30
I2
sg31
F13348.0
sbs(g10
Vcontains(work/lif)
p1848
tp1849
g0
(g19
g2
Ntp1850
Rp1851
(dp1852
g23
F0.5
sg24
I9294
sg25
g26
((dp1853
I00
I9294
stp1854
Rp1855
sg30
I1
sg31
F9294.5
sbs(g8
Vcontains(lead)
p1856
tp1857
g0
(g19
g2
Ntp1858
Rp1859
(dp1860
g23
F0.5
sg24
I29752
sg25
g26
((dp1861
I00
I29586
sI01
I166
stp1862
Rp1863
sg30
I2
sg31
F29753.0
sbs(g8
Vcontains(encourag)
p1864
tp1865
g0
(g19
g2
Ntp1866
Rp1867
(dp1868
g23
F0.5
sg24
I29752
sg25
g26
((dp1869
I00
I29643
sI01
I109
stp1870
Rp1871
sg30
I2
sg31
F29753.0
sbs(g12
Vcontains(hard-work)
p1872
tp1873
g0
(g19
g2
Ntp1874
Rp1875
(dp1876
g23
F0.5
sg24
I13347
sg25
g26
((dp1877
I00
I13347
stp1878
Rp1879
sg30
I1
sg31
F13347.5
sbs(g12
Vcontains(wifi)
p1880
tp1881
g0
(g19
g2
Ntp1882
Rp1883
(dp1884
g23
F0.5
sg24
I13347
sg25
g26
((dp1885
I00
I13347
stp1886
Rp1887
sg30
I1
sg31
F13347.5
sbs(g13
Vcontains(manag)
p1888
tp1889
g0
(g19
g2
Ntp1890
Rp1891
(dp1892
g23
F0.5
sg24
I39554
sg25
g26
((dp1893
I00
I39554
stp1894
Rp1895
sg30
I2
sg31
F39555.0
sbs(g8
Vcontains(progress)
p1896
tp1897
g0
(g19
g2
Ntp1898
Rp1899
(dp1900
g23
F0.5
sg24
I29752
sg25
g26
((dp1901
I00
I29421
sI01
I331
stp1902
Rp1903
sg30
I2
sg31
F29753.0
sbs(g11
Vcontains(execut)
p1904
tp1905
g0
(g19
g2
Ntp1906
Rp1907
(dp1908
g23
F0.5
sg24
I4099
sg25
g26
((dp1909
I00
I4086
sI01
I13
stp1910
Rp1911
sg30
I2
sg31
F4100.0
sbs(g12
Vcontains(ethic)
p1912
tp1913
g0
(g19
g2
Ntp1914
Rp1915
(dp1916
g23
F0.5
sg24
I13347
sg25
g26
((dp1917
I00
I13334
sI01
I13
stp1918
Rp1919
sg30
I2
sg31
F13348.0
sbs(g11
Vcontains(opportun)
p1920
tp1921
g0
(g19
g2
Ntp1922
Rp1923
(dp1924
g23
F0.5
sg24
I4099
sg25
g26
((dp1925
I00
I4058
sI01
I41
stp1926
Rp1927
sg30
I2
sg31
F4100.0
sbs(g8
Vcontains(mobil)
p1928
tp1929
g0
(g19
g2
Ntp1930
Rp1931
(dp1932
g23
F0.5
sg24
I29752
sg25
g26
((dp1933
I00
I29631
sI01
I121
stp1934
Rp1935
sg30
I2
sg31
F29753.0
sbs(g8
Vcontains(compens)
p1936
tp1937
g0
(g19
g2
Ntp1938
Rp1939
(dp1940
g23
F0.5
sg24
I29752
sg25
g26
((dp1941
I00
I29703
sI01
I49
stp1942
Rp1943
sg30
I2
sg31
F29753.0
sbs(g12
Vcontains(infrastructur)
p1944
tp1945
g0
(g19
g2
Ntp1946
Rp1947
(dp1948
g23
F0.5
sg24
I13347
sg25
g26
((dp1949
I00
I13341
sI01
I6
stp1950
Rp1951
sg30
I2
sg31
F13348.0
sbs(g8
Vcontains(salari)
p1952
tp1953
g0
(g19
g2
Ntp1954
Rp1955
(dp1956
g23
F0.5
sg24
I29752
sg25
g26
((dp1957
I00
I29658
sI01
I94
stp1958
Rp1959
sg30
I2
sg31
F29753.0
sbs(g8
Vcontains(competit)
p1960
tp1961
g0
(g19
g2
Ntp1962
Rp1963
(dp1964
g23
F0.5
sg24
I29752
sg25
g26
((dp1965
I00
I29712
sI01
I40
stp1966
Rp1967
sg30
I2
sg31
F29753.0
sbs(g12
Vcontains(creativ)
p1968
tp1969
g0
(g19
g2
Ntp1970
Rp1971
(dp1972
g23
F0.5
sg24
I13347
sg25
g26
((dp1973
I00
I13346
sI01
I1
stp1974
Rp1975
sg30
I2
sg31
F13348.0
sbs(g9
Vcontains(canteen)
p1976
tp1977
g0
(g19
g2
Ntp1978
Rp1979
(dp1980
g23
F0.5
sg24
I62008
sg25
g26
((dp1981
I00
I62000
sI01
I8
stp1982
Rp1983
sg30
I2
sg31
F62009.0
sbs(g8
Vcontains(innov)
p1984
tp1985
g0
(g19
g2
Ntp1986
Rp1987
(dp1988
g23
F0.5
sg24
I29752
sg25
g26
((dp1989
I00
I29698
sI01
I54
stp1990
Rp1991
sg30
I2
sg31
F29753.0
sbs(g14
Vcontains(pay)
p1992
tp1993
g0
(g19
g2
Ntp1994
Rp1995
(dp1996
g23
F0.5
sg24
I11590
sg25
g26
((dp1997
I00
I11544
sI01
I46
stp1998
Rp1999
sg30
I2
sg31
F11591.0
sbs(g14
Vcontains(atmospher)
p2000
tp2001
g0
(g19
g2
Ntp2002
Rp2003
(dp2004
g23
F0.5
sg24
I11590
sg25
g26
((dp2005
I00
I10879
sI01
I711
stp2006
Rp2007
sg30
I2
sg31
F11591.0
sbs(g10
Vcontains(advanc)
p2008
tp2009
g0
(g19
g2
Ntp2010
Rp2011
(dp2012
g23
F0.5
sg24
I9294
sg25
g26
((dp2013
I00
I9201
sI01
I93
stp2014
Rp2015
sg30
I2
sg31
F9295.0
sbs(g9
Vcontains(abil)
p2016
tp2017
g0
(g19
g2
Ntp2018
Rp2019
(dp2020
g23
F0.5
sg24
I62008
sg25
g26
((dp2021
I00
I61849
sI01
I159
stp2022
Rp2023
sg30
I2
sg31
F62009.0
sbs(g9
Vcontains(meal)
p2024
tp2025
g0
(g19
g2
Ntp2026
Rp2027
(dp2028
g23
F0.5
sg24
I62008
sg25
g26
((dp2029
I00
I62001
sI01
I7
stp2030
Rp2031
sg30
I2
sg31
F62009.0
sbs(g14
Vcontains(abil)
p2032
tp2033
g0
(g19
g2
Ntp2034
Rp2035
(dp2036
g23
F0.5
sg24
I11590
sg25
g26
((dp2037
I00
I11565
sI01
I25
stp2038
Rp2039
sg30
I2
sg31
F11591.0
sbs(g8
Vcontains(technolog)
p2040
tp2041
g0
(g19
g2
Ntp2042
Rp2043
(dp2044
g23
F0.5
sg24
I29752
sg25
g26
((dp2045
I00
I29032
sI01
I720
stp2046
Rp2047
sg30
I2
sg31
F29753.0
sbs(g9
Vcontains(talent)
p2048
tp2049
g0
(g19
g2
Ntp2050
Rp2051
(dp2052
g23
F0.5
sg24
I62008
sg25
g26
((dp2053
I00
I61856
sI01
I152
stp2054
Rp2055
sg30
I2
sg31
F62009.0
sbs(g12
Vcontains(job/work)
p2056
tp2057
g0
(g19
g2
Ntp2058
Rp2059
(dp2060
g23
F0.5
sg24
I13347
sg25
g26
((dp2061
I00
I13347
stp2062
Rp2063
sg30
I1
sg31
F13347.5
sbs(g11
Vcontains(upward)
p2064
tp2065
g0
(g19
g2
Ntp2066
Rp2067
(dp2068
g23
F0.5
sg24
I4099
sg25
g26
((dp2069
I00
I4098
sI01
I1
stp2070
Rp2071
sg30
I2
sg31
F4100.0
sbs(g12
Vcontains(cultur)
p2072
tp2073
g0
(g19
g2
Ntp2074
Rp2075
(dp2076
g23
F0.5
sg24
I13347
sg25
g26
((dp2077
I00
I13182
sI01
I165
stp2078
Rp2079
sg30
I2
sg31
F13348.0
sbs(g14
Vcontains(hike)
p2080
tp2081
g0
(g19
g2
Ntp2082
Rp2083
(dp2084
g23
F0.5
sg24
I11590
sg25
g26
((dp2085
I00
I11573
sI01
I17
stp2086
Rp2087
sg30
I2
sg31
F11591.0
sbs(g13
Vcontains(option)
p2088
tp2089
g0
(g19
g2
Ntp2090
Rp2091
(dp2092
g23
F0.5
sg24
I39554
sg25
g26
((dp2093
I00
I39554
stp2094
Rp2095
sg30
I2
sg31
F39555.0
sbs(g10
Vcontains(carreer)
p2096
tp2097
g0
(g19
g2
Ntp2098
Rp2099
(dp2100
g23
F0.5
sg24
I9294
sg25
g26
((dp2101
I00
I9294
stp2102
Rp2103
sg30
I1
sg31
F9294.5
sbs(g12
Vcontains(food)
p2104
tp2105
g0
(g19
g2
Ntp2106
Rp2107
(dp2108
g23
F0.5
sg24
I13347
sg25
g26
((dp2109
I00
I13324
sI01
I23
stp2110
Rp2111
sg30
I2
sg31
F13348.0
sbs(g13
Vcontains(work-from-hom)
p2112
tp2113
g0
(g19
g2
Ntp2114
Rp2115
(dp2116
g23
F0.5
sg24
I39554
sg25
g26
((dp2117
I00
I39554
stp2118
Rp2119
sg30
I1
sg31
F39554.5
sbs(g8
Vcontains(teammat)
p2120
tp2121
g0
(g19
g2
Ntp2122
Rp2123
(dp2124
g23
F0.5
sg24
I29752
sg25
g26
((dp2125
I00
I29742
sI01
I10
stp2126
Rp2127
sg30
I2
sg31
F29753.0
sbs(g13
Vcontains(salari)
p2128
tp2129
g0
(g19
g2
Ntp2130
Rp2131
(dp2132
g23
F0.5
sg24
I39554
sg25
g26
((dp2133
I00
I39554
stp2134
Rp2135
sg30
I2
sg31
F39555.0
sbs(g12
Vcontains(manger)
p2136
tp2137
g0
(g19
g2
Ntp2138
Rp2139
(dp2140
g23
F0.5
sg24
I13347
sg25
g26
((dp2141
I00
I13341
sI01
I6
stp2142
Rp2143
sg30
I2
sg31
F13348.0
sbs(g13
Vcontains(wifi)
p2144
tp2145
g0
(g19
g2
Ntp2146
Rp2147
(dp2148
g23
F0.5
sg24
I39554
sg25
g26
((dp2149
I00
I39554
stp2150
Rp2151
sg30
I1
sg31
F39554.5
sbs(g10
Vcontains(flexibl)
p2152
tp2153
g0
(g19
g2
Ntp2154
Rp2155
(dp2156
g23
F0.5
sg24
I9294
sg25
g26
((dp2157
I00
I9256
sI01
I38
stp2158
Rp2159
sg30
I2
sg31
F9295.0
sbs(g9
Vcontains(packag)
p2160
tp2161
g0
(g19
g2
Ntp2162
Rp2163
(dp2164
g23
F0.5
sg24
I62008
sg25
g26
((dp2165
I00
I61947
sI01
I61
stp2166
Rp2167
sg30
I2
sg31
F62009.0
sbs(g12
Vcontains(futur)
p2168
tp2169
g0
(g19
g2
Ntp2170
Rp2171
(dp2172
g23
F0.5
sg24
I13347
sg25
g26
((dp2173
I00
I13337
sI01
I10
stp2174
Rp2175
sg30
I2
sg31
F13348.0
sbs(g8
Vcontains(train)
p2176
tp2177
g0
(g19
g2
Ntp2178
Rp2179
(dp2180
g23
F0.5
sg24
I29752
sg25
g26
((dp2181
I00
I27070
sI01
I2682
stp2182
Rp2183
sg30
I2
sg31
F29753.0
sbs(g9
Vcontains(chanc)
p2184
tp2185
g0
(g19
g2
Ntp2186
Rp2187
(dp2188
g23
F0.5
sg24
I62008
sg25
g26
((dp2189
I00
I61837
sI01
I171
stp2190
Rp2191
sg30
I2
sg31
F62009.0
sbs(g12
Vcontains(amen)
p2192
tp2193
g0
(g19
g2
Ntp2194
Rp2195
(dp2196
g23
F0.5
sg24
I13347
sg25
g26
((dp2197
I00
I13346
sI01
I1
stp2198
Rp2199
sg30
I2
sg31
F13348.0
sbs(g12
Vcontains(chanc)
p2200
tp2201
g0
(g19
g2
Ntp2202
Rp2203
(dp2204
g23
F0.5
sg24
I13347
sg25
g26
((dp2205
I00
I13308
sI01
I39
stp2206
Rp2207
sg30
I2
sg31
F13348.0
sbs(g12
Vcontains(remuner)
p2208
tp2209
g0
(g19
g2
Ntp2210
Rp2211
(dp2212
g23
F0.5
sg24
I13347
sg25
g26
((dp2213
I00
I13346
sI01
I1
stp2214
Rp2215
sg30
I2
sg31
F13348.0
sbs(g14
Vcontains(overtim)
p2216
tp2217
g0
(g19
g2
Ntp2218
Rp2219
(dp2220
g23
F0.5
sg24
I11590
sg25
g26
((dp2221
I00
I11586
sI01
I4
stp2222
Rp2223
sg30
I2
sg31
F11591.0
sbs(g11
Vcontains(worklif)
p2224
tp2225
g0
(g19
g2
Ntp2226
Rp2227
(dp2228
g23
F0.5
sg24
I4099
sg25
g26
((dp2229
I00
I4099
stp2230
Rp2231
sg30
I1
sg31
F4099.5
sbs(g12
Vcontains(skill)
p2232
tp2233
g0
(g19
g2
Ntp2234
Rp2235
(dp2236
g23
F0.5
sg24
I13347
sg25
g26
((dp2237
I00
I13188
sI01
I159
stp2238
Rp2239
sg30
I2
sg31
F13348.0
sbs(g8
Vcontains(natur)
p2240
tp2241
g0
(g19
g2
Ntp2242
Rp2243
(dp2244
g23
F0.5
sg24
I29752
sg25
g26
((dp2245
I00
I29727
sI01
I25
stp2246
Rp2247
sg30
I2
sg31
F29753.0
sbs(g8
Vcontains(opportun)
p2248
tp2249
g0
(g19
g2
Ntp2250
Rp2251
(dp2252
g23
F0.5
sg24
I29752
sg25
g26
((dp2253
I00
I25822
sI01
I3930
stp2254
Rp2255
sg30
I2
sg31
F29753.0
sbs(g8
Vcontains(support)
p2256
tp2257
g0
(g19
g2
Ntp2258
Rp2259
(dp2260
g23
F0.5
sg24
I29752
sg25
g26
((dp2261
I00
I29405
sI01
I347
stp2262
Rp2263
sg30
I2
sg31
F29753.0
sbs(g13
Vcontains(transport)
p2264
tp2265
g0
(g19
g2
Ntp2266
Rp2267
(dp2268
g23
F0.5
sg24
I39554
sg25
g26
((dp2269
I00
I39554
stp2270
Rp2271
sg30
I2
sg31
F39555.0
sbs(g12
Vcontains(work-from-hom)
p2272
tp2273
g0
(g19
g2
Ntp2274
Rp2275
(dp2276
g23
F0.5
sg24
I13347
sg25
g26
((dp2277
I00
I13347
stp2278
Rp2279
sg30
I1
sg31
F13347.5
sbs(g14
Vcontains(breakfast)
p2280
tp2281
g0
(g19
g2
Ntp2282
Rp2283
(dp2284
g23
F0.5
sg24
I11590
sg25
g26
((dp2285
I00
I11589
sI01
I1
stp2286
Rp2287
sg30
I2
sg31
F11591.0
sbs(g8
Vcontains(seek)
p2288
tp2289
g0
(g19
g2
Ntp2290
Rp2291
(dp2292
g23
F0.5
sg24
I29752
sg25
g26
((dp2293
I00
I29623
sI01
I129
stp2294
Rp2295
sg30
I2
sg31
F29753.0
sbs(g9
Vcontains(benefit)
p2296
tp2297
g0
(g19
g2
Ntp2298
Rp2299
(dp2300
g23
F0.5
sg24
I62008
sg25
g26
((dp2301
I00
I61643
sI01
I365
stp2302
Rp2303
sg30
I2
sg31
F62009.0
sbs(g13
Vcontains(secur)
p2304
tp2305
g0
(g19
g2
Ntp2306
Rp2307
(dp2308
g23
F0.5
sg24
I39554
sg25
g26
((dp2309
I00
I39554
stp2310
Rp2311
sg30
I2
sg31
F39555.0
sbs(g11
Vcontains(talent)
p2312
tp2313
g0
(g19
g2
Ntp2314
Rp2315
(dp2316
g23
F0.5
sg24
I4099
sg25
g26
((dp2317
I00
I4096
sI01
I3
stp2318
Rp2319
sg30
I2
sg31
F4100.0
sbs(g9
Vcontains(reward)
p2320
tp2321
g0
(g19
g2
Ntp2322
Rp2323
(dp2324
g23
F0.5
sg24
I62008
sg25
g26
((dp2325
I00
I61838
sI01
I170
stp2326
Rp2327
sg30
I2
sg31
F62009.0
sbs(g10
Vcontains(worklif)
p2328
tp2329
g0
(g19
g2
Ntp2330
Rp2331
(dp2332
g23
F0.5
sg24
I9294
sg25
g26
((dp2333
I00
I9294
stp2334
Rp2335
sg30
I1
sg31
F9294.5
sbs(g10
Vcontains(time)
p2336
tp2337
g0
(g19
g2
Ntp2338
Rp2339
(dp2340
g23
F0.5
sg24
I9294
sg25
g26
((dp2341
I00
I8940
sI01
I354
stp2342
Rp2343
sg30
I2
sg31
F9295.0
sbs(g13
Vcontains(creativ)
p2344
tp2345
g0
(g19
g2
Ntp2346
Rp2347
(dp2348
g23
F0.5
sg24
I39554
sg25
g26
((dp2349
I00
I39554
stp2350
Rp2351
sg30
I2
sg31
F39555.0
sbs(g12
Vcontains(enviro)
p2352
tp2353
g0
(g19
g2
Ntp2354
Rp2355
(dp2356
g23
F0.5
sg24
I13347
sg25
g26
((dp2357
I00
I13347
stp2358
Rp2359
sg30
I1
sg31
F13347.5
sbs(g14
Vcontains(coffe)
p2360
tp2361
g0
(g19
g2
Ntp2362
Rp2363
(dp2364
g23
F0.5
sg24
I11590
sg25
g26
((dp2365
I00
I11589
sI01
I1
stp2366
Rp2367
sg30
I2
sg31
F11591.0
sbs(g11
Vcontains(seek)
p2368
tp2369
g0
(g19
g2
Ntp2370
Rp2371
(dp2372
g23
F0.5
sg24
I4099
sg25
g26
((dp2373
I00
I4097
sI01
I2
stp2374
Rp2375
sg30
I2
sg31
F4100.0
sbs(g11
Vcontains(infrastructur)
p2376
tp2377
g0
(g19
g2
Ntp2378
Rp2379
(dp2380
g23
F0.5
sg24
I4099
sg25
g26
((dp2381
I00
I3931
sI01
I168
stp2382
Rp2383
sg30
I2
sg31
F4100.0
sbs(g8
Vcontains(cafeteria)
p2384
tp2385
g0
(g19
g2
Ntp2386
Rp2387
(dp2388
g23
F0.5
sg24
I29752
sg25
g26
((dp2389
I00
I29751
sI01
I1
stp2390
Rp2391
sg30
I2
sg31
F29753.0
sbs(g12
Vcontains(commun)
p2392
tp2393
g0
(g19
g2
Ntp2394
Rp2395
(dp2396
g23
F0.5
sg24
I13347
sg25
g26
((dp2397
I00
I13284
sI01
I63
stp2398
Rp2399
sg30
I2
sg31
F13348.0
sbs(g8
Vcontains(leader)
p2400
tp2401
g0
(g19
g2
Ntp2402
Rp2403
(dp2404
g23
F0.5
sg24
I29752
sg25
g26
((dp2405
I00
I29626
sI01
I126
stp2406
Rp2407
sg30
I2
sg31
F29753.0
sbs(g9
Vcontains(shift)
p2408
tp2409
g0
(g19
g2
Ntp2410
Rp2411
(dp2412
g23
F0.5
sg24
I62008
sg25
g26
((dp2413
I00
I61394
sI01
I614
stp2414
Rp2415
sg30
I2
sg31
F62009.0
sbs(g11
Vcontains(ethic)
p2416
tp2417
g0
(g19
g2
Ntp2418
Rp2419
(dp2420
g23
F0.5
sg24
I4099
sg25
g26
((dp2421
I00
I4095
sI01
I4
stp2422
Rp2423
sg30
I2
sg31
F4100.0
sbs(g9
Vcontains(manag)
p2424
tp2425
g0
(g19
g2
Ntp2426
Rp2427
(dp2428
g23
F0.5
sg24
I62008
sg25
g26
((dp2429
I00
I47012
sI01
I14996
stp2430
Rp2431
sg30
I2
sg31
F62009.0
sbs(g12
Vcontains(lead)
p2432
tp2433
g0
(g19
g2
Ntp2434
Rp2435
(dp2436
g23
F0.5
sg24
I13347
sg25
g26
((dp2437
I00
I13295
sI01
I52
stp2438
Rp2439
sg30
I2
sg31
F13348.0
sbs(g14
Vcontains(leadership)
p2440
tp2441
g0
(g19
g2
Ntp2442
Rp2443
(dp2444
g23
F0.5
sg24
I11590
sg25
g26
((dp2445
I00
I11545
sI01
I45
stp2446
Rp2447
sg30
I2
sg31
F11591.0
sbs(g11
Vcontains(knowledg)
p2448
tp2449
g0
(g19
g2
Ntp2450
Rp2451
(dp2452
g23
F0.5
sg24
I4099
sg25
g26
((dp2453
I00
I4072
sI01
I27
stp2454
Rp2455
sg30
I2
sg31
F4100.0
sbs(g8
Vcontains(overtim)
p2456
tp2457
g0
(g19
g2
Ntp2458
Rp2459
(dp2460
g23
F0.5
sg24
I29752
sg25
g26
((dp2461
I00
I29725
sI01
I27
stp2462
Rp2463
sg30
I2
sg31
F29753.0
sbs(g9
Vcontains(amen)
p2464
tp2465
g0
(g19
g2
Ntp2466
Rp2467
(dp2468
g23
F0.5
sg24
I62008
sg25
g26
((dp2469
I00
I62003
sI01
I5
stp2470
Rp2471
sg30
I2
sg31
F62009.0
sbs(g10
Vcontains(salari)
p2472
tp2473
g0
(g19
g2
Ntp2474
Rp2475
(dp2476
g23
F0.5
sg24
I9294
sg25
g26
((dp2477
I00
I8439
sI01
I855
stp2478
Rp2479
sg30
I2
sg31
F9295.0
sbs(g12
Vcontains(challeng)
p2480
tp2481
g0
(g19
g2
Ntp2482
Rp2483
(dp2484
g23
F0.5
sg24
I13347
sg25
g26
((dp2485
I00
I13235
sI01
I112
stp2486
Rp2487
sg30
I2
sg31
F13348.0
sbs(g10
Vcontains(natur)
p2488
tp2489
g0
(g19
g2
Ntp2490
Rp2491
(dp2492
g23
F0.5
sg24
I9294
sg25
g26
((dp2493
I00
I9290
sI01
I4
stp2494
Rp2495
sg30
I2
sg31
F9295.0
sbs(g11
Vcontains(wage)
p2496
tp2497
g0
(g19
g2
Ntp2498
Rp2499
(dp2500
g23
F0.5
sg24
I4099
sg25
g26
((dp2501
I00
I4095
sI01
I4
stp2502
Rp2503
sg30
I2
sg31
F4100.0
sbs(g12
Vcontains(breakfast)
p2504
tp2505
g0
(g19
g2
Ntp2506
Rp2507
(dp2508
g23
F0.5
sg24
I13347
sg25
g26
((dp2509
I00
I13342
sI01
I5
stp2510
Rp2511
sg30
I2
sg31
F13348.0
sbs(g11
Vcontains(wifi)
p2512
tp2513
g0
(g19
g2
Ntp2514
Rp2515
(dp2516
g23
F0.5
sg24
I4099
sg25
g26
((dp2517
I00
I4099
stp2518
Rp2519
sg30
I1
sg31
F4099.5
sbs(g11
Vcontains(confid)
p2520
tp2521
g0
(g19
g2
Ntp2522
Rp2523
(dp2524
g23
F0.5
sg24
I4099
sg25
g26
((dp2525
I00
I4092
sI01
I7
stp2526
Rp2527
sg30
I2
sg31
F4100.0
sbs(g12
Vcontains(growth)
p2528
tp2529
g0
(g19
g2
Ntp2530
Rp2531
(dp2532
g23
F0.5
sg24
I13347
sg25
g26
((dp2533
I00
I13308
sI01
I39
stp2534
Rp2535
sg30
I2
sg31
F13348.0
sbs(g8
Vcontains(mentor)
p2536
tp2537
g0
(g19
g2
Ntp2538
Rp2539
(dp2540
g23
F0.5
sg24
I29752
sg25
g26
((dp2541
I00
I29709
sI01
I43
stp2542
Rp2543
sg30
I2
sg31
F29753.0
sbs(g9
Vcontains(manger)
p2544
tp2545
g0
(g19
g2
Ntp2546
Rp2547
(dp2548
g23
F0.5
sg24
I62008
sg25
g26
((dp2549
I00
I61908
sI01
I100
stp2550
Rp2551
sg30
I2
sg31
F62009.0
sbs(g9
Vcontains(remuner)
p2552
tp2553
g0
(g19
g2
Ntp2554
Rp2555
(dp2556
g23
F0.5
sg24
I62008
sg25
g26
((dp2557
I00
I62005
sI01
I3
stp2558
Rp2559
sg30
I2
sg31
F62009.0
sbs(g9
Vcontains(encourag)
p2560
tp2561
g0
(g19
g2
Ntp2562
Rp2563
(dp2564
g23
F0.5
sg24
I62008
sg25
g26
((dp2565
I00
I61826
sI01
I182
stp2566
Rp2567
sg30
I2
sg31
F62009.0
sbs(g14
Vcontains(teammat)
p2568
tp2569
g0
(g19
g2
Ntp2570
Rp2571
(dp2572
g23
F0.5
sg24
I11590
sg25
g26
((dp2573
I00
I11585
sI01
I5
stp2574
Rp2575
sg30
I2
sg31
F11591.0
sbs(g11
Vcontains(salari)
p2576
tp2577
g0
(g19
g2
Ntp2578
Rp2579
(dp2580
g23
F0.5
sg24
I4099
sg25
g26
((dp2581
I00
I4079
sI01
I20
stp2582
Rp2583
sg30
I2
sg31
F4100.0
sbs(g14
Vcontains(creativ)
p2584
tp2585
g0
(g19
g2
Ntp2586
Rp2587
(dp2588
g23
F0.5
sg24
I11590
sg25
g26
((dp2589
I00
I11401
sI01
I189
stp2590
Rp2591
sg30
I2
sg31
F11591.0
sbs(g11
Vcontains(futur)
p2592
tp2593
g0
(g19
g2
Ntp2594
Rp2595
(dp2596
g23
F0.5
sg24
I4099
sg25
g26
((dp2597
I00
I4094
sI01
I5
stp2598
Rp2599
sg30
I2
sg31
F4100.0
sbs(g9
Vcontains(confid)
p2600
tp2601
g0
(g19
g2
Ntp2602
Rp2603
(dp2604
g23
F0.5
sg24
I62008
sg25
g26
((dp2605
I00
I61971
sI01
I37
stp2606
Rp2607
sg30
I2
sg31
F62009.0
sbs(g11
Vcontains(campu)
p2608
tp2609
g0
(g19
g2
Ntp2610
Rp2611
(dp2612
g23
F0.5
sg24
I4099
sg25
g26
((dp2613
I00
I3997
sI01
I102
stp2614
Rp2615
sg30
I2
sg31
F4100.0
sbs(g12
Vcontains(job/lif)
p2616
tp2617
g0
(g19
g2
Ntp2618
Rp2619
(dp2620
g23
F0.5
sg24
I13347
sg25
g26
((dp2621
I00
I13347
stp2622
Rp2623
sg30
I1
sg31
F13347.5
sbs(g13
Vcontains(breakfast)
p2624
tp2625
g0
(g19
g2
Ntp2626
Rp2627
(dp2628
g23
F0.5
sg24
I39554
sg25
g26
((dp2629
I00
I39554
stp2630
Rp2631
sg30
I2
sg31
F39555.0
sbs(g11
Vcontains(oppurtun)
p2632
tp2633
g0
(g19
g2
Ntp2634
Rp2635
(dp2636
g23
F0.5
sg24
I4099
sg25
g26
((dp2637
I00
I4099
stp2638
Rp2639
sg30
I1
sg31
F4099.5
sbs(g14
Vcontains(cafeteria)
p2640
tp2641
g0
(g19
g2
Ntp2642
Rp2643
(dp2644
g23
F0.5
sg24
I11590
sg25
g26
((dp2645
I00
I11589
sI01
I1
stp2646
Rp2647
sg30
I2
sg31
F11591.0
sbs(g8
Vcontains(staff)
p2648
tp2649
g0
(g19
g2
Ntp2650
Rp2651
(dp2652
g23
F0.5
sg24
I29752
sg25
g26
((dp2653
I00
I29641
sI01
I111
stp2654
Rp2655
sg30
I2
sg31
F29753.0
sbs(g8
Vcontains(collegu)
p2656
tp2657
g0
(g19
g2
Ntp2658
Rp2659
(dp2660
g23
F0.5
sg24
I29752
sg25
g26
((dp2661
I00
I29752
stp2662
Rp2663
sg30
I1
sg31
F29752.5
sbs(g9
Vcontains(oppurtun)
p2664
tp2665
g0
(g19
g2
Ntp2666
Rp2667
(dp2668
g23
F0.5
sg24
I62008
sg25
g26
((dp2669
I00
I62008
stp2670
Rp2671
sg30
I1
sg31
F62008.5
sbs(g10
Vcontains(breakfast)
p2672
tp2673
g0
(g19
g2
Ntp2674
Rp2675
(dp2676
g23
F0.5
sg24
I9294
sg25
g26
((dp2677
I00
I9293
sI01
I1
stp2678
Rp2679
sg30
I2
sg31
F9295.0
sbs(g10
Vcontains(campu)
p2680
tp2681
g0
(g19
g2
Ntp2682
Rp2683
(dp2684
g23
F0.5
sg24
I9294
sg25
g26
((dp2685
I00
I9289
sI01
I5
stp2686
Rp2687
sg30
I2
sg31
F9295.0
sbs(g14
Vcontains(reward)
p2688
tp2689
g0
(g19
g2
Ntp2690
Rp2691
(dp2692
g23
F0.5
sg24
I11590
sg25
g26
((dp2693
I00
I11552
sI01
I38
stp2694
Rp2695
sg30
I2
sg31
F11591.0
sbs(g10
Vcontains(exposur)
p2696
tp2697
g0
(g19
g2
Ntp2698
Rp2699
(dp2700
g23
F0.5
sg24
I9294
sg25
g26
((dp2701
I00
I9281
sI01
I13
stp2702
Rp2703
sg30
I2
sg31
F9295.0
sbs(g11
Vcontains(progress)
p2704
tp2705
g0
(g19
g2
Ntp2706
Rp2707
(dp2708
g23
F0.5
sg24
I4099
sg25
g26
((dp2709
I00
I4095
sI01
I4
stp2710
Rp2711
sg30
I2
sg31
F4100.0
sbs(g9
Vcontains(monetari)
p2712
tp2713
g0
(g19
g2
Ntp2714
Rp2715
(dp2716
g23
F0.5
sg24
I62008
sg25
g26
((dp2717
I00
I62005
sI01
I3
stp2718
Rp2719
sg30
I2
sg31
F62009.0
sbs(g10
Vcontains(remuner)
p2720
tp2721
g0
(g19
g2
Ntp2722
Rp2723
(dp2724
g23
F0.5
sg24
I9294
sg25
g26
((dp2725
I00
I9281
sI01
I13
stp2726
Rp2727
sg30
I2
sg31
F9295.0
sbs(g12
Vcontains(life)
p2728
tp2729
g0
(g19
g2
Ntp2730
Rp2731
(dp2732
g23
F0.5
sg24
I13347
sg25
g26
((dp2733
I00
I10124
sI01
I3223
stp2734
Rp2735
sg30
I2
sg31
F13348.0
sbs(g14
Vcontains(wifi)
p2736
tp2737
g0
(g19
g2
Ntp2738
Rp2739
(dp2740
g23
F0.5
sg24
I11590
sg25
g26
((dp2741
I00
I11590
stp2742
Rp2743
sg30
I1
sg31
F11590.5
sbs(g13
Vcontains(advanc)
p2744
tp2745
g0
(g19
g2
Ntp2746
Rp2747
(dp2748
g23
F0.5
sg24
I39554
sg25
g26
((dp2749
I00
I39554
stp2750
Rp2751
sg30
I2
sg31
F39555.0
sbs(g13
Vcontains(execut)
p2752
tp2753
g0
(g19
g2
Ntp2754
Rp2755
(dp2756
g23
F0.5
sg24
I39554
sg25
g26
((dp2757
I00
I39554
stp2758
Rp2759
sg30
I2
sg31
F39555.0
sbs(g8
Vcontains(breakfast)
p2760
tp2761
g0
(g19
g2
Ntp2762
Rp2763
(dp2764
g23
F0.5
sg24
I29752
sg25
g26
((dp2765
I00
I29751
sI01
I1
stp2766
Rp2767
sg30
I2
sg31
F29753.0
sbs(g9
Vcontains(gym)
p2768
tp2769
g0
(g19
g2
Ntp2770
Rp2771
(dp2772
g23
F0.5
sg24
I62008
sg25
g26
((dp2773
I00
I62001
sI01
I7
stp2774
Rp2775
sg30
I2
sg31
F62009.0
sbs(g9
Vcontains(educ)
p2776
tp2777
g0
(g19
g2
Ntp2778
Rp2779
(dp2780
g23
F0.5
sg24
I62008
sg25
g26
((dp2781
I00
I61960
sI01
I48
stp2782
Rp2783
sg30
I2
sg31
F62009.0
sbs(g8
Vcontains(compet)
p2784
tp2785
g0
(g19
g2
Ntp2786
Rp2787
(dp2788
g23
F0.5
sg24
I29752
sg25
g26
((dp2789
I00
I29556
sI01
I196
stp2790
Rp2791
sg30
I2
sg31
F29753.0
sbs(g9
Vcontains(wifi)
p2792
tp2793
g0
(g19
g2
Ntp2794
Rp2795
(dp2796
g23
F0.5
sg24
I62008
sg25
g26
((dp2797
I00
I62008
stp2798
Rp2799
sg30
I1
sg31
F62008.5
sbs(g9
Vcontains(rais)
p2800
tp2801
g0
(g19
g2
Ntp2802
Rp2803
(dp2804
g23
F0.5
sg24
I62008
sg25
g26
((dp2805
I00
I61975
sI01
I33
stp2806
Rp2807
sg30
I2
sg31
F62009.0
sbs(g12
Vcontains(overtim)
p2808
tp2809
g0
(g19
g2
Ntp2810
Rp2811
(dp2812
g23
F0.5
sg24
I13347
sg25
g26
((dp2813
I00
I13034
sI01
I313
stp2814
Rp2815
sg30
I2
sg31
F13348.0
sbs(g14
Vcontains(bonu)
p2816
tp2817
g0
(g19
g2
Ntp2818
Rp2819
(dp2820
g23
F0.5
sg24
I11590
sg25
g26
((dp2821
I00
I11588
sI01
I2
stp2822
Rp2823
sg30
I2
sg31
F11591.0
sbs(g9
Vcontains(platform)
p2824
tp2825
g0
(g19
g2
Ntp2826
Rp2827
(dp2828
g23
F0.5
sg24
I62008
sg25
g26
((dp2829
I00
I61923
sI01
I85
stp2830
Rp2831
sg30
I2
sg31
F62009.0
sbs(g9
Vcontains(snack)
p2832
tp2833
g0
(g19
g2
Ntp2834
Rp2835
(dp2836
g23
F0.5
sg24
I62008
sg25
g26
((dp2837
I00
I61994
sI01
I14
stp2838
Rp2839
sg30
I2
sg31
F62009.0
sbs(g10
Vcontains(manag)
p2840
tp2841
g0
(g19
g2
Ntp2842
Rp2843
(dp2844
g23
F0.5
sg24
I9294
sg25
g26
((dp2845
I00
I8842
sI01
I452
stp2846
Rp2847
sg30
I2
sg31
F9295.0
sbs(g14
Vcontains(gym)
p2848
tp2849
g0
(g19
g2
Ntp2850
Rp2851
(dp2852
g23
F0.5
sg24
I11590
sg25
g26
((dp2853
I00
I11589
sI01
I1
stp2854
Rp2855
sg30
I2
sg31
F11591.0
sbs(g9
Vcontains(friendli)
p2856
tp2857
g0
(g19
g2
Ntp2858
Rp2859
(dp2860
g23
F0.5
sg24
I62008
sg25
g26
((dp2861
I00
I61076
sI01
I932
stp2862
Rp2863
sg30
I2
sg31
F62009.0
sbs(g10
Vcontains(lead)
p2864
tp2865
g0
(g19
g2
Ntp2866
Rp2867
(dp2868
g23
F0.5
sg24
I9294
sg25
g26
((dp2869
I00
I9250
sI01
I44
stp2870
Rp2871
sg30
I2
sg31
F9295.0
sbs(g11
Vcontains(commun)
p2872
tp2873
g0
(g19
g2
Ntp2874
Rp2875
(dp2876
g23
F0.5
sg24
I4099
sg25
g26
((dp2877
I00
I2812
sI01
I1287
stp2878
Rp2879
sg30
I2
sg31
F4100.0
sbs(g8
Vcontains(career)
p2880
tp2881
g0
(g19
g2
Ntp2882
Rp2883
(dp2884
g23
F0.5
sg24
I29752
sg25
g26
((dp2885
I00
I27247
sI01
I2505
stp2886
Rp2887
sg30
I2
sg31
F29753.0
sbs(g8
Vcontains(commun)
p2888
tp2889
g0
(g19
g2
Ntp2890
Rp2891
(dp2892
g23
F0.5
sg24
I29752
sg25
g26
((dp2893
I00
I29391
sI01
I361
stp2894
Rp2895
sg30
I2
sg31
F29753.0
sbs(g13
Vcontains(organis)
p2896
tp2897
g0
(g19
g2
Ntp2898
Rp2899
(dp2900
g23
F0.5
sg24
I39554
sg25
g26
((dp2901
I00
I39554
stp2902
Rp2903
sg30
I1
sg31
F39554.5
sbs(g9
Vcontains(tea)
p2904
tp2905
g0
(g19
g2
Ntp2906
Rp2907
(dp2908
g23
F0.5
sg24
I62008
sg25
g26
((dp2909
I00
I62002
sI01
I6
stp2910
Rp2911
sg30
I2
sg31
F62009.0
sbs(g13
Vcontains(carreer)
p2912
tp2913
g0
(g19
g2
Ntp2914
Rp2915
(dp2916
g23
F0.5
sg24
I39554
sg25
g26
((dp2917
I00
I39554
stp2918
Rp2919
sg30
I1
sg31
F39554.5
sbs(g12
Vcontains(certif)
p2920
tp2921
g0
(g19
g2
Ntp2922
Rp2923
(dp2924
g23
F0.5
sg24
I13347
sg25
g26
((dp2925
I00
I13339
sI01
I8
stp2926
Rp2927
sg30
I2
sg31
F13348.0
sbs(g8
Vcontains(tea)
p2928
tp2929
g0
(g19
g2
Ntp2930
Rp2931
(dp2932
g23
F0.5
sg24
I29752
sg25
g26
((dp2933
I00
I29749
sI01
I3
stp2934
Rp2935
sg30
I2
sg31
F29753.0
sbs(g8
Vcontains(hike)
p2936
tp2937
g0
(g19
g2
Ntp2938
Rp2939
(dp2940
g23
F0.5
sg24
I29752
sg25
g26
((dp2941
I00
I29727
sI01
I25
stp2942
Rp2943
sg30
I2
sg31
F29753.0
sbs(g8
Vcontains(gym)
p2944
tp2945
g0
(g19
g2
Ntp2946
Rp2947
(dp2948
g23
F0.5
sg24
I29752
sg25
g26
((dp2949
I00
I29750
sI01
I2
stp2950
Rp2951
sg30
I2
sg31
F29753.0
sbs(g13
Vcontains(monetari)
p2952
tp2953
g0
(g19
g2
Ntp2954
Rp2955
(dp2956
g23
F0.5
sg24
I39554
sg25
g26
((dp2957
I00
I39554
stp2958
Rp2959
sg30
I2
sg31
F39555.0
sbs(g14
Vcontains(confid)
p2960
tp2961
g0
(g19
g2
Ntp2962
Rp2963
(dp2964
g23
F0.5
sg24
I11590
sg25
g26
((dp2965
I00
I11585
sI01
I5
stp2966
Rp2967
sg30
I2
sg31
F11591.0
sbs(g13
Vcontains(benefit)
p2968
tp2969
g0
(g19
g2
Ntp2970
Rp2971
(dp2972
g23
F0.5
sg24
I39554
sg25
g26
((dp2973
I00
I39554
stp2974
Rp2975
sg30
I2
sg31
F39555.0
sbs(g11
Vcontains(cultur)
p2976
tp2977
g0
(g19
g2
Ntp2978
Rp2979
(dp2980
g23
F0.5
sg24
I4099
sg25
g26
((dp2981
I00
I4043
sI01
I56
stp2982
Rp2983
sg30
I2
sg31
F4100.0
sbs(g9
Vcontains(gain)
p2984
tp2985
g0
(g19
g2
Ntp2986
Rp2987
(dp2988
g23
F0.5
sg24
I62008
sg25
g26
((dp2989
I00
I61776
sI01
I232
stp2990
Rp2991
sg30
I2
sg31
F62009.0
sbs(g10
Vcontains(commun)
p2992
tp2993
g0
(g19
g2
Ntp2994
Rp2995
(dp2996
g23
F0.5
sg24
I9294
sg25
g26
((dp2997
I00
I9276
sI01
I18
stp2998
Rp2999
sg30
I2
sg31
F9295.0
sbs(g11
Vcontains(strive)
p3000
tp3001
g0
(g19
g2
Ntp3002
Rp3003
(dp3004
g23
F0.5
sg24
I4099
sg25
g26
((dp3005
I00
I4098
sI01
I1
stp3006
Rp3007
sg30
I2
sg31
F4100.0
sbs(g12
Vcontains(peer)
p3008
tp3009
g0
(g19
g2
Ntp3010
Rp3011
(dp3012
g23
F0.5
sg24
I13347
sg25
g26
((dp3013
I00
I13333
sI01
I14
stp3014
Rp3015
sg30
I2
sg31
F13348.0
sbs(g8
Vcontains(pay)
p3016
tp3017
g0
(g19
g2
Ntp3018
Rp3019
(dp3020
g23
F0.5
sg24
I29752
sg25
g26
((dp3021
I00
I29652
sI01
I100
stp3022
Rp3023
sg30
I2
sg31
F29753.0
sbs(g13
Vcontains(stress)
p3024
tp3025
g0
(g19
g2
Ntp3026
Rp3027
(dp3028
g23
F0.5
sg24
I39554
sg25
g26
((dp3029
I00
I39420
sI01
I134
stp3030
Rp3031
sg30
I2
sg31
F39555.0
sbs(g14
Vcontains(gener)
p3032
tp3033
g0
(g19
g2
Ntp3034
Rp3035
(dp3036
g23
F0.5
sg24
I11590
sg25
g26
((dp3037
I00
I10986
sI01
I604
stp3038
Rp3039
sg30
I2
sg31
F11591.0
sbs(g9
Vcontains(compens)
p3040
tp3041
g0
(g19
g2
Ntp3042
Rp3043
(dp3044
g23
F0.5
sg24
I62008
sg25
g26
((dp3045
I00
I61894
sI01
I114
stp3046
Rp3047
sg30
I2
sg31
F62009.0
sbs(g11
Vcontains(experi)
p3048
tp3049
g0
(g19
g2
Ntp3050
Rp3051
(dp3052
g23
F0.5
sg24
I4099
sg25
g26
((dp3053
I00
I4050
sI01
I49
stp3054
Rp3055
sg30
I2
sg31
F4100.0
sbs(g10
Vcontains(rais)
p3056
tp3057
g0
(g19
g2
Ntp3058
Rp3059
(dp3060
g23
F0.5
sg24
I9294
sg25
g26
((dp3061
I00
I8990
sI01
I304
stp3062
Rp3063
sg30
I2
sg31
F9295.0
sbs(g11
Vcontains(pay)
p3064
tp3065
g0
(g19
g2
Ntp3066
Rp3067
(dp3068
g23
F0.5
sg24
I4099
sg25
g26
((dp3069
I00
I4086
sI01
I13
stp3070
Rp3071
sg30
I2
sg31
F4100.0
sbs(g13
Vcontains(meal)
p3072
tp3073
g0
(g19
g2
Ntp3074
Rp3075
(dp3076
g23
F0.5
sg24
I39554
sg25
g26
((dp3077
I00
I39554
stp3078
Rp3079
sg30
I2
sg31
F39555.0
sbs(g13
Vcontains(collegu)
p3080
tp3081
g0
(g19
g2
Ntp3082
Rp3083
(dp3084
g23
F0.5
sg24
I39554
sg25
g26
((dp3085
I00
I39554
stp3086
Rp3087
sg30
I1
sg31
F39554.5
sbs(g14
Vcontains(manag)
p3088
tp3089
g0
(g19
g2
Ntp3090
Rp3091
(dp3092
g23
F0.5
sg24
I11590
sg25
g26
((dp3093
I00
I10861
sI01
I729
stp3094
Rp3095
sg30
I2
sg31
F11591.0
sbs(g14
Vcontains(opportun)
p3096
tp3097
g0
(g19
g2
Ntp3098
Rp3099
(dp3100
g23
F0.5
sg24
I11590
sg25
g26
((dp3101
I00
I11384
sI01
I206
stp3102
Rp3103
sg30
I2
sg31
F11591.0
sbs(g11
Vcontains(stabil)
p3104
tp3105
g0
(g19
g2
Ntp3106
Rp3107
(dp3108
g23
F0.5
sg24
I4099
sg25
g26
((dp3109
I00
I4099
stp3110
Rp3111
sg30
I2
sg31
F4100.0
sbs(g10
Vcontains(growth)
p3112
tp3113
g0
(g19
g2
Ntp3114
Rp3115
(dp3116
g23
F0.5
sg24
I9294
sg25
g26
((dp3117
I00
I9240
sI01
I54
stp3118
Rp3119
sg30
I2
sg31
F9295.0
sbs(g11
Vcontains(flexibl)
p3120
tp3121
g0
(g19
g2
Ntp3122
Rp3123
(dp3124
g23
F0.5
sg24
I4099
sg25
g26
((dp3125
I00
I4077
sI01
I22
stp3126
Rp3127
sg30
I2
sg31
F4100.0
sbs(g8
Vcontains(transport)
p3128
tp3129
g0
(g19
g2
Ntp3130
Rp3131
(dp3132
g23
F0.5
sg24
I29752
sg25
g26
((dp3133
I00
I29743
sI01
I9
stp3134
Rp3135
sg30
I2
sg31
F29753.0
sbs(g10
Vcontains(experi)
p3136
tp3137
g0
(g19
g2
Ntp3138
Rp3139
(dp3140
g23
F0.5
sg24
I9294
sg25
g26
((dp3141
I00
I9165
sI01
I129
stp3142
Rp3143
sg30
I2
sg31
F9295.0
sbs(g10
Vcontains(compet)
p3144
tp3145
g0
(g19
g2
Ntp3146
Rp3147
(dp3148
g23
F0.5
sg24
I9294
sg25
g26
((dp3149
I00
I9289
sI01
I5
stp3150
Rp3151
sg30
I2
sg31
F9295.0
sbs(g11
Vcontains(staff)
p3152
tp3153
g0
(g19
g2
Ntp3154
Rp3155
(dp3156
g23
F0.5
sg24
I4099
sg25
g26
((dp3157
I00
I4068
sI01
I31
stp3158
Rp3159
sg30
I2
sg31
F4100.0
sbs(g12
Vcontains(train)
p3160
tp3161
g0
(g19
g2
Ntp3162
Rp3163
(dp3164
g23
F0.5
sg24
I13347
sg25
g26
((dp3165
I00
I13221
sI01
I126
stp3166
Rp3167
sg30
I2
sg31
F13348.0
sbs(g8
Vcontains(enterpris)
p3168
tp3169
g0
(g19
g2
Ntp3170
Rp3171
(dp3172
g23
F0.5
sg24
I29752
sg25
g26
((dp3173
I00
I29742
sI01
I10
stp3174
Rp3175
sg30
I2
sg31
F29753.0
sbs(g10
Vcontains(strive)
p3176
tp3177
g0
(g19
g2
Ntp3178
Rp3179
(dp3180
g23
F0.5
sg24
I9294
sg25
g26
((dp3181
I00
I9293
sI01
I1
stp3182
Rp3183
sg30
I2
sg31
F9295.0
sbs(g11
Vcontains(enterpris)
p3184
tp3185
g0
(g19
g2
Ntp3186
Rp3187
(dp3188
g23
F0.5
sg24
I4099
sg25
g26
((dp3189
I00
I3998
sI01
I101
stp3190
Rp3191
sg30
I2
sg31
F4100.0
sbs(g9
Vcontains(flexibl)
p3192
tp3193
g0
(g19
g2
Ntp3194
Rp3195
(dp3196
g23
F0.5
sg24
I62008
sg25
g26
((dp3197
I00
I61448
sI01
I560
stp3198
Rp3199
sg30
I2
sg31
F62009.0
sbs(g14
Vcontains(infrastructur)
p3200
tp3201
g0
(g19
g2
Ntp3202
Rp3203
(dp3204
g23
F0.5
sg24
I11590
sg25
g26
((dp3205
I00
I11580
sI01
I10
stp3206
Rp3207
sg30
I2
sg31
F11591.0
sbs(g8
Vcontains(manger)
p3208
tp3209
g0
(g19
g2
Ntp3210
Rp3211
(dp3212
g23
F0.5
sg24
I29752
sg25
g26
((dp3213
I00
I29744
sI01
I8
stp3214
Rp3215
sg30
I2
sg31
F29753.0
sbs(g12
Vcontains(teammat)
p3216
tp3217
g0
(g19
g2
Ntp3218
Rp3219
(dp3220
g23
F0.5
sg24
I13347
sg25
g26
((dp3221
I00
I13344
sI01
I3
stp3222
Rp3223
sg30
I2
sg31
F13348.0
sbs(g11
Vcontains(compet)
p3224
tp3225
g0
(g19
g2
Ntp3226
Rp3227
(dp3228
g23
F0.5
sg24
I4099
sg25
g26
((dp3229
I00
I4098
sI01
I1
stp3230
Rp3231
sg30
I2
sg31
F4100.0
sbs(g11
Vcontains(grow)
p3232
tp3233
g0
(g19
g2
Ntp3234
Rp3235
(dp3236
g23
F0.5
sg24
I4099
sg25
g26
((dp3237
I00
I4088
sI01
I11
stp3238
Rp3239
sg30
I2
sg31
F4100.0
sbs(g9
Vcontains(carreer)
p3240
tp3241
g0
(g19
g2
Ntp3242
Rp3243
(dp3244
g23
F0.5
sg24
I62008
sg25
g26
((dp3245
I00
I62008
stp3246
Rp3247
sg30
I1
sg31
F62008.5
sbs(g9
Vcontains(opportun)
p3248
tp3249
g0
(g19
g2
Ntp3250
Rp3251
(dp3252
g23
F0.5
sg24
I62008
sg25
g26
((dp3253
I00
I61138
sI01
I870
stp3254
Rp3255
sg30
I2
sg31
F62009.0
sbs(g13
Vcontains(seek)
p3256
tp3257
g0
(g19
g2
Ntp3258
Rp3259
(dp3260
g23
F0.5
sg24
I39554
sg25
g26
((dp3261
I00
I39554
stp3262
Rp3263
sg30
I2
sg31
F39555.0
sbs(g9
Vcontains(leadership)
p3264
tp3265
g0
(g19
g2
Ntp3266
Rp3267
(dp3268
g23
F0.5
sg24
I62008
sg25
g26
((dp3269
I00
I61253
sI01
I755
stp3270
Rp3271
sg30
I2
sg31
F62009.0
sbs(g10
Vcontains(collegu)
p3272
tp3273
g0
(g19
g2
Ntp3274
Rp3275
(dp3276
g23
F0.5
sg24
I9294
sg25
g26
((dp3277
I00
I9294
stp3278
Rp3279
sg30
I1
sg31
F9294.5
sbs(g13
Vcontains(talent)
p3280
tp3281
g0
(g19
g2
Ntp3282
Rp3283
(dp3284
g23
F0.5
sg24
I39554
sg25
g26
((dp3285
I00
I39554
stp3286
Rp3287
sg30
I2
sg31
F39555.0
sbs(g8
Vcontains(friendli)
p3288
tp3289
g0
(g19
g2
Ntp3290
Rp3291
(dp3292
g23
F0.5
sg24
I29752
sg25
g26
((dp3293
I00
I29563
sI01
I189
stp3294
Rp3295
sg30
I2
sg31
F29753.0
sbs(g13
Vcontains(scope)
p3296
tp3297
g0
(g19
g2
Ntp3298
Rp3299
(dp3300
g23
F0.5
sg24
I39554
sg25
g26
((dp3301
I00
I39554
stp3302
Rp3303
sg30
I2
sg31
F39555.0
sbs(g14
Vcontains(execut)
p3304
tp3305
g0
(g19
g2
Ntp3306
Rp3307
(dp3308
g23
F0.5
sg24
I11590
sg25
g26
((dp3309
I00
I11563
sI01
I27
stp3310
Rp3311
sg30
I2
sg31
F11591.0
sbs(g14
Vcontains(lead)
p3312
tp3313
g0
(g19
g2
Ntp3314
Rp3315
(dp3316
g23
F0.5
sg24
I11590
sg25
g26
((dp3317
I00
I11529
sI01
I61
stp3318
Rp3319
sg30
I2
sg31
F11591.0
sbs(g14
Vcontains(job/work)
p3320
tp3321
g0
(g19
g2
Ntp3322
Rp3323
(dp3324
g23
F0.5
sg24
I11590
sg25
g26
((dp3325
I00
I11590
stp3326
Rp3327
sg30
I1
sg31
F11590.5
sbs(g11
Vcontains(overtim)
p3328
tp3329
g0
(g19
g2
Ntp3330
Rp3331
(dp3332
g23
F0.5
sg24
I4099
sg25
g26
((dp3333
I00
I4097
sI01
I2
stp3334
Rp3335
sg30
I2
sg31
F4100.0
sbs(g10
Vcontains(cab)
p3336
tp3337
g0
(g19
g2
Ntp3338
Rp3339
(dp3340
g23
F0.5
sg24
I9294
sg25
g26
((dp3341
I00
I9286
sI01
I8
stp3342
Rp3343
sg30
I2
sg31
F9295.0
sbs(g12
Vcontains(campu)
p3344
tp3345
g0
(g19
g2
Ntp3346
Rp3347
(dp3348
g23
F0.5
sg24
I13347
sg25
g26
((dp3349
I00
I13345
sI01
I2
stp3350
Rp3351
sg30
I2
sg31
F13348.0
sbs(g11
Vcontains(abil)
p3352
tp3353
g0
(g19
g2
Ntp3354
Rp3355
(dp3356
g23
F0.5
sg24
I4099
sg25
g26
((dp3357
I00
I4085
sI01
I14
stp3358
Rp3359
sg30
I2
sg31
F4100.0
sbs(g12
Vcontains(gym)
p3360
tp3361
g0
(g19
g2
Ntp3362
Rp3363
(dp3364
g23
F0.5
sg24
I13347
sg25
g26
((dp3365
I00
I13344
sI01
I3
stp3366
Rp3367
sg30
I2
sg31
F13348.0
sbs(g14
Vcontains(staff)
p3368
tp3369
g0
(g19
g2
Ntp3370
Rp3371
(dp3372
g23
F0.5
sg24
I11590
sg25
g26
((dp3373
I00
I11544
sI01
I46
stp3374
Rp3375
sg30
I2
sg31
F11591.0
sbs(g12
Vcontains(competit)
p3376
tp3377
g0
(g19
g2
Ntp3378
Rp3379
(dp3380
g23
F0.5
sg24
I13347
sg25
g26
((dp3381
I00
I13327
sI01
I20
stp3382
Rp3383
sg30
I2
sg31
F13348.0
sbs(g8
Vcontains(educ)
p3384
tp3385
g0
(g19
g2
Ntp3386
Rp3387
(dp3388
g23
F0.5
sg24
I29752
sg25
g26
((dp3389
I00
I29503
sI01
I249
stp3390
Rp3391
sg30
I2
sg31
F29753.0
sbs(g9
Vcontains(drink)
p3392
tp3393
g0
(g19
g2
Ntp3394
Rp3395
(dp3396
g23
F0.5
sg24
I62008
sg25
g26
((dp3397
I00
I61995
sI01
I13
stp3398
Rp3399
sg30
I2
sg31
F62009.0
sbs(g10
Vcontains(packag)
p3400
tp3401
g0
(g19
g2
Ntp3402
Rp3403
(dp3404
g23
F0.5
sg24
I9294
sg25
g26
((dp3405
I00
I8940
sI01
I354
stp3406
Rp3407
sg30
I2
sg31
F9295.0
sbs(g9
Vcontains(competit)
p3408
tp3409
g0
(g19
g2
Ntp3410
Rp3411
(dp3412
g23
F0.5
sg24
I62008
sg25
g26
((dp3413
I00
I61921
sI01
I87
stp3414
Rp3415
sg30
I2
sg31
F62009.0
sbs(g10
Vcontains(fresher)
p3416
tp3417
g0
(g19
g2
Ntp3418
Rp3419
(dp3420
g23
F0.5
sg24
I9294
sg25
g26
((dp3421
I00
I9278
sI01
I16
stp3422
Rp3423
sg30
I2
sg31
F9295.0
sbs(g8
Vcontains(infrastructur)
p3424
tp3425
g0
(g19
g2
Ntp3426
Rp3427
(dp3428
g23
F0.5
sg24
I29752
sg25
g26
((dp3429
I00
I29722
sI01
I30
stp3430
Rp3431
sg30
I2
sg31
F29753.0
sbs(g12
Vcontains(monetari)
p3432
tp3433
g0
(g19
g2
Ntp3434
Rp3435
(dp3436
g23
F0.5
sg24
I13347
sg25
g26
((dp3437
I00
I13345
sI01
I2
stp3438
Rp3439
sg30
I2
sg31
F13348.0
sbs(g13
Vcontains(overtim)
p3440
tp3441
g0
(g19
g2
Ntp3442
Rp3443
(dp3444
g23
F0.5
sg24
I39554
sg25
g26
((dp3445
I00
I39554
stp3446
Rp3447
sg30
I2
sg31
F39555.0
sbs(g9
Vcontains(recogn)
p3448
tp3449
g0
(g19
g2
Ntp3450
Rp3451
(dp3452
g23
F0.5
sg24
I62008
sg25
g26
((dp3453
I00
I61803
sI01
I205
stp3454
Rp3455
sg30
I2
sg31
F62009.0
sbs(g13
Vcontains(enjoy)
p3456
tp3457
g0
(g19
g2
Ntp3458
Rp3459
(dp3460
g23
F0.5
sg24
I39554
sg25
g26
((dp3461
I00
I36869
sI01
I2685
stp3462
Rp3463
sg30
I2
sg31
F39555.0
sbs(g12
Vcontains(enjoy)
p3464
tp3465
g0
(g19
g2
Ntp3466
Rp3467
(dp3468
g23
F0.5
sg24
I13347
sg25
g26
((dp3469
I00
I12790
sI01
I557
stp3470
Rp3471
sg30
I2
sg31
F13348.0
sbs(g11
Vcontains(remuner)
p3472
tp3473
g0
(g19
g2
Ntp3474
Rp3475
(dp3476
g23
F0.5
sg24
I4099
sg25
g26
((dp3477
I00
I4099
stp3478
Rp3479
sg30
I2
sg31
F4100.0
sbs(g8
Vcontains(ethic)
p3480
tp3481
g0
(g19
g2
Ntp3482
Rp3483
(dp3484
g23
F0.5
sg24
I29752
sg25
g26
((dp3485
I00
I29721
sI01
I31
stp3486
Rp3487
sg30
I2
sg31
F29753.0
sbs(g12
Vcontains(progress)
p3488
tp3489
g0
(g19
g2
Ntp3490
Rp3491
(dp3492
g23
F0.5
sg24
I13347
sg25
g26
((dp3493
I00
I13326
sI01
I21
stp3494
Rp3495
sg30
I2
sg31
F13348.0
sbs(g14
Vcontains(transport)
p3496
tp3497
g0
(g19
g2
Ntp3498
Rp3499
(dp3500
g23
F0.5
sg24
I11590
sg25
g26
((dp3501
I00
I11584
sI01
I6
stp3502
Rp3503
sg30
I2
sg31
F11591.0
sbs(g11
Vcontains(time)
p3504
tp3505
g0
(g19
g2
Ntp3506
Rp3507
(dp3508
g23
F0.5
sg24
I4099
sg25
g26
((dp3509
I00
I3946
sI01
I153
stp3510
Rp3511
sg30
I2
sg31
F4100.0
sbs(g8
Vcontains(hard-work)
p3512
tp3513
g0
(g19
g2
Ntp3514
Rp3515
(dp3516
g23
F0.5
sg24
I29752
sg25
g26
((dp3517
I00
I29752
stp3518
Rp3519
sg30
I1
sg31
F29752.5
sbs(g9
Vcontains(food)
p3520
tp3521
g0
(g19
g2
Ntp3522
Rp3523
(dp3524
g23
F0.5
sg24
I62008
sg25
g26
((dp3525
I00
I61936
sI01
I72
stp3526
Rp3527
sg30
I2
sg31
F62009.0
sbs(g14
Vcontains(strive)
p3528
tp3529
g0
(g19
g2
Ntp3530
Rp3531
(dp3532
g23
F0.5
sg24
I11590
sg25
g26
((dp3533
I00
I11456
sI01
I134
stp3534
Rp3535
sg30
I2
sg31
F11591.0
sbs(g14
Vcontains(skill)
p3536
tp3537
g0
(g19
g2
Ntp3538
Rp3539
(dp3540
g23
F0.5
sg24
I11590
sg25
g26
((dp3541
I00
I11446
sI01
I144
stp3542
Rp3543
sg30
I2
sg31
F11591.0
sbs(g14
Vcontains(tea)
p3544
tp3545
g0
(g19
g2
Ntp3546
Rp3547
(dp3548
g23
F0.5
sg24
I11590
sg25
g26
((dp3549
I00
I11588
sI01
I2
stp3550
Rp3551
sg30
I2
sg31
F11591.0
sbs(g11
Vcontains(stronger)
p3552
tp3553
g0
(g19
g2
Ntp3554
Rp3555
(dp3556
g23
F0.5
sg24
I4099
sg25
g26
((dp3557
I00
I4099
stp3558
Rp3559
sg30
I2
sg31
F4100.0
sbs(g9
Vcontains(pay)
p3560
tp3561
g0
(g19
g2
Ntp3562
Rp3563
(dp3564
g23
F0.5
sg24
I62008
sg25
g26
((dp3565
I00
I61651
sI01
I357
stp3566
Rp3567
sg30
I2
sg31
F62009.0
sbs(g11
Vcontains(promot)
p3568
tp3569
g0
(g19
g2
Ntp3570
Rp3571
(dp3572
g23
F0.5
sg24
I4099
sg25
g26
((dp3573
I00
I4083
sI01
I16
stp3574
Rp3575
sg30
I2
sg31
F4100.0
sbs(g8
Vcontains(experi)
p3576
tp3577
g0
(g19
g2
Ntp3578
Rp3579
(dp3580
g23
F0.5
sg24
I29752
sg25
g26
((dp3581
I00
I28525
sI01
I1227
stp3582
Rp3583
sg30
I2
sg31
F29753.0
sbs(g9
Vcontains(organis)
p3584
tp3585
g0
(g19
g2
Ntp3586
Rp3587
(dp3588
g23
F0.5
sg24
I62008
sg25
g26
((dp3589
I00
I62008
stp3590
Rp3591
sg30
I1
sg31
F62008.5
sbs(g12
Vcontains(cafeteria)
p3592
tp3593
g0
(g19
g2
Ntp3594
Rp3595
(dp3596
g23
F0.5
sg24
I13347
sg25
g26
((dp3597
I00
I13346
sI01
I1
stp3598
Rp3599
sg30
I2
sg31
F13348.0
sbs(g11
Vcontains(amen)
p3600
tp3601
g0
(g19
g2
Ntp3602
Rp3603
(dp3604
g23
F0.5
sg24
I4099
sg25
g26
((dp3605
I00
I4088
sI01
I11
stp3606
Rp3607
sg30
I2
sg31
F4100.0
sbs(g12
Vcontains(talent)
p3608
tp3609
g0
(g19
g2
Ntp3610
Rp3611
(dp3612
g23
F0.5
sg24
I13347
sg25
g26
((dp3613
I00
I13338
sI01
I9
stp3614
Rp3615
sg30
I2
sg31
F13348.0
sbs(g13
Vcontains(canteen)
p3616
tp3617
g0
(g19
g2
Ntp3618
Rp3619
(dp3620
g23
F0.5
sg24
I39554
sg25
g26
((dp3621
I00
I39554
stp3622
Rp3623
sg30
I2
sg31
F39555.0
sbs(g8
Vcontains(stronger)
p3624
tp3625
g0
(g19
g2
Ntp3626
Rp3627
(dp3628
g23
F0.5
sg24
I29752
sg25
g26
((dp3629
I00
I29748
sI01
I4
stp3630
Rp3631
sg30
I2
sg31
F29753.0
sbs(g12
Vcontains(pay)
p3632
tp3633
g0
(g19
g2
Ntp3634
Rp3635
(dp3636
g23
F0.5
sg24
I13347
sg25
g26
((dp3637
I00
I13239
sI01
I108
stp3638
Rp3639
sg30
I2
sg31
F13348.0
sbs(g12
Vcontains(learn)
p3640
tp3641
g0
(g19
g2
Ntp3642
Rp3643
(dp3644
g23
F0.5
sg24
I13347
sg25
g26
((dp3645
I00
I12700
sI01
I647
stp3646
Rp3647
sg30
I2
sg31
F13348.0
sbs(g9
Vcontains(bonu)
p3648
tp3649
g0
(g19
g2
Ntp3650
Rp3651
(dp3652
g23
F0.5
sg24
I62008
sg25
g26
((dp3653
I00
I61996
sI01
I12
stp3654
Rp3655
sg30
I2
sg31
F62009.0
sbs(g11
Vcontains(hike)
p3656
tp3657
g0
(g19
g2
Ntp3658
Rp3659
(dp3660
g23
F0.5
sg24
I4099
sg25
g26
((dp3661
I00
I4088
sI01
I11
stp3662
Rp3663
sg30
I2
sg31
F4100.0
sbs(g10
Vcontains(option)
p3664
tp3665
g0
(g19
g2
Ntp3666
Rp3667
(dp3668
g23
F0.5
sg24
I9294
sg25
g26
((dp3669
I00
I9280
sI01
I14
stp3670
Rp3671
sg30
I2
sg31
F9295.0
sbs(g13
Vcontains(shift)
p3672
tp3673
g0
(g19
g2
Ntp3674
Rp3675
(dp3676
g23
F0.5
sg24
I39554
sg25
g26
((dp3677
I00
I39554
stp3678
Rp3679
sg30
I2
sg31
F39555.0
sbs(g9
Vcontains(challeng)
p3680
tp3681
g0
(g19
g2
Ntp3682
Rp3683
(dp3684
g23
F0.5
sg24
I62008
sg25
g26
((dp3685
I00
I61466
sI01
I542
stp3686
Rp3687
sg30
I2
sg31
F62009.0
sbs(g11
Vcontains(innov)
p3688
tp3689
g0
(g19
g2
Ntp3690
Rp3691
(dp3692
g23
F0.5
sg24
I4099
sg25
g26
((dp3693
I00
I4098
sI01
I1
stp3694
Rp3695
sg30
I2
sg31
F4100.0
sbs(g10
Vcontains(stress)
p3696
tp3697
g0
(g19
g2
Ntp3698
Rp3699
(dp3700
g23
F0.5
sg24
I9294
sg25
g26
((dp3701
I00
I9268
sI01
I26
stp3702
Rp3703
sg30
I2
sg31
F9295.0
sbs(g10
Vcontains(leadership)
p3704
tp3705
g0
(g19
g2
Ntp3706
Rp3707
(dp3708
g23
F0.5
sg24
I9294
sg25
g26
((dp3709
I00
I9278
sI01
I16
stp3710
Rp3711
sg30
I2
sg31
F9295.0
sbs(g9
Vcontains(stabil)
p3712
tp3713
g0
(g19
g2
Ntp3714
Rp3715
(dp3716
g23
F0.5
sg24
I62008
sg25
g26
((dp3717
I00
I61991
sI01
I17
stp3718
Rp3719
sg30
I2
sg31
F62009.0
sbs(g12
Vcontains(work/lif)
p3720
tp3721
g0
(g19
g2
Ntp3722
Rp3723
(dp3724
g23
F0.5
sg24
I13347
sg25
g26
((dp3725
I00
I13347
stp3726
Rp3727
sg30
I1
sg31
F13347.5
sbs(g8
Vcontains(worklif)
p3728
tp3729
g0
(g19
g2
Ntp3730
Rp3731
(dp3732
g23
F0.5
sg24
I29752
sg25
g26
((dp3733
I00
I29752
stp3734
Rp3735
sg30
I1
sg31
F29752.5
sbs(g14
Vcontains(certif)
p3736
tp3737
g0
(g19
g2
Ntp3738
Rp3739
(dp3740
g23
F0.5
sg24
I11590
sg25
g26
((dp3741
I00
I11585
sI01
I5
stp3742
Rp3743
sg30
I2
sg31
F11591.0
sbs(g13
Vcontains(encourag)
p3744
tp3745
g0
(g19
g2
Ntp3746
Rp3747
(dp3748
g23
F0.5
sg24
I39554
sg25
g26
((dp3749
I00
I39554
stp3750
Rp3751
sg30
I2
sg31
F39555.0
sbs(g9
Vcontains(work-from-hom)
p3752
tp3753
g0
(g19
g2
Ntp3754
Rp3755
(dp3756
g23
F0.5
sg24
I62008
sg25
g26
((dp3757
I00
I62008
stp3758
Rp3759
sg30
I1
sg31
F62008.5
sbs(g12
Vcontains(explor)
p3760
tp3761
g0
(g19
g2
Ntp3762
Rp3763
(dp3764
g23
F0.5
sg24
I13347
sg25
g26
((dp3765
I00
I13331
sI01
I16
stp3766
Rp3767
sg30
I2
sg31
F13348.0
sbs(g13
Vcontains(growth)
p3768
tp3769
g0
(g19
g2
Ntp3770
Rp3771
(dp3772
g23
F0.5
sg24
I39554
sg25
g26
((dp3773
I00
I39554
stp3774
Rp3775
sg30
I2
sg31
F39555.0
sbs(g9
Vcontains(lead)
p3776
tp3777
g0
(g19
g2
Ntp3778
Rp3779
(dp3780
g23
F0.5
sg24
I62008
sg25
g26
((dp3781
I00
I60745
sI01
I1263
stp3782
Rp3783
sg30
I2
sg31
F62009.0
sbs(g10
Vcontains(increment)
p3784
tp3785
g0
(g19
g2
Ntp3786
Rp3787
(dp3788
g23
F0.5
sg24
I9294
sg25
g26
((dp3789
I00
I9230
sI01
I64
stp3790
Rp3791
sg30
I2
sg31
F9295.0
sbs(g9
Vcontains(strive)
p3792
tp3793
g0
(g19
g2
Ntp3794
Rp3795
(dp3796
g23
F0.5
sg24
I62008
sg25
g26
((dp3797
I00
I61973
sI01
I35
stp3798
Rp3799
sg30
I2
sg31
F62009.0
sbs(g8
Vcontains(job/lif)
p3800
tp3801
g0
(g19
g2
Ntp3802
Rp3803
(dp3804
g23
F0.5
sg24
I29752
sg25
g26
((dp3805
I00
I29752
stp3806
Rp3807
sg30
I1
sg31
F29752.5
sbs(g12
Vcontains(abil)
p3808
tp3809
g0
(g19
g2
Ntp3810
Rp3811
(dp3812
g23
F0.5
sg24
I13347
sg25
g26
((dp3813
I00
I13310
sI01
I37
stp3814
Rp3815
sg30
I2
sg31
F13348.0
sbs(g14
Vcontains(fresher)
p3816
tp3817
g0
(g19
g2
Ntp3818
Rp3819
(dp3820
g23
F0.5
sg24
I11590
sg25
g26
((dp3821
I00
I11546
sI01
I44
stp3822
Rp3823
sg30
I2
sg31
F11591.0
sbs(g9
Vcontains(learn)
p3824
tp3825
g0
(g19
g2
Ntp3826
Rp3827
(dp3828
g23
F0.5
sg24
I62008
sg25
g26
((dp3829
I00
I59012
sI01
I2996
stp3830
Rp3831
sg30
I2
sg31
F62009.0
sbs(g12
Vcontains(encourag)
p3832
tp3833
g0
(g19
g2
Ntp3834
Rp3835
(dp3836
g23
F0.5
sg24
I13347
sg25
g26
((dp3837
I00
I13320
sI01
I27
stp3838
Rp3839
sg30
I2
sg31
F13348.0
sbs(g9
Vcontains(staff)
p3840
tp3841
g0
(g19
g2
Ntp3842
Rp3843
(dp3844
g23
F0.5
sg24
I62008
sg25
g26
((dp3845
I00
I61014
sI01
I994
stp3846
Rp3847
sg30
I2
sg31
F62009.0
sbs(g10
Vcontains(creativ)
p3848
tp3849
g0
(g19
g2
Ntp3850
Rp3851
(dp3852
g23
F0.5
sg24
I9294
sg25
g26
((dp3853
I00
I9289
sI01
I5
stp3854
Rp3855
sg30
I2
sg31
F9295.0
sbs(g11
Vcontains(exposur)
p3856
tp3857
g0
(g19
g2
Ntp3858
Rp3859
(dp3860
g23
F0.5
sg24
I4099
sg25
g26
((dp3861
I00
I4090
sI01
I9
stp3862
Rp3863
sg30
I2
sg31
F4100.0
sbs(g11
Vcontains(fresher)
p3864
tp3865
g0
(g19
g2
Ntp3866
Rp3867
(dp3868
g23
F0.5
sg24
I4099
sg25
g26
((dp3869
I00
I4094
sI01
I5
stp3870
Rp3871
sg30
I2
sg31
F4100.0
sbs(g14
Vcontains(ethic)
p3872
tp3873
g0
(g19
g2
Ntp3874
Rp3875
(dp3876
g23
F0.5
sg24
I11590
sg25
g26
((dp3877
I00
I11313
sI01
I277
stp3878
Rp3879
sg30
I2
sg31
F11591.0
sbs(g13
Vcontains(cab)
p3880
tp3881
g0
(g19
g2
Ntp3882
Rp3883
(dp3884
g23
F0.5
sg24
I39554
sg25
g26
((dp3885
I00
I39554
stp3886
Rp3887
sg30
I2
sg31
F39555.0
sbs(g9
Vcontains(motiv)
p3888
tp3889
g0
(g19
g2
Ntp3890
Rp3891
(dp3892
g23
F0.5
sg24
I62008
sg25
g26
((dp3893
I00
I61856
sI01
I152
stp3894
Rp3895
sg30
I2
sg31
F62009.0
sbs(g10
Vcontains(employ)
p3896
tp3897
g0
(g19
g2
Ntp3898
Rp3899
(dp3900
g23
F0.5
sg24
I9294
sg25
g26
((dp3901
I00
I9250
sI01
I44
stp3902
Rp3903
sg30
I2
sg31
F9295.0
sbs(g9
Vcontains(peer)
p3904
tp3905
g0
(g19
g2
Ntp3906
Rp3907
(dp3908
g23
F0.5
sg24
I62008
sg25
g26
((dp3909
I00
I61726
sI01
I282
stp3910
Rp3911
sg30
I2
sg31
F62009.0
sbs(g12
Vcontains(tea)
p3912
tp3913
g0
(g19
g2
Ntp3914
Rp3915
(dp3916
g23
F0.5
sg24
I13347
sg25
g26
((dp3917
I00
I13346
sI01
I1
stp3918
Rp3919
sg30
I2
sg31
F13348.0
sbs(g14
Vcontains(oppurtun)
p3920
tp3921
g0
(g19
g2
Ntp3922
Rp3923
(dp3924
g23
F0.5
sg24
I11590
sg25
g26
((dp3925
I00
I11590
stp3926
Rp3927
sg30
I1
sg31
F11590.5
sbs(g10
Vcontains(confid)
p3928
tp3929
g0
(g19
g2
Ntp3930
Rp3931
(dp3932
g23
F0.5
sg24
I9294
sg25
g26
((dp3933
I00
I9291
sI01
I3
stp3934
Rp3935
sg30
I2
sg31
F9295.0
sbs(g13
Vcontains(coffe)
p3936
tp3937
g0
(g19
g2
Ntp3938
Rp3939
(dp3940
g23
F0.5
sg24
I39554
sg25
g26
((dp3941
I00
I39554
stp3942
Rp3943
sg30
I2
sg31
F39555.0
sbs(g13
Vcontains(commun)
p3944
tp3945
g0
(g19
g2
Ntp3946
Rp3947
(dp3948
g23
F0.5
sg24
I39554
sg25
g26
((dp3949
I00
I39554
stp3950
Rp3951
sg30
I2
sg31
F39555.0
sbs(g8
Vcontains(member)
p3952
tp3953
g0
(g19
g2
Ntp3954
Rp3955
(dp3956
g23
F0.5
sg24
I29752
sg25
g26
((dp3957
I00
I29547
sI01
I205
stp3958
Rp3959
sg30
I2
sg31
F29753.0
sbs(g9
Vcontains(secur)
p3960
tp3961
g0
(g19
g2
Ntp3962
Rp3963
(dp3964
g23
F0.5
sg24
I62008
sg25
g26
((dp3965
I00
I61784
sI01
I224
stp3966
Rp3967
sg30
I2
sg31
F62009.0
sbs(g12
Vcontains(carreer)
p3968
tp3969
g0
(g19
g2
Ntp3970
Rp3971
(dp3972
g23
F0.5
sg24
I13347
sg25
g26
((dp3973
I00
I13347
stp3974
Rp3975
sg30
I1
sg31
F13347.5
sbs(g9
Vcontains(commun)
p3976
tp3977
g0
(g19
g2
Ntp3978
Rp3979
(dp3980
g23
F0.5
sg24
I62008
sg25
g26
((dp3981
I00
I61644
sI01
I364
stp3982
Rp3983
sg30
I2
sg31
F62009.0
sbs(g12
Vcontains(rais)
p3984
tp3985
g0
(g19
g2
Ntp3986
Rp3987
(dp3988
g23
F0.5
sg24
I13347
sg25
g26
((dp3989
I00
I13333
sI01
I14
stp3990
Rp3991
sg30
I2
sg31
F13348.0
sbs(g14
Vcontains(enviro)
p3992
tp3993
g0
(g19
g2
Ntp3994
Rp3995
(dp3996
g23
F0.5
sg24
I11590
sg25
g26
((dp3997
I00
I11590
stp3998
Rp3999
sg30
I1
sg31
F11590.5
sbs(g14
Vcontains(amen)
p4000
tp4001
g0
(g19
g2
Ntp4002
Rp4003
(dp4004
g23
F0.5
sg24
I11590
sg25
g26
((dp4005
I00
I11589
sI01
I1
stp4006
Rp4007
sg30
I2
sg31
F11591.0
sbs(g10
Vcontains(teammat)
p4008
tp4009
g0
(g19
g2
Ntp4010
Rp4011
(dp4012
g23
F0.5
sg24
I9294
sg25
g26
((dp4013
I00
I9292
sI01
I2
stp4014
Rp4015
sg30
I2
sg31
F9295.0
sbs(g10
Vcontains(career)
p4016
tp4017
g0
(g19
g2
Ntp4018
Rp4019
(dp4020
g23
F0.5
sg24
I9294
sg25
g26
((dp4021
I00
I9211
sI01
I83
stp4022
Rp4023
sg30
I2
sg31
F9295.0
sbs(g9
Vcontains(employ)
p4024
tp4025
g0
(g19
g2
Ntp4026
Rp4027
(dp4028
g23
F0.5
sg24
I62008
sg25
g26
((dp4029
I00
I61877
sI01
I131
stp4030
Rp4031
sg30
I2
sg31
F62009.0
sbs(g11
Vcontains(career)
p4032
tp4033
g0
(g19
g2
Ntp4034
Rp4035
(dp4036
g23
F0.5
sg24
I4099
sg25
g26
((dp4037
I00
I4079
sI01
I20
stp4038
Rp4039
sg30
I2
sg31
F4100.0
sbs(g13
Vcontains(reward)
p4040
tp4041
g0
(g19
g2
Ntp4042
Rp4043
(dp4044
g23
F0.5
sg24
I39554
sg25
g26
((dp4045
I00
I39554
stp4046
Rp4047
sg30
I2
sg31
F39555.0
sbs(g12
Vcontains(incent)
p4048
tp4049
g0
(g19
g2
Ntp4050
Rp4051
(dp4052
g23
F0.5
sg24
I13347
sg25
g26
((dp4053
I00
I13337
sI01
I10
stp4054
Rp4055
sg30
I2
sg31
F13348.0
sbs(g10
Vcontains(platform)
p4056
tp4057
g0
(g19
g2
Ntp4058
Rp4059
(dp4060
g23
F0.5
sg24
I9294
sg25
g26
((dp4061
I00
I9285
sI01
I9
stp4062
Rp4063
sg30
I2
sg31
F9295.0
sbs(g8
Vcontains(remuner)
p4064
tp4065
g0
(g19
g2
Ntp4066
Rp4067
(dp4068
g23
F0.5
sg24
I29752
sg25
g26
((dp4069
I00
I29752
stp4070
Rp4071
sg30
I2
sg31
F29753.0
sbs(g14
Vcontains(promot)
p4072
tp4073
g0
(g19
g2
Ntp4074
Rp4075
(dp4076
g23
F0.5
sg24
I11590
sg25
g26
((dp4077
I00
I11526
sI01
I64
stp4078
Rp4079
sg30
I2
sg31
F11591.0
sbs(g13
Vcontains(experi)
p4080
tp4081
g0
(g19
g2
Ntp4082
Rp4083
(dp4084
g23
F0.5
sg24
I39554
sg25
g26
((dp4085
I00
I39554
stp4086
Rp4087
sg30
I2
sg31
F39555.0
sbs(g11
Vcontains(teammat)
p4088
tp4089
g0
(g19
g2
Ntp4090
Rp4091
(dp4092
g23
F0.5
sg24
I4099
sg25
g26
((dp4093
I00
I4095
sI01
I4
stp4094
Rp4095
sg30
I2
sg31
F4100.0
sbs(g12
Vcontains(lovabl)
p4096
tp4097
g0
(g19
g2
Ntp4098
Rp4099
(dp4100
g23
F0.5
sg24
I13347
sg25
g26
((dp4101
I00
I13347
stp4102
Rp4103
sg30
I2
sg31
F13348.0
sbs(g14
Vcontains(experi)
p4104
tp4105
g0
(g19
g2
Ntp4106
Rp4107
(dp4108
g23
F0.5
sg24
I11590
sg25
g26
((dp4109
I00
I7383
sI01
I4207
stp4110
Rp4111
sg30
I2
sg31
F11591.0
sbs(g13
Vcontains(tea)
p4112
tp4113
g0
(g19
g2
Ntp4114
Rp4115
(dp4116
g23
F0.5
sg24
I39554
sg25
g26
((dp4117
I00
I39554
stp4118
Rp4119
sg30
I2
sg31
F39555.0
sbs(g14
Vcontains(flexibl)
p4120
tp4121
g0
(g19
g2
Ntp4122
Rp4123
(dp4124
g23
F0.5
sg24
I11590
sg25
g26
((dp4125
I00
I11524
sI01
I66
stp4126
Rp4127
sg30
I2
sg31
F11591.0
sbs(g9
Vcontains(member)
p4128
tp4129
g0
(g19
g2
Ntp4130
Rp4131
(dp4132
g23
F0.5
sg24
I62008
sg25
g26
((dp4133
I00
I60004
sI01
I2004
stp4134
Rp4135
sg30
I2
sg31
F62009.0
sbs(g13
Vcontains(strive)
p4136
tp4137
g0
(g19
g2
Ntp4138
Rp4139
(dp4140
g23
F0.5
sg24
I39554
sg25
g26
((dp4141
I00
I39554
stp4142
Rp4143
sg30
I2
sg31
F39555.0
sbs(g13
Vcontains(work/lif)
p4144
tp4145
g0
(g19
g2
Ntp4146
Rp4147
(dp4148
g23
F0.5
sg24
I39554
sg25
g26
((dp4149
I00
I39554
stp4150
Rp4151
sg30
I1
sg31
F39554.5
sbs(g13
Vcontains(opportun)
p4152
tp4153
g0
(g19
g2
Ntp4154
Rp4155
(dp4156
g23
F0.5
sg24
I39554
sg25
g26
((dp4157
I00
I39554
stp4158
Rp4159
sg30
I2
sg31
F39555.0
sbs(g11
Vcontains(mentor)
p4160
tp4161
g0
(g19
g2
Ntp4162
Rp4163
(dp4164
g23
F0.5
sg24
I4099
sg25
g26
((dp4165
I00
I4098
sI01
I1
stp4166
Rp4167
sg30
I2
sg31
F4100.0
sbs(g12
Vcontains(platform)
p4168
tp4169
g0
(g19
g2
Ntp4170
Rp4171
(dp4172
g23
F0.5
sg24
I13347
sg25
g26
((dp4173
I00
I13337
sI01
I10
stp4174
Rp4175
sg30
I2
sg31
F13348.0
sbs(g14
Vcontains(supervisor)
p4176
tp4177
g0
(g19
g2
Ntp4178
Rp4179
(dp4180
g23
F0.5
sg24
I11590
sg25
g26
((dp4181
I00
I11577
sI01
I13
stp4182
Rp4183
sg30
I2
sg31
F11591.0
sbs(g11
Vcontains(monetari)
p4184
tp4185
g0
(g19
g2
Ntp4186
Rp4187
(dp4188
g23
F0.5
sg24
I4099
sg25
g26
((dp4189
I00
I4095
sI01
I4
stp4190
Rp4191
sg30
I2
sg31
F4100.0
sbs(g10
Vcontains(work-from-hom)
p4192
tp4193
g0
(g19
g2
Ntp4194
Rp4195
(dp4196
g23
F0.5
sg24
I9294
sg25
g26
((dp4197
I00
I9294
stp4198
Rp4199
sg30
I1
sg31
F9294.5
sbs(g10
Vcontains(snack)
p4200
tp4201
g0
(g19
g2
Ntp4202
Rp4203
(dp4204
g23
F0.5
sg24
I9294
sg25
g26
((dp4205
I00
I9292
sI01
I2
stp4206
Rp4207
sg30
I2
sg31
F9295.0
sbs(g14
Vcontains(mentor)
p4208
tp4209
g0
(g19
g2
Ntp4210
Rp4211
(dp4212
g23
F0.5
sg24
I11590
sg25
g26
((dp4213
I00
I11581
sI01
I9
stp4214
Rp4215
sg30
I2
sg31
F11591.0
sbs(g10
Vcontains(gain)
p4216
tp4217
g0
(g19
g2
Ntp4218
Rp4219
(dp4220
g23
F0.5
sg24
I9294
sg25
g26
((dp4221
I00
I9282
sI01
I12
stp4222
Rp4223
sg30
I2
sg31
F9295.0
sbs(g10
Vcontains(compens)
p4224
tp4225
g0
(g19
g2
Ntp4226
Rp4227
(dp4228
g23
F0.5
sg24
I9294
sg25
g26
((dp4229
I00
I8688
sI01
I606
stp4230
Rp4231
sg30
I2
sg31
F9295.0
sbs(g10
Vcontains(manger)
p4232
tp4233
g0
(g19
g2
Ntp4234
Rp4235
(dp4236
g23
F0.5
sg24
I9294
sg25
g26
((dp4237
I00
I9293
sI01
I1
stp4238
Rp4239
sg30
I2
sg31
F9295.0
sbs(g9
Vcontains(stress)
p4240
tp4241
g0
(g19
g2
Ntp4242
Rp4243
(dp4244
g23
F0.5
sg24
I62008
sg25
g26
((dp4245
I00
I61794
sI01
I214
stp4246
Rp4247
sg30
I2
sg31
F62009.0
sbs(g11
Vcontains(gener)
p4248
tp4249
g0
(g19
g2
Ntp4250
Rp4251
(dp4252
g23
F0.5
sg24
I4099
sg25
g26
((dp4253
I00
I4089
sI01
I10
stp4254
Rp4255
sg30
I2
sg31
F4100.0
sbs(g11
Vcontains(job/lif)
p4256
tp4257
g0
(g19
g2
Ntp4258
Rp4259
(dp4260
g23
F0.5
sg24
I4099
sg25
g26
((dp4261
I00
I4099
stp4262
Rp4263
sg30
I1
sg31
F4099.5
sbs(g8
Vcontains(gain)
p4264
tp4265
g0
(g19
g2
Ntp4266
Rp4267
(dp4268
g23
F0.5
sg24
I29752
sg25
g26
((dp4269
I00
I28999
sI01
I753
stp4270
Rp4271
sg30
I2
sg31
F29753.0
sbs(g10
Vcontains(bonu)
p4272
tp4273
g0
(g19
g2
Ntp4274
Rp4275
(dp4276
g23
F0.5
sg24
I9294
sg25
g26
((dp4277
I00
I9201
sI01
I93
stp4278
Rp4279
sg30
I2
sg31
F9295.0
sbs(g11
Vcontains(work/lif)
p4280
tp4281
g0
(g19
g2
Ntp4282
Rp4283
(dp4284
g23
F0.5
sg24
I4099
sg25
g26
((dp4285
I00
I4099
stp4286
Rp4287
sg30
I1
sg31
F4099.5
sbs(g14
Vcontains(member)
p4288
tp4289
g0
(g19
g2
Ntp4290
Rp4291
(dp4292
g23
F0.5
sg24
I11590
sg25
g26
((dp4293
I00
I11524
sI01
I66
stp4294
Rp4295
sg30
I2
sg31
F11591.0
sbs(g13
Vcontains(manger)
p4296
tp4297
g0
(g19
g2
Ntp4298
Rp4299
(dp4300
g23
F0.5
sg24
I39554
sg25
g26
((dp4301
I00
I39554
stp4302
Rp4303
sg30
I2
sg31
F39555.0
sbs(g11
Vcontains(system)
p4304
tp4305
g0
(g19
g2
Ntp4306
Rp4307
(dp4308
g23
F0.5
sg24
I4099
sg25
g26
((dp4309
I00
I2966
sI01
I1133
stp4310
Rp4311
sg30
I2
sg31
F4100.0
sbs(g13
Vcontains(natur)
p4312
tp4313
g0
(g19
g2
Ntp4314
Rp4315
(dp4316
g23
F0.5
sg24
I39554
sg25
g26
((dp4317
I00
I39554
stp4318
Rp4319
sg30
I2
sg31
F39555.0
sbs(g10
Vcontains(enviro)
p4320
tp4321
g0
(g19
g2
Ntp4322
Rp4323
(dp4324
g23
F0.5
sg24
I9294
sg25
g26
((dp4325
I00
I9294
stp4326
Rp4327
sg30
I1
sg31
F9294.5
sbs(g13
Vcontains(leadership)
p4328
tp4329
g0
(g19
g2
Ntp4330
Rp4331
(dp4332
g23
F0.5
sg24
I39554
sg25
g26
((dp4333
I00
I39554
stp4334
Rp4335
sg30
I2
sg31
F39555.0
sbs(g8
Vcontains(increment)
p4336
tp4337
g0
(g19
g2
Ntp4338
Rp4339
(dp4340
g23
F0.5
sg24
I29752
sg25
g26
((dp4341
I00
I29746
sI01
I6
stp4342
Rp4343
sg30
I2
sg31
F29753.0
sbs(g13
Vcontains(food)
p4344
tp4345
g0
(g19
g2
Ntp4346
Rp4347
(dp4348
g23
F0.5
sg24
I39554
sg25
g26
((dp4349
I00
I39554
stp4350
Rp4351
sg30
I2
sg31
F39555.0
sbs(g9
Vcontains(exposur)
p4352
tp4353
g0
(g19
g2
Ntp4354
Rp4355
(dp4356
g23
F0.5
sg24
I62008
sg25
g26
((dp4357
I00
I61887
sI01
I121
stp4358
Rp4359
sg30
I2
sg31
F62009.0
sbs(g14
Vcontains(leader)
p4360
tp4361
g0
(g19
g2
Ntp4362
Rp4363
(dp4364
g23
F0.5
sg24
I11590
sg25
g26
((dp4365
I00
I11540
sI01
I50
stp4366
Rp4367
sg30
I2
sg31
F11591.0
sbs(g9
Vcontains(breakfast)
p4368
tp4369
g0
(g19
g2
Ntp4370
Rp4371
(dp4372
g23
F0.5
sg24
I62008
sg25
g26
((dp4373
I00
I62000
sI01
I8
stp4374
Rp4375
sg30
I2
sg31
F62009.0
sbs(g10
Vcontains(system)
p4376
tp4377
g0
(g19
g2
Ntp4378
Rp4379
(dp4380
g23
F0.5
sg24
I9294
sg25
g26
((dp4381
I00
I9253
sI01
I41
stp4382
Rp4383
sg30
I2
sg31
F9295.0
sbs(g12
Vcontains(promot)
p4384
tp4385
g0
(g19
g2
Ntp4386
Rp4387
(dp4388
g23
F0.5
sg24
I13347
sg25
g26
((dp4389
I00
I13265
sI01
I82
stp4390
Rp4391
sg30
I2
sg31
F13348.0
sbs(g14
Vcontains(chanc)
p4392
tp4393
g0
(g19
g2
Ntp4394
Rp4395
(dp4396
g23
F0.5
sg24
I11590
sg25
g26
((dp4397
I00
I11558
sI01
I32
stp4398
Rp4399
sg30
I2
sg31
F11591.0
sbs(g10
Vcontains(life)
p4400
tp4401
g0
(g19
g2
Ntp4402
Rp4403
(dp4404
g23
F0.5
sg24
I9294
sg25
g26
((dp4405
I00
I9116
sI01
I178
stp4406
Rp4407
sg30
I2
sg31
F9295.0
sbs(g11
Vcontains(growth)
p4408
tp4409
g0
(g19
g2
Ntp4410
Rp4411
(dp4412
g23
F0.5
sg24
I4099
sg25
g26
((dp4413
I00
I4082
sI01
I17
stp4414
Rp4415
sg30
I2
sg31
F4100.0
sbs(g8
Vcontains(coffe)
p4416
tp4417
g0
(g19
g2
Ntp4418
Rp4419
(dp4420
g23
F0.5
sg24
I29752
sg25
g26
((dp4421
I00
I29749
sI01
I3
stp4422
Rp4423
sg30
I2
sg31
F29753.0
sbs(g12
Vcontains(grow)
p4424
tp4425
g0
(g19
g2
Ntp4426
Rp4427
(dp4428
g23
F0.5
sg24
I13347
sg25
g26
((dp4429
I00
I13304
sI01
I43
stp4430
Rp4431
sg30
I2
sg31
F13348.0
sbs(g11
Vcontains(advanc)
p4432
tp4433
g0
(g19
g2
Ntp4434
Rp4435
(dp4436
g23
F0.5
sg24
I4099
sg25
g26
((dp4437
I00
I4080
sI01
I19
stp4438
Rp4439
sg30
I2
sg31
F4100.0
sbs(g9
Vcontains(overtim)
p4440
tp4441
g0
(g19
g2
Ntp4442
Rp4443
(dp4444
g23
F0.5
sg24
I62008
sg25
g26
((dp4445
I00
I61911
sI01
I97
stp4446
Rp4447
sg30
I2
sg31
F62009.0
sbs(g14
Vcontains(peer)
p4448
tp4449
g0
(g19
g2
Ntp4450
Rp4451
(dp4452
g23
F0.5
sg24
I11590
sg25
g26
((dp4453
I00
I11575
sI01
I15
stp4454
Rp4455
sg30
I2
sg31
F11591.0
sbs(g10
Vcontains(scope)
p4456
tp4457
g0
(g19
g2
Ntp4458
Rp4459
(dp4460
g23
F0.5
sg24
I9294
sg25
g26
((dp4461
I00
I9286
sI01
I8
stp4462
Rp4463
sg30
I2
sg31
F9295.0
sbs(g10
Vcontains(drink)
p4464
tp4465
g0
(g19
g2
Ntp4466
Rp4467
(dp4468
g23
F0.5
sg24
I9294
sg25
g26
((dp4469
I00
I9288
sI01
I6
stp4470
Rp4471
sg30
I2
sg31
F9295.0
sbs(g13
Vcontains(compet)
p4472
tp4473
g0
(g19
g2
Ntp4474
Rp4475
(dp4476
g23
F0.5
sg24
I39554
sg25
g26
((dp4477
I00
I39554
stp4478
Rp4479
sg30
I2
sg31
F39555.0
sbs(g8
Vcontains(scope)
p4480
tp4481
g0
(g19
g2
Ntp4482
Rp4483
(dp4484
g23
F0.5
sg24
I29752
sg25
g26
((dp4485
I00
I29471
sI01
I281
stp4486
Rp4487
sg30
I2
sg31
F29753.0
sbs(g14
Vcontains(snack)
p4488
tp4489
g0
(g19
g2
Ntp4490
Rp4491
(dp4492
g23
F0.5
sg24
I11590
sg25
g26
((dp4493
I00
I11589
sI01
I1
stp4494
Rp4495
sg30
I2
sg31
F11591.0
sbs(g10
Vcontains(challeng)
p4496
tp4497
g0
(g19
g2
Ntp4498
Rp4499
(dp4500
g23
F0.5
sg24
I9294
sg25
g26
((dp4501
I00
I9273
sI01
I21
stp4502
Rp4503
sg30
I2
sg31
F9295.0
sbs(g12
Vcontains(packag)
p4504
tp4505
g0
(g19
g2
Ntp4506
Rp4507
(dp4508
g23
F0.5
sg24
I13347
sg25
g26
((dp4509
I00
I13324
sI01
I23
stp4510
Rp4511
sg30
I2
sg31
F13348.0
sbs(g13
Vcontains(enviro)
p4512
tp4513
g0
(g19
g2
Ntp4514
Rp4515
(dp4516
g23
F0.5
sg24
I39554
sg25
g26
((dp4517
I00
I39554
stp4518
Rp4519
sg30
I1
sg31
F39554.5
sbs(g14
Vcontains(shift)
p4520
tp4521
g0
(g19
g2
Ntp4522
Rp4523
(dp4524
g23
F0.5
sg24
I11590
sg25
g26
((dp4525
I00
I11562
sI01
I28
stp4526
Rp4527
sg30
I2
sg31
F11591.0
sbs(g14
Vcontains(worklif)
p4528
tp4529
g0
(g19
g2
Ntp4530
Rp4531
(dp4532
g23
F0.5
sg24
I11590
sg25
g26
((dp4533
I00
I11590
stp4534
Rp4535
sg30
I1
sg31
F11590.5
sbs(g11
Vcontains(carreer)
p4536
tp4537
g0
(g19
g2
Ntp4538
Rp4539
(dp4540
g23
F0.5
sg24
I4099
sg25
g26
((dp4541
I00
I4099
stp4542
Rp4543
sg30
I1
sg31
F4099.5
sbs(g13
Vcontains(gym)
p4544
tp4545
g0
(g19
g2
Ntp4546
Rp4547
(dp4548
g23
F0.5
sg24
I39554
sg25
g26
((dp4549
I00
I39554
stp4550
Rp4551
sg30
I2
sg31
F39555.0
sbs(g9
Vcontains(hike)
p4552
tp4553
g0
(g19
g2
Ntp4554
Rp4555
(dp4556
g23
F0.5
sg24
I62008
sg25
g26
((dp4557
I00
I61965
sI01
I43
stp4558
Rp4559
sg30
I2
sg31
F62009.0
sbs(g10
Vcontains(abil)
p4560
tp4561
g0
(g19
g2
Ntp4562
Rp4563
(dp4564
g23
F0.5
sg24
I9294
sg25
g26
((dp4565
I00
I9280
sI01
I14
stp4566
Rp4567
sg30
I2
sg31
F9295.0
sbs(g10
Vcontains(coffe)
p4568
tp4569
g0
(g19
g2
Ntp4570
Rp4571
(dp4572
g23
F0.5
sg24
I9294
sg25
g26
((dp4573
I00
I9292
sI01
I2
stp4574
Rp4575
sg30
I2
sg31
F9295.0
sbs(g9
Vcontains(salari)
p4576
tp4577
g0
(g19
g2
Ntp4578
Rp4579
(dp4580
g23
F0.5
sg24
I62008
sg25
g26
((dp4581
I00
I61822
sI01
I186
stp4582
Rp4583
sg30
I2
sg31
F62009.0
sbs(g14
Vcontains(support)
p4584
tp4585
g0
(g19
g2
Ntp4586
Rp4587
(dp4588
g23
F0.5
sg24
I11590
sg25
g26
((dp4589
I00
I11446
sI01
I144
stp4590
Rp4591
sg30
I2
sg31
F11591.0
sbs(g12
Vcontains(stabil)
p4592
tp4593
g0
(g19
g2
Ntp4594
Rp4595
(dp4596
g23
F0.5
sg24
I13347
sg25
g26
((dp4597
I00
I13341
sI01
I6
stp4598
Rp4599
sg30
I2
sg31
F13348.0
sbs(g13
Vcontains(teach)
p4600
tp4601
g0
(g19
g2
Ntp4602
Rp4603
(dp4604
g23
F0.5
sg24
I39554
sg25
g26
((dp4605
I00
I39554
stp4606
Rp4607
sg30
I2
sg31
F39555.0
sbs(g14
Vcontains(natur)
p4608
tp4609
g0
(g19
g2
Ntp4610
Rp4611
(dp4612
g23
F0.5
sg24
I11590
sg25
g26
((dp4613
I00
I11390
sI01
I200
stp4614
Rp4615
sg30
I2
sg31
F11591.0
sbs(g14
Vcontains(carreer)
p4616
tp4617
g0
(g19
g2
Ntp4618
Rp4619
(dp4620
g23
F0.5
sg24
I11590
sg25
g26
((dp4621
I00
I11590
stp4622
Rp4623
sg30
I1
sg31
F11590.5
sbs(g13
Vcontains(pay)
p4624
tp4625
g0
(g19
g2
Ntp4626
Rp4627
(dp4628
g23
F0.5
sg24
I39554
sg25
g26
((dp4629
I00
I39554
stp4630
Rp4631
sg30
I2
sg31
F39555.0
sbs(g10
Vcontains(opportun)
p4632
tp4633
g0
(g19
g2
Ntp4634
Rp4635
(dp4636
g23
F0.5
sg24
I9294
sg25
g26
((dp4637
I00
I9176
sI01
I118
stp4638
Rp4639
sg30
I2
sg31
F9295.0
sbs(g9
Vcontains(wage)
p4640
tp4641
g0
(g19
g2
Ntp4642
Rp4643
(dp4644
g23
F0.5
sg24
I62008
sg25
g26
((dp4645
I00
I61965
sI01
I43
stp4646
Rp4647
sg30
I2
sg31
F62009.0
sbs(g12
Vcontains(freedom)
p4648
tp4649
g0
(g19
g2
Ntp4650
Rp4651
(dp4652
g23
F0.5
sg24
I13347
sg25
g26
((dp4653
I00
I13335
sI01
I12
stp4654
Rp4655
sg30
I2
sg31
F13348.0
sbs(g14
Vcontains(monetari)
p4656
tp4657
g0
(g19
g2
Ntp4658
Rp4659
(dp4660
g23
F0.5
sg24
I11590
sg25
g26
((dp4661
I00
I11588
sI01
I2
stp4662
Rp4663
sg30
I2
sg31
F11591.0
sbs(g14
Vcontains(work-from-hom)
p4664
tp4665
g0
(g19
g2
Ntp4666
Rp4667
(dp4668
g23
F0.5
sg24
I11590
sg25
g26
((dp4669
I00
I11590
stp4670
Rp4671
sg30
I1
sg31
F11590.5
sbs(g12
Vcontains(recogn)
p4672
tp4673
g0
(g19
g2
Ntp4674
Rp4675
(dp4676
g23
F0.5
sg24
I13347
sg25
g26
((dp4677
I00
I13342
sI01
I5
stp4678
Rp4679
sg30
I2
sg31
F13348.0
sbs(g9
Vcontains(fresher)
p4680
tp4681
g0
(g19
g2
Ntp4682
Rp4683
(dp4684
g23
F0.5
sg24
I62008
sg25
g26
((dp4685
I00
I61922
sI01
I86
stp4686
Rp4687
sg30
I2
sg31
F62009.0
sbs(g9
Vcontains(mobil)
p4688
tp4689
g0
(g19
g2
Ntp4690
Rp4691
(dp4692
g23
F0.5
sg24
I62008
sg25
g26
((dp4693
I00
I61974
sI01
I34
stp4694
Rp4695
sg30
I2
sg31
F62009.0
sbs(g13
Vcontains(stabil)
p4696
tp4697
g0
(g19
g2
Ntp4698
Rp4699
(dp4700
g23
F0.5
sg24
I39554
sg25
g26
((dp4701
I00
I39554
stp4702
Rp4703
sg30
I2
sg31
F39555.0
sbs(g10
Vcontains(meal)
p4704
tp4705
g0
(g19
g2
Ntp4706
Rp4707
(dp4708
g23
F0.5
sg24
I9294
sg25
g26
((dp4709
I00
I9292
sI01
I2
stp4710
Rp4711
sg30
I2
sg31
F9295.0
sbs(g10
Vcontains(staff)
p4712
tp4713
g0
(g19
g2
Ntp4714
Rp4715
(dp4716
g23
F0.5
sg24
I9294
sg25
g26
((dp4717
I00
I9261
sI01
I33
stp4718
Rp4719
sg30
I2
sg31
F9295.0
sbs(g13
Vcontains(mentor)
p4720
tp4721
g0
(g19
g2
Ntp4722
Rp4723
(dp4724
g23
F0.5
sg24
I39554
sg25
g26
((dp4725
I00
I39554
stp4726
Rp4727
sg30
I2
sg31
F39555.0
sbs(g12
Vcontains(secur)
p4728
tp4729
g0
(g19
g2
Ntp4730
Rp4731
(dp4732
g23
F0.5
sg24
I13347
sg25
g26
((dp4733
I00
I13276
sI01
I71
stp4734
Rp4735
sg30
I2
sg31
F13348.0
sbs(g10
Vcontains(upward)
p4736
tp4737
g0
(g19
g2
Ntp4738
Rp4739
(dp4740
g23
F0.5
sg24
I9294
sg25
g26
((dp4741
I00
I9292
sI01
I2
stp4742
Rp4743
sg30
I2
sg31
F9295.0
sbs(g14
Vcontains(salari)
p4744
tp4745
g0
(g19
g2
Ntp4746
Rp4747
(dp4748
g23
F0.5
sg24
I11590
sg25
g26
((dp4749
I00
I11538
sI01
I52
stp4750
Rp4751
sg30
I2
sg31
F11591.0
sbs(g11
Vcontains(incent)
p4752
tp4753
g0
(g19
g2
Ntp4754
Rp4755
(dp4756
g23
F0.5
sg24
I4099
sg25
g26
((dp4757
I00
I4096
sI01
I3
stp4758
Rp4759
sg30
I2
sg31
F4100.0
sbs(g10
Vcontains(train)
p4760
tp4761
g0
(g19
g2
Ntp4762
Rp4763
(dp4764
g23
F0.5
sg24
I9294
sg25
g26
((dp4765
I00
I9228
sI01
I66
stp4766
Rp4767
sg30
I2
sg31
F9295.0
sbs(g9
Vcontains(innov)
p4768
tp4769
g0
(g19
g2
Ntp4770
Rp4771
(dp4772
g23
F0.5
sg24
I62008
sg25
g26
((dp4773
I00
I61924
sI01
I84
stp4774
Rp4775
sg30
I2
sg31
F62009.0
sbs(g13
Vcontains(paid)
p4776
tp4777
g0
(g19
g2
Ntp4778
Rp4779
(dp4780
g23
F0.5
sg24
I39554
sg25
g26
((dp4781
I00
I39554
stp4782
Rp4783
sg30
I2
sg31
F39555.0
sbs(g8
Vcontains(packag)
p4784
tp4785
g0
(g19
g2
Ntp4786
Rp4787
(dp4788
g23
F0.5
sg24
I29752
sg25
g26
((dp4789
I00
I29719
sI01
I33
stp4790
Rp4791
sg30
I2
sg31
F29753.0
sbs(g9
Vcontains(worklif)
p4792
tp4793
g0
(g19
g2
Ntp4794
Rp4795
(dp4796
g23
F0.5
sg24
I62008
sg25
g26
((dp4797
I00
I62008
stp4798
Rp4799
sg30
I1
sg31
F62008.5
sbs(g10
Vcontains(reward)
p4800
tp4801
g0
(g19
g2
Ntp4802
Rp4803
(dp4804
g23
F0.5
sg24
I9294
sg25
g26
((dp4805
I00
I8791
sI01
I503
stp4806
Rp4807
sg30
I2
sg31
F9295.0
sbs(g10
Vcontains(freedom)
p4808
tp4809
g0
(g19
g2
Ntp4810
Rp4811
(dp4812
g23
F0.5
sg24
I9294
sg25
g26
((dp4813
I00
I9293
sI01
I1
stp4814
Rp4815
sg30
I2
sg31
F9295.0
sbs(g10
Vcontains(facil)
p4816
tp4817
g0
(g19
g2
Ntp4818
Rp4819
(dp4820
g23
F0.5
sg24
I9294
sg25
g26
((dp4821
I00
I9269
sI01
I25
stp4822
Rp4823
sg30
I2
sg31
F9295.0
sbs(g11
Vcontains(increment)
p4824
tp4825
g0
(g19
g2
Ntp4826
Rp4827
(dp4828
g23
F0.5
sg24
I4099
sg25
g26
((dp4829
I00
I4095
sI01
I4
stp4830
Rp4831
sg30
I2
sg31
F4100.0
sbs(g10
Vcontains(friendli)
p4832
tp4833
g0
(g19
g2
Ntp4834
Rp4835
(dp4836
g23
F0.5
sg24
I9294
sg25
g26
((dp4837
I00
I9237
sI01
I57
stp4838
Rp4839
sg30
I2
sg31
F9295.0
sbs(g10
Vcontains(stronger)
p4840
tp4841
g0
(g19
g2
Ntp4842
Rp4843
(dp4844
g23
F0.5
sg24
I9294
sg25
g26
((dp4845
I00
I9294
stp4846
Rp4847
sg30
I2
sg31
F9295.0
sbs(g12
Vcontains(flexibl)
p4848
tp4849
g0
(g19
g2
Ntp4850
Rp4851
(dp4852
g23
F0.5
sg24
I13347
sg25
g26
((dp4853
I00
I12199
sI01
I1148
stp4854
Rp4855
sg30
I2
sg31
F13348.0
sbs(g10
Vcontains(benefit)
p4856
tp4857
g0
(g19
g2
Ntp4858
Rp4859
(dp4860
g23
F0.5
sg24
I9294
sg25
g26
((dp4861
I00
I7190
sI01
I2104
stp4862
Rp4863
sg30
I2
sg31
F9295.0
sbs(g8
Vcontains(atmospher)
p4864
tp4865
g0
(g19
g2
Ntp4866
Rp4867
(dp4868
g23
F0.5
sg24
I29752
sg25
g26
((dp4869
I00
I29681
sI01
I71
stp4870
Rp4871
sg30
I2
sg31
F29753.0
sbs(g13
Vcontains(abil)
p4872
tp4873
g0
(g19
g2
Ntp4874
Rp4875
(dp4876
g23
F0.5
sg24
I39554
sg25
g26
((dp4877
I00
I39554
stp4878
Rp4879
sg30
I2
sg31
F39555.0
sbs(g13
Vcontains(friendli)
p4880
tp4881
g0
(g19
g2
Ntp4882
Rp4883
(dp4884
g23
F0.5
sg24
I39554
sg25
g26
((dp4885
I00
I38234
sI01
I1320
stp4886
Rp4887
sg30
I2
sg31
F39555.0
sbs(g12
Vcontains(staff)
p4888
tp4889
g0
(g19
g2
Ntp4890
Rp4891
(dp4892
g23
F0.5
sg24
I13347
sg25
g26
((dp4893
I00
I13294
sI01
I53
stp4894
Rp4895
sg30
I2
sg31
F13348.0
sbs(g11
Vcontains(leadership)
p4896
tp4897
g0
(g19
g2
Ntp4898
Rp4899
(dp4900
g23
F0.5
sg24
I4099
sg25
g26
((dp4901
I00
I4089
sI01
I10
stp4902
Rp4903
sg30
I2
sg31
F4100.0
sbs(g12
Vcontains(supervisor)
p4904
tp4905
g0
(g19
g2
Ntp4906
Rp4907
(dp4908
g23
F0.5
sg24
I13347
sg25
g26
((dp4909
I00
I13309
sI01
I38
stp4910
Rp4911
sg30
I2
sg31
F13348.0
sbs(g11
Vcontains(facil)
p4912
tp4913
g0
(g19
g2
Ntp4914
Rp4915
(dp4916
g23
F0.5
sg24
I4099
sg25
g26
((dp4917
I00
I3677
sI01
I422
stp4918
Rp4919
sg30
I2
sg31
F4100.0
sbs(g14
Vcontains(organis)
p4920
tp4921
g0
(g19
g2
Ntp4922
Rp4923
(dp4924
g23
F0.5
sg24
I11590
sg25
g26
((dp4925
I00
I11590
stp4926
Rp4927
sg30
I1
sg31
F11590.5
sbs(g10
Vcontains(organis)
p4928
tp4929
g0
(g19
g2
Ntp4930
Rp4931
(dp4932
g23
F0.5
sg24
I9294
sg25
g26
((dp4933
I00
I9294
stp4934
Rp4935
sg30
I1
sg31
F9294.5
sbs(g13
Vcontains(grow)
p4936
tp4937
g0
(g19
g2
Ntp4938
Rp4939
(dp4940
g23
F0.5
sg24
I39554
sg25
g26
((dp4941
I00
I39554
stp4942
Rp4943
sg30
I2
sg31
F39555.0
sbs(g11
Vcontains(benefit)
p4944
tp4945
g0
(g19
g2
Ntp4946
Rp4947
(dp4948
g23
F0.5
sg24
I4099
sg25
g26
((dp4949
I00
I4060
sI01
I39
stp4950
Rp4951
sg30
I2
sg31
F4100.0
sbs(g11
Vcontains(shift)
p4952
tp4953
g0
(g19
g2
Ntp4954
Rp4955
(dp4956
g23
F0.5
sg24
I4099
sg25
g26
((dp4957
I00
I4074
sI01
I25
stp4958
Rp4959
sg30
I2
sg31
F4100.0
sbs(g14
Vcontains(advanc)
p4960
tp4961
g0
(g19
g2
Ntp4962
Rp4963
(dp4964
g23
F0.5
sg24
I11590
sg25
g26
((dp4965
I00
I11547
sI01
I43
stp4966
Rp4967
sg30
I2
sg31
F11591.0
sbs(g8
Vcontains(advanc)
p4968
tp4969
g0
(g19
g2
Ntp4970
Rp4971
(dp4972
g23
F0.5
sg24
I29752
sg25
g26
((dp4973
I00
I28451
sI01
I1301
stp4974
Rp4975
sg30
I2
sg31
F29753.0
sbs(g10
Vcontains(innov)
p4976
tp4977
g0
(g19
g2
Ntp4978
Rp4979
(dp4980
g23
F0.5
sg24
I9294
sg25
g26
((dp4981
I00
I9288
sI01
I6
stp4982
Rp4983
sg30
I2
sg31
F9295.0
sbs(g14
Vcontains(exposur)
p4984
tp4985
g0
(g19
g2
Ntp4986
Rp4987
(dp4988
g23
F0.5
sg24
I11590
sg25
g26
((dp4989
I00
I11147
sI01
I443
stp4990
Rp4991
sg30
I2
sg31
F11591.0
sbs(g14
Vcontains(progress)
p4992
tp4993
g0
(g19
g2
Ntp4994
Rp4995
(dp4996
g23
F0.5
sg24
I11590
sg25
g26
((dp4997
I00
I11579
sI01
I11
stp4998
Rp4999
sg30
I2
sg31
F11591.0
sbs(g9
Vcontains(upward)
p5000
tp5001
g0
(g19
g2
Ntp5002
Rp5003
(dp5004
g23
F0.5
sg24
I62008
sg25
g26
((dp5005
I00
I61996
sI01
I12
stp5006
Rp5007
sg30
I2
sg31
F62009.0
sbs(g14
Vcontains(drink)
p5008
tp5009
g0
(g19
g2
Ntp5010
Rp5011
(dp5012
g23
F0.5
sg24
I11590
sg25
g26
((dp5013
I00
I11587
sI01
I3
stp5014
Rp5015
sg30
I2
sg31
F11591.0
sbs(g8
Vcontains(bonu)
p5016
tp5017
g0
(g19
g2
Ntp5018
Rp5019
(dp5020
g23
F0.5
sg24
I29752
sg25
g26
((dp5021
I00
I29744
sI01
I8
stp5022
Rp5023
sg30
I2
sg31
F29753.0
sbs(g11
Vcontains(food)
p5024
tp5025
g0
(g19
g2
Ntp5026
Rp5027
(dp5028
g23
F0.5
sg24
I4099
sg25
g26
((dp5029
I00
I3670
sI01
I429
stp5030
Rp5031
sg30
I2
sg31
F4100.0
sbs(g8
Vcontains(secur)
p5032
tp5033
g0
(g19
g2
Ntp5034
Rp5035
(dp5036
g23
F0.5
sg24
I29752
sg25
g26
((dp5037
I00
I29646
sI01
I106
stp5038
Rp5039
sg30
I2
sg31
F29753.0
sbs(g14
Vcontains(challeng)
p5040
tp5041
g0
(g19
g2
Ntp5042
Rp5043
(dp5044
g23
F0.5
sg24
I11590
sg25
g26
((dp5045
I00
I11492
sI01
I98
stp5046
Rp5047
sg30
I2
sg31
F11591.0
sbs(g12
Vcontains(bonu)
p5048
tp5049
g0
(g19
g2
Ntp5050
Rp5051
(dp5052
g23
F0.5
sg24
I13347
sg25
g26
((dp5053
I00
I13343
sI01
I4
stp5054
Rp5055
sg30
I2
sg31
F13348.0
sbs(g10
Vcontains(mobil)
p5056
tp5057
g0
(g19
g2
Ntp5058
Rp5059
(dp5060
g23
F0.5
sg24
I9294
sg25
g26
((dp5061
I00
I9291
sI01
I3
stp5062
Rp5063
sg30
I2
sg31
F9295.0
sbs(g12
Vcontains(system)
p5064
tp5065
g0
(g19
g2
Ntp5066
Rp5067
(dp5068
g23
F0.5
sg24
I13347
sg25
g26
((dp5069
I00
I13299
sI01
I48
stp5070
Rp5071
sg30
I2
sg31
F13348.0
sbs(g9
Vcontains(mentor)
p5072
tp5073
g0
(g19
g2
Ntp5074
Rp5075
(dp5076
g23
F0.5
sg24
I62008
sg25
g26
((dp5077
I00
I61809
sI01
I199
stp5078
Rp5079
sg30
I2
sg31
F62009.0
sbs(g12
Vcontains(canteen)
p5080
tp5081
g0
(g19
g2
Ntp5082
Rp5083
(dp5084
g23
F0.5
sg24
I13347
sg25
g26
((dp5085
I00
I13342
sI01
I5
stp5086
Rp5087
sg30
I2
sg31
F13348.0
sbs(g10
Vcontains(cafeteria)
p5088
tp5089
g0
(g19
g2
Ntp5090
Rp5091
(dp5092
g23
F0.5
sg24
I9294
sg25
g26
((dp5093
I00
I9290
sI01
I4
stp5094
Rp5095
sg30
I2
sg31
F9295.0
sbs(g12
Vcontains(employ)
p5096
tp5097
g0
(g19
g2
Ntp5098
Rp5099
(dp5100
g23
F0.5
sg24
I13347
sg25
g26
((dp5101
I00
I13301
sI01
I46
stp5102
Rp5103
sg30
I2
sg31
F13348.0
sbs(g8
Vcontains(drink)
p5104
tp5105
g0
(g19
g2
Ntp5106
Rp5107
(dp5108
g23
F0.5
sg24
I29752
sg25
g26
((dp5109
I00
I29745
sI01
I7
stp5110
Rp5111
sg30
I2
sg31
F29753.0
sbs(g11
Vcontains(chanc)
p5112
tp5113
g0
(g19
g2
Ntp5114
Rp5115
(dp5116
g23
F0.5
sg24
I4099
sg25
g26
((dp5117
I00
I4091
sI01
I8
stp5118
Rp5119
sg30
I2
sg31
F4100.0
sbs(g9
Vcontains(enterpris)
p5120
tp5121
g0
(g19
g2
Ntp5122
Rp5123
(dp5124
g23
F0.5
sg24
I62008
sg25
g26
((dp5125
I00
I61978
sI01
I30
stp5126
Rp5127
sg30
I2
sg31
F62009.0
sbs(g10
Vcontains(wage)
p5128
tp5129
g0
(g19
g2
Ntp5130
Rp5131
(dp5132
g23
F0.5
sg24
I9294
sg25
g26
((dp5133
I00
I9109
sI01
I185
stp5134
Rp5135
sg30
I2
sg31
F9295.0
sbs(g13
Vcontains(member)
p5136
tp5137
g0
(g19
g2
Ntp5138
Rp5139
(dp5140
g23
F0.5
sg24
I39554
sg25
g26
((dp5141
I00
I39554
stp5142
Rp5143
sg30
I2
sg31
F39555.0
sbs(g13
Vcontains(remuner)
p5144
tp5145
g0
(g19
g2
Ntp5146
Rp5147
(dp5148
g23
F0.5
sg24
I39554
sg25
g26
((dp5149
I00
I39554
stp5150
Rp5151
sg30
I2
sg31
F39555.0
sbs(g10
Vcontains(tea)
p5152
tp5153
g0
(g19
g2
Ntp5154
Rp5155
(dp5156
g23
F0.5
sg24
I9294
sg25
g26
((dp5157
I00
I9294
stp5158
Rp5159
sg30
I2
sg31
F9295.0
sbs(g10
Vcontains(wifi)
p5160
tp5161
g0
(g19
g2
Ntp5162
Rp5163
(dp5164
g23
F0.5
sg24
I9294
sg25
g26
((dp5165
I00
I9294
stp5166
Rp5167
sg30
I1
sg31
F9294.5
sbs(g8
Vcontains(organis)
p5168
tp5169
g0
(g19
g2
Ntp5170
Rp5171
(dp5172
g23
F0.5
sg24
I29752
sg25
g26
((dp5173
I00
I29752
stp5174
Rp5175
sg30
I1
sg31
F29752.5
sbs(g9
Vcontains(progress)
p5176
tp5177
g0
(g19
g2
Ntp5178
Rp5179
(dp5180
g23
F0.5
sg24
I62008
sg25
g26
((dp5181
I00
I61939
sI01
I69
stp5182
Rp5183
sg30
I2
sg31
F62009.0
sbs(g10
Vcontains(gym)
p5184
tp5185
g0
(g19
g2
Ntp5186
Rp5187
(dp5188
g23
F0.5
sg24
I9294
sg25
g26
((dp5189
I00
I9292
sI01
I2
stp5190
Rp5191
sg30
I2
sg31
F9295.0
sbs(g10
Vcontains(talent)
p5192
tp5193
g0
(g19
g2
Ntp5194
Rp5195
(dp5196
g23
F0.5
sg24
I9294
sg25
g26
((dp5197
I00
I9274
sI01
I20
stp5198
Rp5199
sg30
I2
sg31
F9295.0
sbs(g10
Vcontains(hike)
p5200
tp5201
g0
(g19
g2
Ntp5202
Rp5203
(dp5204
g23
F0.5
sg24
I9294
sg25
g26
((dp5205
I00
I9110
sI01
I184
stp5206
Rp5207
sg30
I2
sg31
F9295.0
sbs(g9
Vcontains(advanc)
p5208
tp5209
g0
(g19
g2
Ntp5210
Rp5211
(dp5212
g23
F0.5
sg24
I62008
sg25
g26
((dp5213
I00
I61784
sI01
I224
stp5214
Rp5215
sg30
I2
sg31
F62009.0
sbs(g11
Vcontains(mobil)
p5216
tp5217
g0
(g19
g2
Ntp5218
Rp5219
(dp5220
g23
F0.5
sg24
I4099
sg25
g26
((dp5221
I00
I4095
sI01
I4
stp5222
Rp5223
sg30
I2
sg31
F4100.0
sbs(g8
Vcontains(shift)
p5224
tp5225
g0
(g19
g2
Ntp5226
Rp5227
(dp5228
g23
F0.5
sg24
I29752
sg25
g26
((dp5229
I00
I29658
sI01
I94
stp5230
Rp5231
sg30
I2
sg31
F29753.0
sbs(g13
Vcontains(hike)
p5232
tp5233
g0
(g19
g2
Ntp5234
Rp5235
(dp5236
g23
F0.5
sg24
I39554
sg25
g26
((dp5237
I00
I39554
stp5238
Rp5239
sg30
I2
sg31
F39555.0
sbs(g10
Vcontains(canteen)
p5240
tp5241
g0
(g19
g2
Ntp5242
Rp5243
(dp5244
g23
F0.5
sg24
I9294
sg25
g26
((dp5245
I00
I9292
sI01
I2
stp5246
Rp5247
sg30
I2
sg31
F9295.0
sbs(g12
Vcontains(facil)
p5248
tp5249
g0
(g19
g2
Ntp5250
Rp5251
(dp5252
g23
F0.5
sg24
I13347
sg25
g26
((dp5253
I00
I13316
sI01
I31
stp5254
Rp5255
sg30
I2
sg31
F13348.0
sbs(g10
Vcontains(mentor)
p5256
tp5257
g0
(g19
g2
Ntp5258
Rp5259
(dp5260
g23
F0.5
sg24
I9294
sg25
g26
((dp5261
I00
I9289
sI01
I5
stp5262
Rp5263
sg30
I2
sg31
F9295.0
sbs(g10
Vcontains(knowledg)
p5264
tp5265
g0
(g19
g2
Ntp5266
Rp5267
(dp5268
g23
F0.5
sg24
I9294
sg25
g26
((dp5269
I00
I9271
sI01
I23
stp5270
Rp5271
sg30
I2
sg31
F9295.0
sbs(g12
Vcontains(execut)
p5272
tp5273
g0
(g19
g2
Ntp5274
Rp5275
(dp5276
g23
F0.5
sg24
I13347
sg25
g26
((dp5277
I00
I13329
sI01
I18
stp5278
Rp5279
sg30
I2
sg31
F13348.0
sbs(g8
Vcontains(amen)
p5280
tp5281
g0
(g19
g2
Ntp5282
Rp5283
(dp5284
g23
F0.5
sg24
I29752
sg25
g26
((dp5285
I00
I29751
sI01
I1
stp5286
Rp5287
sg30
I2
sg31
F29753.0
sbs(g9
Vcontains(technolog)
p5288
tp5289
g0
(g19
g2
Ntp5290
Rp5291
(dp5292
g23
F0.5
sg24
I62008
sg25
g26
((dp5293
I00
I61597
sI01
I411
stp5294
Rp5295
sg30
I2
sg31
F62009.0
sbs(g11
Vcontains(job/work)
p5296
tp5297
g0
(g19
g2
Ntp5298
Rp5299
(dp5300
g23
F0.5
sg24
I4099
sg25
g26
((dp5301
I00
I4099
stp5302
Rp5303
sg30
I1
sg31
F4099.5
sbs(g13
Vcontains(staff)
p5304
tp5305
g0
(g19
g2
Ntp5306
Rp5307
(dp5308
g23
F0.5
sg24
I39554
sg25
g26
((dp5309
I00
I39554
stp5310
Rp5311
sg30
I2
sg31
F39555.0
sbs(g8
Vcontains(grow)
p5312
tp5313
g0
(g19
g2
Ntp5314
Rp5315
(dp5316
g23
F0.5
sg24
I29752
sg25
g26
((dp5317
I00
I28314
sI01
I1438
stp5318
Rp5319
sg30
I2
sg31
F29753.0
sbs(g14
Vcontains(career)
p5320
tp5321
g0
(g19
g2
Ntp5322
Rp5323
(dp5324
g23
F0.5
sg24
I11590
sg25
g26
((dp5325
I00
I11491
sI01
I99
stp5326
Rp5327
sg30
I2
sg31
F11591.0
sbs(g9
Vcontains(infrastructur)
p5328
tp5329
g0
(g19
g2
Ntp5330
Rp5331
(dp5332
g23
F0.5
sg24
I62008
sg25
g26
((dp5333
I00
I61968
sI01
I40
stp5334
Rp5335
sg30
I2
sg31
F62009.0
sbs(g9
Vcontains(work/lif)
p5336
tp5337
g0
(g19
g2
Ntp5338
Rp5339
(dp5340
g23
F0.5
sg24
I62008
sg25
g26
((dp5341
I00
I62008
stp5342
Rp5343
sg30
I1
sg31
F62008.5
sbs(g11
Vcontains(snack)
p5344
tp5345
g0
(g19
g2
Ntp5346
Rp5347
(dp5348
g23
F0.5
sg24
I4099
sg25
g26
((dp5349
I00
I4042
sI01
I57
stp5350
Rp5351
sg30
I2
sg31
F4100.0
sbs(g10
Vcontains(secur)
p5352
tp5353
g0
(g19
g2
Ntp5354
Rp5355
(dp5356
g23
F0.5
sg24
I9294
sg25
g26
((dp5357
I00
I8230
sI01
I1064
stp5358
Rp5359
sg30
I2
sg31
F9295.0
sbs(g8
Vcontains(snack)
p5360
tp5361
g0
(g19
g2
Ntp5362
Rp5363
(dp5364
g23
F0.5
sg24
I29752
sg25
g26
((dp5365
I00
I29749
sI01
I3
stp5366
Rp5367
sg30
I2
sg31
F29753.0
sbs(g8
Vcontains(job/work)
p5368
tp5369
g0
(g19
g2
Ntp5370
Rp5371
(dp5372
g23
F0.5
sg24
I29752
sg25
g26
((dp5373
I00
I29752
stp5374
Rp5375
sg30
I1
sg31
F29752.5
sbs(g12
Vcontains(increment)
p5376
tp5377
g0
(g19
g2
Ntp5378
Rp5379
(dp5380
g23
F0.5
sg24
I13347
sg25
g26
((dp5381
I00
I13345
sI01
I2
stp5382
Rp5383
sg30
I2
sg31
F13348.0
sbs(g14
Vcontains(system)
p5384
tp5385
g0
(g19
g2
Ntp5386
Rp5387
(dp5388
g23
F0.5
sg24
I11590
sg25
g26
((dp5389
I00
I11554
sI01
I36
stp5390
Rp5391
sg30
I2
sg31
F11591.0
sbs(g14
Vcontains(facil)
p5392
tp5393
g0
(g19
g2
Ntp5394
Rp5395
(dp5396
g23
F0.5
sg24
I11590
sg25
g26
((dp5397
I00
I11572
sI01
I18
stp5398
Rp5399
sg30
I2
sg31
F11591.0
sbs(g12
Vcontains(knowledg)
p5400
tp5401
g0
(g19
g2
Ntp5402
Rp5403
(dp5404
g23
F0.5
sg24
I13347
sg25
g26
((dp5405
I00
I13310
sI01
I37
stp5406
Rp5407
sg30
I2
sg31
F13348.0
sbs(g10
Vcontains(execut)
p5408
tp5409
g0
(g19
g2
Ntp5410
Rp5411
(dp5412
g23
F0.5
sg24
I9294
sg25
g26
((dp5413
I00
I9272
sI01
I22
stp5414
Rp5415
sg30
I2
sg31
F9295.0
sbs(g14
Vcontains(enjoy)
p5416
tp5417
g0
(g19
g2
Ntp5418
Rp5419
(dp5420
g23
F0.5
sg24
I11590
sg25
g26
((dp5421
I00
I11244
sI01
I346
stp5422
Rp5423
sg30
I2
sg31
F11591.0
sbs(g13
Vcontains(gain)
p5424
tp5425
g0
(g19
g2
Ntp5426
Rp5427
(dp5428
g23
F0.5
sg24
I39554
sg25
g26
((dp5429
I00
I39554
stp5430
Rp5431
sg30
I2
sg31
F39555.0
sbs(g9
Vcontains(knowledg)
p5432
tp5433
g0
(g19
g2
Ntp5434
Rp5435
(dp5436
g23
F0.5
sg24
I62008
sg25
g26
((dp5437
I00
I61732
sI01
I276
stp5438
Rp5439
sg30
I2
sg31
F62009.0
sbs(g9
Vcontains(natur)
p5440
tp5441
g0
(g19
g2
Ntp5442
Rp5443
(dp5444
g23
F0.5
sg24
I62008
sg25
g26
((dp5445
I00
I61946
sI01
I62
stp5446
Rp5447
sg30
I2
sg31
F62009.0
sbs(g12
Vcontains(salari)
p5448
tp5449
g0
(g19
g2
Ntp5450
Rp5451
(dp5452
g23
F0.5
sg24
I13347
sg25
g26
((dp5453
I00
I13276
sI01
I71
stp5454
Rp5455
sg30
I2
sg31
F13348.0
sbs(g10
Vcontains(hard-work)
p5456
tp5457
g0
(g19
g2
Ntp5458
Rp5459
(dp5460
g23
F0.5
sg24
I9294
sg25
g26
((dp5461
I00
I9294
stp5462
Rp5463
sg30
I1
sg31
F9294.5
sbs(g11
Vcontains(manag)
p5464
tp5465
g0
(g19
g2
Ntp5466
Rp5467
(dp5468
g23
F0.5
sg24
I4099
sg25
g26
((dp5469
I00
I3669
sI01
I430
stp5470
Rp5471
sg30
I2
sg31
F4100.0
sbs(g10
Vcontains(amen)
p5472
tp5473
g0
(g19
g2
Ntp5474
Rp5475
(dp5476
g23
F0.5
sg24
I9294
sg25
g26
((dp5477
I00
I9293
sI01
I1
stp5478
Rp5479
sg30
I2
sg31
F9295.0
sbs(g13
Vcontains(supervisor)
p5480
tp5481
g0
(g19
g2
Ntp5482
Rp5483
(dp5484
g23
F0.5
sg24
I39554
sg25
g26
((dp5485
I00
I39554
stp5486
Rp5487
sg30
I2
sg31
F39555.0
sbs(g13
Vcontains(fresher)
p5488
tp5489
g0
(g19
g2
Ntp5490
Rp5491
(dp5492
g23
F0.5
sg24
I39554
sg25
g26
((dp5493
I00
I39554
stp5494
Rp5495
sg30
I2
sg31
F39555.0
sbs(g8
Vcontains(exposur)
p5496
tp5497
g0
(g19
g2
Ntp5498
Rp5499
(dp5500
g23
F0.5
sg24
I29752
sg25
g26
((dp5501
I00
I29310
sI01
I442
stp5502
Rp5503
sg30
I2
sg31
F29753.0
sbs(g12
Vcontains(cab)
p5504
tp5505
g0
(g19
g2
Ntp5506
Rp5507
(dp5508
g23
F0.5
sg24
I13347
sg25
g26
((dp5509
I00
I13343
sI01
I4
stp5510
Rp5511
sg30
I2
sg31
F13348.0
sbs(g10
Vcontains(shift)
p5512
tp5513
g0
(g19
g2
Ntp5514
Rp5515
(dp5516
g23
F0.5
sg24
I9294
sg25
g26
((dp5517
I00
I9239
sI01
I55
stp5518
Rp5519
sg30
I2
sg31
F9295.0
sbs(g11
Vcontains(breakfast)
p5520
tp5521
g0
(g19
g2
Ntp5522
Rp5523
(dp5524
g23
F0.5
sg24
I4099
sg25
g26
((dp5525
I00
I4073
sI01
I26
stp5526
Rp5527
sg30
I2
sg31
F4100.0
sbs(g9
Vcontains(atmospher)
p5528
tp5529
g0
(g19
g2
Ntp5530
Rp5531
(dp5532
g23
F0.5
sg24
I62008
sg25
g26
((dp5533
I00
I61756
sI01
I252
stp5534
Rp5535
sg30
I2
sg31
F62009.0
sbs(g8
Vcontains(gener)
p5536
tp5537
g0
(g19
g2
Ntp5538
Rp5539
(dp5540
g23
F0.5
sg24
I29752
sg25
g26
((dp5541
I00
I29699
sI01
I53
stp5542
Rp5543
sg30
I2
sg31
F29753.0
sbs(g10
Vcontains(job/lif)
p5544
tp5545
g0
(g19
g2
Ntp5546
Rp5547
(dp5548
g23
F0.5
sg24
I9294
sg25
g26
((dp5549
I00
I9294
stp5550
Rp5551
sg30
I1
sg31
F9294.5
sbs(g14
Vcontains(incent)
p5552
tp5553
g0
(g19
g2
Ntp5554
Rp5555
(dp5556
g23
F0.5
sg24
I11590
sg25
g26
((dp5557
I00
I11585
sI01
I5
stp5558
Rp5559
sg30
I2
sg31
F11591.0
sbs(g13
Vcontains(drink)
p5560
tp5561
g0
(g19
g2
Ntp5562
Rp5563
(dp5564
g23
F0.5
sg24
I39554
sg25
g26
((dp5565
I00
I39554
stp5566
Rp5567
sg30
I2
sg31
F39555.0
sbs(g13
Vcontains(innov)
p5568
tp5569
g0
(g19
g2
Ntp5570
Rp5571
(dp5572
g23
F0.5
sg24
I39554
sg25
g26
((dp5573
I00
I39451
sI01
I103
stp5574
Rp5575
sg30
I2
sg31
F39555.0
sbs(g11
Vcontains(peer)
p5576
tp5577
g0
(g19
g2
Ntp5578
Rp5579
(dp5580
g23
F0.5
sg24
I4099
sg25
g26
((dp5581
I00
I4088
sI01
I11
stp5582
Rp5583
sg30
I2
sg31
F4100.0
sbs(g8
Vcontains(reward)
p5584
tp5585
g0
(g19
g2
Ntp5586
Rp5587
(dp5588
g23
F0.5
sg24
I29752
sg25
g26
((dp5589
I00
I29697
sI01
I55
stp5590
Rp5591
sg30
I2
sg31
F29753.0
sbs(g8
Vcontains(cab)
p5592
tp5593
g0
(g19
g2
Ntp5594
Rp5595
(dp5596
g23
F0.5
sg24
I29752
sg25
g26
((dp5597
I00
I29746
sI01
I6
stp5598
Rp5599
sg30
I2
sg31
F29753.0
sbs(g10
Vcontains(member)
p5600
tp5601
g0
(g19
g2
Ntp5602
Rp5603
(dp5604
g23
F0.5
sg24
I9294
sg25
g26
((dp5605
I00
I9236
sI01
I58
stp5606
Rp5607
sg30
I2
sg31
F9295.0
sbs(g9
Vcontains(futur)
p5608
tp5609
g0
(g19
g2
Ntp5610
Rp5611
(dp5612
g23
F0.5
sg24
I62008
sg25
g26
((dp5613
I00
I61940
sI01
I68
stp5614
Rp5615
sg30
I2
sg31
F62009.0
sbs(g10
Vcontains(supervisor)
p5616
tp5617
g0
(g19
g2
Ntp5618
Rp5619
(dp5620
g23
F0.5
sg24
I9294
sg25
g26
((dp5621
I00
I9286
sI01
I8
stp5622
Rp5623
sg30
I2
sg31
F9295.0
sbs(g13
Vcontains(upward)
p5624
tp5625
g0
(g19
g2
Ntp5626
Rp5627
(dp5628
g23
F0.5
sg24
I39554
sg25
g26
((dp5629
I00
I39554
stp5630
Rp5631
sg30
I2
sg31
F39555.0
sbs(g10
Vcontains(lovabl)
p5632
tp5633
g0
(g19
g2
Ntp5634
Rp5635
(dp5636
g23
F0.5
sg24
I9294
sg25
g26
((dp5637
I00
I9294
stp5638
Rp5639
sg30
I2
sg31
F9295.0
sbs(g9
Vcontains(time)
p5640
tp5641
g0
(g19
g2
Ntp5642
Rp5643
(dp5644
g23
F0.5
sg24
I62008
sg25
g26
((dp5645
I00
I59511
sI01
I2497
stp5646
Rp5647
sg30
I2
sg31
F62009.0
sbs(g8
Vcontains(employ)
p5648
tp5649
g0
(g19
g2
Ntp5650
Rp5651
(dp5652
g23
F0.5
sg24
I29752
sg25
g26
((dp5653
I00
I29084
sI01
I668
stp5654
Rp5655
sg30
I2
sg31
F29753.0
sbs(g13
Vcontains(motiv)
p5656
tp5657
g0
(g19
g2
Ntp5658
Rp5659
(dp5660
g23
F0.5
sg24
I39554
sg25
g26
((dp5661
I00
I39554
stp5662
Rp5663
sg30
I2
sg31
F39555.0
sbs(g13
Vcontains(certif)
p5664
tp5665
g0
(g19
g2
Ntp5666
Rp5667
(dp5668
g23
F0.5
sg24
I39554
sg25
g26
((dp5669
I00
I39554
stp5670
Rp5671
sg30
I2
sg31
F39555.0
sbs(g13
Vcontains(confid)
p5672
tp5673
g0
(g19
g2
Ntp5674
Rp5675
(dp5676
g23
F0.5
sg24
I39554
sg25
g26
((dp5677
I00
I39554
stp5678
Rp5679
sg30
I2
sg31
F39555.0
sbs(g10
Vcontains(technolog)
p5680
tp5681
g0
(g19
g2
Ntp5682
Rp5683
(dp5684
g23
F0.5
sg24
I9294
sg25
g26
((dp5685
I00
I9230
sI01
I64
stp5686
Rp5687
sg30
I2
sg31
F9295.0
sbs(g11
Vcontains(supervisor)
p5688
tp5689
g0
(g19
g2
Ntp5690
Rp5691
(dp5692
g23
F0.5
sg24
I4099
sg25
g26
((dp5693
I00
I4093
sI01
I6
stp5694
Rp5695
sg30
I2
sg31
F4100.0
sbs(g13
Vcontains(infrastructur)
p5696
tp5697
g0
(g19
g2
Ntp5698
Rp5699
(dp5700
g23
F0.5
sg24
I39554
sg25
g26
((dp5701
I00
I39554
stp5702
Rp5703
sg30
I2
sg31
F39555.0
sbs(g8
Vcontains(teach)
p5704
tp5705
g0
(g19
g2
Ntp5706
Rp5707
(dp5708
g23
F0.5
sg24
I29752
sg25
g26
((dp5709
I00
I29499
sI01
I253
stp5710
Rp5711
sg30
I2
sg31
F29753.0
sbs(g8
Vcontains(stabil)
p5712
tp5713
g0
(g19
g2
Ntp5714
Rp5715
(dp5716
g23
F0.5
sg24
I29752
sg25
g26
((dp5717
I00
I29749
sI01
I3
stp5718
Rp5719
sg30
I2
sg31
F29753.0
sbs(g14
Vcontains(campu)
p5720
tp5721
g0
(g19
g2
Ntp5722
Rp5723
(dp5724
g23
F0.5
sg24
I11590
sg25
g26
((dp5725
I00
I11586
sI01
I4
stp5726
Rp5727
sg30
I2
sg31
F11591.0
sbs(g12
Vcontains(member)
p5728
tp5729
g0
(g19
g2
Ntp5730
Rp5731
(dp5732
g23
F0.5
sg24
I13347
sg25
g26
((dp5733
I00
I13246
sI01
I101
stp5734
Rp5735
sg30
I2
sg31
F13348.0
sbs(g12
Vcontains(fresher)
p5736
tp5737
g0
(g19
g2
Ntp5738
Rp5739
(dp5740
g23
F0.5
sg24
I13347
sg25
g26
((dp5741
I00
I13334
sI01
I13
stp5742
Rp5743
sg30
I2
sg31
F13348.0
sbs(g10
Vcontains(futur)
p5744
tp5745
g0
(g19
g2
Ntp5746
Rp5747
(dp5748
g23
F0.5
sg24
I9294
sg25
g26
((dp5749
I00
I9278
sI01
I16
stp5750
Rp5751
sg30
I2
sg31
F9295.0
sbs(g13
Vcontains(gener)
p5752
tp5753
g0
(g19
g2
Ntp5754
Rp5755
(dp5756
g23
F0.5
sg24
I39554
sg25
g26
((dp5757
I00
I39554
stp5758
Rp5759
sg30
I2
sg31
F39555.0
sbs(g14
Vcontains(upward)
p5760
tp5761
g0
(g19
g2
Ntp5762
Rp5763
(dp5764
g23
F0.5
sg24
I11590
sg25
g26
((dp5765
I00
I11588
sI01
I2
stp5766
Rp5767
sg30
I2
sg31
F11591.0
sbs(g10
Vcontains(cultur)
p5768
tp5769
g0
(g19
g2
Ntp5770
Rp5771
(dp5772
g23
F0.5
sg24
I9294
sg25
g26
((dp5773
I00
I9161
sI01
I133
stp5774
Rp5775
sg30
I2
sg31
F9295.0
sbs(g12
Vcontains(shift)
p5776
tp5777
g0
(g19
g2
Ntp5778
Rp5779
(dp5780
g23
F0.5
sg24
I13347
sg25
g26
((dp5781
I00
I11686
sI01
I1661
stp5782
Rp5783
sg30
I2
sg31
F13348.0
sbs(g14
Vcontains(stress)
p5784
tp5785
g0
(g19
g2
Ntp5786
Rp5787
(dp5788
g23
F0.5
sg24
I11590
sg25
g26
((dp5789
I00
I11567
sI01
I23
stp5790
Rp5791
sg30
I2
sg31
F11591.0
sbs(g10
Vcontains(paid)
p5792
tp5793
g0
(g19
g2
Ntp5794
Rp5795
(dp5796
g23
F0.5
sg24
I9294
sg25
g26
((dp5797
I00
I8829
sI01
I465
stp5798
Rp5799
sg30
I2
sg31
F9295.0
sbs(g10
Vcontains(motiv)
p5800
tp5801
g0
(g19
g2
Ntp5802
Rp5803
(dp5804
g23
F0.5
sg24
I9294
sg25
g26
((dp5805
I00
I9278
sI01
I16
stp5806
Rp5807
sg30
I2
sg31
F9295.0
sbs(g9
Vcontains(career)
p5808
tp5809
g0
(g19
g2
Ntp5810
Rp5811
(dp5812
g23
F0.5
sg24
I62008
sg25
g26
((dp5813
I00
I61655
sI01
I353
stp5814
Rp5815
sg30
I2
sg31
F62009.0
sbs(g10
Vcontains(skill)
p5816
tp5817
g0
(g19
g2
Ntp5818
Rp5819
(dp5820
g23
F0.5
sg24
I9294
sg25
g26
((dp5821
I00
I9239
sI01
I55
stp5822
Rp5823
sg30
I2
sg31
F9295.0
sbs(g8
Vcontains(leadership)
p5824
tp5825
g0
(g19
g2
Ntp5826
Rp5827
(dp5828
g23
F0.5
sg24
I29752
sg25
g26
((dp5829
I00
I29551
sI01
I201
stp5830
Rp5831
sg30
I2
sg31
F29753.0
sbs(g11
Vcontains(member)
p5832
tp5833
g0
(g19
g2
Ntp5834
Rp5835
(dp5836
g23
F0.5
sg24
I4099
sg25
g26
((dp5837
I00
I4053
sI01
I46
stp5838
Rp5839
sg30
I2
sg31
F4100.0
sbs(g9
Vcontains(creativ)
p5840
tp5841
g0
(g19
g2
Ntp5842
Rp5843
(dp5844
g23
F0.5
sg24
I62008
sg25
g26
((dp5845
I00
I61959
sI01
I49
stp5846
Rp5847
sg30
I2
sg31
F62009.0
sbs(g8
Vcontains(explor)
p5848
tp5849
g0
(g19
g2
Ntp5850
Rp5851
(dp5852
g23
F0.5
sg24
I29752
sg25
g26
((dp5853
I00
I29650
sI01
I102
stp5854
Rp5855
sg30
I2
sg31
F29753.0
sbs(g9
Vcontains(seek)
p5856
tp5857
g0
(g19
g2
Ntp5858
Rp5859
(dp5860
g23
F0.5
sg24
I62008
sg25
g26
((dp5861
I00
I61984
sI01
I24
stp5862
Rp5863
sg30
I2
sg31
F62009.0
sbs(g8
Vcontains(paid)
p5864
tp5865
g0
(g19
g2
Ntp5866
Rp5867
(dp5868
g23
F0.5
sg24
I29752
sg25
g26
((dp5869
I00
I29730
sI01
I22
stp5870
Rp5871
sg30
I2
sg31
F29753.0
sbs(g14
Vcontains(cultur)
p5872
tp5873
g0
(g19
g2
Ntp5874
Rp5875
(dp5876
g23
F0.5
sg24
I11590
sg25
g26
((dp5877
I00
I7811
sI01
I3779
stp5878
Rp5879
sg30
I2
sg31
F11591.0
sbs(g9
Vcontains(life)
p5880
tp5881
g0
(g19
g2
Ntp5882
Rp5883
(dp5884
g23
F0.5
sg24
I62008
sg25
g26
((dp5885
I00
I59789
sI01
I2219
stp5886
Rp5887
sg30
I2
sg31
F62009.0
sbs(g13
Vcontains(enterpris)
p5888
tp5889
g0
(g19
g2
Ntp5890
Rp5891
(dp5892
g23
F0.5
sg24
I39554
sg25
g26
((dp5893
I00
I39554
stp5894
Rp5895
sg30
I2
sg31
F39555.0
sbs(g11
Vcontains(transport)
p5896
tp5897
g0
(g19
g2
Ntp5898
Rp5899
(dp5900
g23
F0.5
sg24
I4099
sg25
g26
((dp5901
I00
I3974
sI01
I125
stp5902
Rp5903
sg30
I2
sg31
F4100.0
sbs(g14
Vcontains(remuner)
p5904
tp5905
g0
(g19
g2
Ntp5906
Rp5907
(dp5908
g23
F0.5
sg24
I11590
sg25
g26
((dp5909
I00
I11590
stp5910
Rp5911
sg30
I2
sg31
F11591.0
sbs(g13
Vcontains(futur)
p5912
tp5913
g0
(g19
g2
Ntp5914
Rp5915
(dp5916
g23
F0.5
sg24
I39554
sg25
g26
((dp5917
I00
I39554
stp5918
Rp5919
sg30
I2
sg31
F39555.0
sbs(g11
Vcontains(motiv)
p5920
tp5921
g0
(g19
g2
Ntp5922
Rp5923
(dp5924
g23
F0.5
sg24
I4099
sg25
g26
((dp5925
I00
I4097
sI01
I2
stp5926
Rp5927
sg30
I2
sg31
F4100.0
sbs(g14
Vcontains(employ)
p5928
tp5929
g0
(g19
g2
Ntp5930
Rp5931
(dp5932
g23
F0.5
sg24
I11590
sg25
g26
((dp5933
I00
I11557
sI01
I33
stp5934
Rp5935
sg30
I2
sg31
F11591.0
sbs(g10
Vcontains(stabil)
p5936
tp5937
g0
(g19
g2
Ntp5938
Rp5939
(dp5940
g23
F0.5
sg24
I9294
sg25
g26
((dp5941
I00
I9242
sI01
I52
stp5942
Rp5943
sg30
I2
sg31
F9295.0
sbs(g10
Vcontains(incent)
p5944
tp5945
g0
(g19
g2
Ntp5946
Rp5947
(dp5948
g23
F0.5
sg24
I9294
sg25
g26
((dp5949
I00
I9150
sI01
I144
stp5950
Rp5951
sg30
I2
sg31
F9295.0
sbs(g13
Vcontains(flexibl)
p5952
tp5953
g0
(g19
g2
Ntp5954
Rp5955
(dp5956
g23
F0.5
sg24
I39554
sg25
g26
((dp5957
I00
I39554
stp5958
Rp5959
sg30
I2
sg31
F39555.0
sbs(g9
Vcontains(promot)
p5960
tp5961
g0
(g19
g2
Ntp5962
Rp5963
(dp5964
g23
F0.5
sg24
I62008
sg25
g26
((dp5965
I00
I61736
sI01
I272
stp5966
Rp5967
sg30
I2
sg31
F62009.0
sbs(g13
Vcontains(cafeteria)
p5968
tp5969
g0
(g19
g2
Ntp5970
Rp5971
(dp5972
g23
F0.5
sg24
I39554
sg25
g26
((dp5973
I00
I39554
stp5974
Rp5975
sg30
I2
sg31
F39555.0
sbs(g13
Vcontains(incent)
p5976
tp5977
g0
(g19
g2
Ntp5978
Rp5979
(dp5980
g23
F0.5
sg24
I39554
sg25
g26
((dp5981
I00
I39554
stp5982
Rp5983
sg30
I2
sg31
F39555.0
sbs(g11
Vcontains(coffe)
p5984
tp5985
g0
(g19
g2
Ntp5986
Rp5987
(dp5988
g23
F0.5
sg24
I4099
sg25
g26
((dp5989
I00
I4018
sI01
I81
stp5990
Rp5991
sg30
I2
sg31
F4100.0
sbs(g13
Vcontains(platform)
p5992
tp5993
g0
(g19
g2
Ntp5994
Rp5995
(dp5996
g23
F0.5
sg24
I39554
sg25
g26
((dp5997
I00
I39554
stp5998
Rp5999
sg30
I2
sg31
F39555.0
sbs(g12
Vcontains(strive)
p6000
tp6001
g0
(g19
g2
Ntp6002
Rp6003
(dp6004
g23
F0.5
sg24
I13347
sg25
g26
((dp6005
I00
I13343
sI01
I4
stp6006
Rp6007
sg30
I2
sg31
F13348.0
sbs(g14
Vcontains(seek)
p6008
tp6009
g0
(g19
g2
Ntp6010
Rp6011
(dp6012
g23
F0.5
sg24
I11590
sg25
g26
((dp6013
I00
I11583
sI01
I7
stp6014
Rp6015
sg30
I2
sg31
F11591.0
sbs(g14
Vcontains(freedom)
p6016
tp6017
g0
(g19
g2
Ntp6018
Rp6019
(dp6020
g23
F0.5
sg24
I11590
sg25
g26
((dp6021
I00
I11576
sI01
I14
stp6022
Rp6023
sg30
I2
sg31
F11591.0
sbs(g11
Vcontains(lead)
p6024
tp6025
g0
(g19
g2
Ntp6026
Rp6027
(dp6028
g23
F0.5
sg24
I4099
sg25
g26
((dp6029
I00
I4075
sI01
I24
stp6030
Rp6031
sg30
I2
sg31
F4100.0
sbs(g12
Vcontains(experi)
p6032
tp6033
g0
(g19
g2
Ntp6034
Rp6035
(dp6036
g23
F0.5
sg24
I13347
sg25
g26
((dp6037
I00
I13127
sI01
I220
stp6038
Rp6039
sg30
I2
sg31
F13348.0
sbs(g8
Vcontains(manag)
p6040
tp6041
g0
(g19
g2
Ntp6042
Rp6043
(dp6044
g23
F0.5
sg24
I29752
sg25
g26
((dp6045
I00
I27697
sI01
I2055
stp6046
Rp6047
sg30
I2
sg31
F29753.0
sbs(g9
Vcontains(cultur)
p6048
tp6049
g0
(g19
g2
Ntp6050
Rp6051
(dp6052
g23
F0.5
sg24
I62008
sg25
g26
((dp6053
I00
I59797
sI01
I2211
stp6054
Rp6055
sg30
I2
sg31
F62009.0
sbs(g12
Vcontains(gener)
p6056
tp6057
g0
(g19
g2
Ntp6058
Rp6059
(dp6060
g23
F0.5
sg24
I13347
sg25
g26
((dp6061
I00
I13311
sI01
I36
stp6062
Rp6063
sg30
I2
sg31
F13348.0
sbs(g14
Vcontains(paid)
p6064
tp6065
g0
(g19
g2
Ntp6066
Rp6067
(dp6068
g23
F0.5
sg24
I11590
sg25
g26
((dp6069
I00
I11578
sI01
I12
stp6070
Rp6071
sg30
I2
sg31
F11591.0
sbs(g12
Vcontains(opportun)
p6072
tp6073
g0
(g19
g2
Ntp6074
Rp6075
(dp6076
g23
F0.5
sg24
I13347
sg25
g26
((dp6077
I00
I13198
sI01
I149
stp6078
Rp6079
sg30
I2
sg31
F13348.0
sbs(g13
Vcontains(mobil)
p6080
tp6081
g0
(g19
g2
Ntp6082
Rp6083
(dp6084
g23
F0.5
sg24
I39554
sg25
g26
((dp6085
I00
I39554
stp6086
Rp6087
sg30
I2
sg31
F39555.0
sbs(g12
Vcontains(compet)
p6088
tp6089
g0
(g19
g2
Ntp6090
Rp6091
(dp6092
g23
F0.5
sg24
I13347
sg25
g26
((dp6093
I00
I13342
sI01
I5
stp6094
Rp6095
sg30
I2
sg31
F13348.0
sbs(g10
Vcontains(food)
p6096
tp6097
g0
(g19
g2
Ntp6098
Rp6099
(dp6100
g23
F0.5
sg24
I9294
sg25
g26
((dp6101
I00
I9279
sI01
I15
stp6102
Rp6103
sg30
I2
sg31
F9295.0
sbs(g14
Vcontains(meal)
p6104
tp6105
g0
(g19
g2
Ntp6106
Rp6107
(dp6108
g23
F0.5
sg24
I11590
sg25
g26
((dp6109
I00
I11588
sI01
I2
stp6110
Rp6111
sg30
I2
sg31
F11591.0
sbs(g12
Vcontains(seek)
p6112
tp6113
g0
(g19
g2
Ntp6114
Rp6115
(dp6116
g23
F0.5
sg24
I13347
sg25
g26
((dp6117
I00
I13337
sI01
I10
stp6118
Rp6119
sg30
I2
sg31
F13348.0
sbs(g13
Vcontains(recogn)
p6120
tp6121
g0
(g19
g2
Ntp6122
Rp6123
(dp6124
g23
F0.5
sg24
I39554
sg25
g26
((dp6125
I00
I39554
stp6126
Rp6127
sg30
I2
sg31
F39555.0
sbs(g11
Vcontains(competit)
p6128
tp6129
g0
(g19
g2
Ntp6130
Rp6131
(dp6132
g23
F0.5
sg24
I4099
sg25
g26
((dp6133
I00
I4090
sI01
I9
stp6134
Rp6135
sg30
I2
sg31
F4100.0
sbs(g13
Vcontains(hard-work)
p6136
tp6137
g0
(g19
g2
Ntp6138
Rp6139
(dp6140
g23
F0.5
sg24
I39554
sg25
g26
((dp6141
I00
I39554
stp6142
Rp6143
sg30
I1
sg31
F39554.5
sbs(g13
Vcontains(system)
p6144
tp6145
g0
(g19
g2
Ntp6146
Rp6147
(dp6148
g23
F0.5
sg24
I39554
sg25
g26
((dp6149
I00
I39554
stp6150
Rp6151
sg30
I2
sg31
F39555.0
sbs(g14
Vcontains(talent)
p6152
tp6153
g0
(g19
g2
Ntp6154
Rp6155
(dp6156
g23
F0.5
sg24
I11590
sg25
g26
((dp6157
I00
I11558
sI01
I32
stp6158
Rp6159
sg30
I2
sg31
F11591.0
sbs(g10
Vcontains(recogn)
p6160
tp6161
g0
(g19
g2
Ntp6162
Rp6163
(dp6164
g23
F0.5
sg24
I9294
sg25
g26
((dp6165
I00
I9285
sI01
I9
stp6166
Rp6167
sg30
I2
sg31
F9295.0
sbs(g13
Vcontains(facil)
p6168
tp6169
g0
(g19
g2
Ntp6170
Rp6171
(dp6172
g23
F0.5
sg24
I39554
sg25
g26
((dp6173
I00
I39554
stp6174
Rp6175
sg30
I2
sg31
F39555.0
sbs(g8
Vcontains(enjoy)
p6176
tp6177
g0
(g19
g2
Ntp6178
Rp6179
(dp6180
g23
F0.5
sg24
I29752
sg25
g26
((dp6181
I00
I29006
sI01
I746
stp6182
Rp6183
sg30
I2
sg31
F29753.0
sbs(g14
Vcontains(futur)
p6184
tp6185
g0
(g19
g2
Ntp6186
Rp6187
(dp6188
g23
F0.5
sg24
I11590
sg25
g26
((dp6189
I00
I11569
sI01
I21
stp6190
Rp6191
sg30
I2
sg31
F11591.0
sbs(g14
Vcontains(knowledg)
p6192
tp6193
g0
(g19
g2
Ntp6194
Rp6195
(dp6196
g23
F0.5
sg24
I11590
sg25
g26
((dp6197
I00
I11510
sI01
I80
stp6198
Rp6199
sg30
I2
sg31
F11591.0
sbs(g12
Vcontains(educ)
p6200
tp6201
g0
(g19
g2
Ntp6202
Rp6203
(dp6204
g23
F0.5
sg24
I13347
sg25
g26
((dp6205
I00
I13336
sI01
I11
stp6206
Rp6207
sg30
I2
sg31
F13348.0
sbs(g14
Vcontains(option)
p6208
tp6209
g0
(g19
g2
Ntp6210
Rp6211
(dp6212
g23
F0.5
sg24
I11590
sg25
g26
((dp6213
I00
I11575
sI01
I15
stp6214
Rp6215
sg30
I2
sg31
F11591.0
sbs(g8
Vcontains(campu)
p6216
tp6217
g0
(g19
g2
Ntp6218
Rp6219
(dp6220
g23
F0.5
sg24
I29752
sg25
g26
((dp6221
I00
I29740
sI01
I12
stp6222
Rp6223
sg30
I2
sg31
F29753.0
sbs(g8
Vcontains(strive)
p6224
tp6225
g0
(g19
g2
Ntp6226
Rp6227
(dp6228
g23
F0.5
sg24
I29752
sg25
g26
((dp6229
I00
I29738
sI01
I14
stp6230
Rp6231
sg30
I2
sg31
F29753.0
sbs(g14
Vcontains(stabil)
p6232
tp6233
g0
(g19
g2
Ntp6234
Rp6235
(dp6236
g23
F0.5
sg24
I11590
sg25
g26
((dp6237
I00
I11589
sI01
I1
stp6238
Rp6239
sg30
I2
sg31
F11591.0
sbs(g14
Vcontains(train)
p6240
tp6241
g0
(g19
g2
Ntp6242
Rp6243
(dp6244
g23
F0.5
sg24
I11590
sg25
g26
((dp6245
I00
I11490
sI01
I100
stp6246
Rp6247
sg30
I2
sg31
F11591.0
sbs(g12
Vcontains(friendli)
p6248
tp6249
g0
(g19
g2
Ntp6250
Rp6251
(dp6252
g23
F0.5
sg24
I13347
sg25
g26
((dp6253
I00
I13244
sI01
I103
stp6254
Rp6255
sg30
I2
sg31
F13348.0
sbs(g9
Vcontains(collegu)
p6256
tp6257
g0
(g19
g2
Ntp6258
Rp6259
(dp6260
g23
F0.5
sg24
I62008
sg25
g26
((dp6261
I00
I62008
stp6262
Rp6263
sg30
I1
sg31
F62008.5
sbs(g10
Vcontains(oppurtun)
p6264
tp6265
g0
(g19
g2
Ntp6266
Rp6267
(dp6268
g23
F0.5
sg24
I9294
sg25
g26
((dp6269
I00
I9294
stp6270
Rp6271
sg30
I1
sg31
F9294.5
sbs(g9
Vcontains(cafeteria)
p6272
tp6273
g0
(g19
g2
Ntp6274
Rp6275
(dp6276
g23
F0.5
sg24
I62008
sg25
g26
((dp6277
I00
I62002
sI01
I6
stp6278
Rp6279
sg30
I2
sg31
F62009.0
sbs(g13
Vcontains(challeng)
p6280
tp6281
g0
(g19
g2
Ntp6282
Rp6283
(dp6284
g23
F0.5
sg24
I39554
sg25
g26
((dp6285
I00
I39554
stp6286
Rp6287
sg30
I2
sg31
F39555.0
sbs(g13
Vcontains(snack)
p6288
tp6289
g0
(g19
g2
Ntp6290
Rp6291
(dp6292
g23
F0.5
sg24
I39554
sg25
g26
((dp6293
I00
I39554
stp6294
Rp6295
sg30
I2
sg31
F39555.0
sbs(g14
Vcontains(innov)
p6296
tp6297
g0
(g19
g2
Ntp6298
Rp6299
(dp6300
g23
F0.5
sg24
I11590
sg25
g26
((dp6301
I00
I11551
sI01
I39
stp6302
Rp6303
sg30
I2
sg31
F11591.0
sbs(g10
Vcontains(pay)
p6304
tp6305
g0
(g19
g2
Ntp6306
Rp6307
(dp6308
g23
F0.5
sg24
I9294
sg25
g26
((dp6309
I00
I7176
sI01
I2118
stp6310
Rp6311
sg30
I2
sg31
F9295.0
sbs(g13
Vcontains(stronger)
p6312
tp6313
g0
(g19
g2
Ntp6314
Rp6315
(dp6316
g23
F0.5
sg24
I39554
sg25
g26
((dp6317
I00
I39554
stp6318
Rp6319
sg30
I2
sg31
F39555.0
sbs(g11
Vcontains(technolog)
p6320
tp6321
g0
(g19
g2
Ntp6322
Rp6323
(dp6324
g23
F0.5
sg24
I4099
sg25
g26
((dp6325
I00
I4066
sI01
I33
stp6326
Rp6327
sg30
I2
sg31
F4100.0
sbs(g14
Vcontains(educ)
p6328
tp6329
g0
(g19
g2
Ntp6330
Rp6331
(dp6332
g23
F0.5
sg24
I11590
sg25
g26
((dp6333
I00
I11574
sI01
I16
stp6334
Rp6335
sg30
I2
sg31
F11591.0
sbs(g12
Vcontains(paid)
p6336
tp6337
g0
(g19
g2
Ntp6338
Rp6339
(dp6340
g23
F0.5
sg24
I13347
sg25
g26
((dp6341
I00
I13281
sI01
I66
stp6342
Rp6343
sg30
I2
sg31
F13348.0
sbs(g11
Vcontains(bonu)
p6344
tp6345
g0
(g19
g2
Ntp6346
Rp6347
(dp6348
g23
F0.5
sg24
I4099
sg25
g26
((dp6349
I00
I4097
sI01
I2
stp6350
Rp6351
sg30
I2
sg31
F4100.0
sbs(g9
Vcontains(option)
p6352
tp6353
g0
(g19
g2
Ntp6354
Rp6355
(dp6356
g23
F0.5
sg24
I62008
sg25
g26
((dp6357
I00
I61887
sI01
I121
stp6358
Rp6359
sg30
I2
sg31
F62009.0
sbs(g10
Vcontains(grow)
p6360
tp6361
g0
(g19
g2
Ntp6362
Rp6363
(dp6364
g23
F0.5
sg24
I9294
sg25
g26
((dp6365
I00
I9282
sI01
I12
stp6366
Rp6367
sg30
I2
sg31
F9295.0
sbs(g14
Vcontains(teach)
p6368
tp6369
g0
(g19
g2
Ntp6370
Rp6371
(dp6372
g23
F0.5
sg24
I11590
sg25
g26
((dp6373
I00
I11580
sI01
I10
stp6374
Rp6375
sg30
I2
sg31
F11591.0
sbs(g10
Vcontains(explor)
p6376
tp6377
g0
(g19
g2
Ntp6378
Rp6379
(dp6380
g23
F0.5
sg24
I9294
sg25
g26
((dp6381
I00
I9293
sI01
I1
stp6382
Rp6383
sg30
I2
sg31
F9295.0
sbs(g9
Vcontains(transport)
p6384
tp6385
g0
(g19
g2
Ntp6386
Rp6387
(dp6388
g23
F0.5
sg24
I62008
sg25
g26
((dp6389
I00
I61981
sI01
I27
stp6390
Rp6391
sg30
I2
sg31
F62009.0
sbs(g9
Vcontains(experi)
p6392
tp6393
g0
(g19
g2
Ntp6394
Rp6395
(dp6396
g23
F0.5
sg24
I62008
sg25
g26
((dp6397
I00
I60473
sI01
I1535
stp6398
Rp6399
sg30
I2
sg31
F62009.0
sbs(g13
Vcontains(increment)
p6400
tp6401
g0
(g19
g2
Ntp6402
Rp6403
(dp6404
g23
F0.5
sg24
I39554
sg25
g26
((dp6405
I00
I39554
stp6406
Rp6407
sg30
I2
sg31
F39555.0
sbs(g12
Vcontains(transport)
p6408
tp6409
g0
(g19
g2
Ntp6410
Rp6411
(dp6412
g23
F0.5
sg24
I13347
sg25
g26
((dp6413
I00
I13326
sI01
I21
stp6414
Rp6415
sg30
I2
sg31
F13348.0
sbs(g8
Vcontains(incent)
p6416
tp6417
g0
(g19
g2
Ntp6418
Rp6419
(dp6420
g23
F0.5
sg24
I29752
sg25
g26
((dp6421
I00
I29739
sI01
I13
stp6422
Rp6423
sg30
I2
sg31
F29753.0
sbs(g11
Vcontains(collegu)
p6424
tp6425
g0
(g19
g2
Ntp6426
Rp6427
(dp6428
g23
F0.5
sg24
I4099
sg25
g26
((dp6429
I00
I4099
stp6430
Rp6431
sg30
I1
sg31
F4099.5
sbs(g12
Vcontains(leadership)
p6432
tp6433
g0
(g19
g2
Ntp6434
Rp6435
(dp6436
g23
F0.5
sg24
I13347
sg25
g26
((dp6437
I00
I13328
sI01
I19
stp6438
Rp6439
sg30
I2
sg31
F13348.0
sbs(g9
Vcontains(growth)
p6440
tp6441
g0
(g19
g2
Ntp6442
Rp6443
(dp6444
g23
F0.5
sg24
I62008
sg25
g26
((dp6445
I00
I61815
sI01
I193
stp6446
Rp6447
sg30
I2
sg31
F62009.0
sbs(g9
Vcontains(skill)
p6448
tp6449
g0
(g19
g2
Ntp6450
Rp6451
(dp6452
g23
F0.5
sg24
I62008
sg25
g26
((dp6453
I00
I61158
sI01
I850
stp6454
Rp6455
sg30
I2
sg31
F62009.0
sbs(g13
Vcontains(skill)
p6456
tp6457
g0
(g19
g2
Ntp6458
Rp6459
(dp6460
g23
F0.5
sg24
I39554
sg25
g26
((dp6461
I00
I39554
stp6462
Rp6463
sg30
I2
sg31
F39555.0
sbs(g12
Vcontains(benefit)
p6464
tp6465
g0
(g19
g2
Ntp6466
Rp6467
(dp6468
g23
F0.5
sg24
I13347
sg25
g26
((dp6469
I00
I13198
sI01
I149
stp6470
Rp6471
sg30
I2
sg31
F13348.0
sbs(g14
Vcontains(platform)
p6472
tp6473
g0
(g19
g2
Ntp6474
Rp6475
(dp6476
g23
F0.5
sg24
I11590
sg25
g26
((dp6477
I00
I11296
sI01
I294
stp6478
Rp6479
sg30
I2
sg31
F11591.0
sbs(g13
Vcontains(bonu)
p6480
tp6481
g0
(g19
g2
Ntp6482
Rp6483
(dp6484
g23
F0.5
sg24
I39554
sg25
g26
((dp6485
I00
I39554
stp6486
Rp6487
sg30
I2
sg31
F39555.0
sbs(g13
Vcontains(compens)
p6488
tp6489
g0
(g19
g2
Ntp6490
Rp6491
(dp6492
g23
F0.5
sg24
I39554
sg25
g26
((dp6493
I00
I39554
stp6494
Rp6495
sg30
I2
sg31
F39555.0
sbs(g13
Vcontains(chanc)
p6496
tp6497
g0
(g19
g2
Ntp6498
Rp6499
(dp6500
g23
F0.5
sg24
I39554
sg25
g26
((dp6501
I00
I39554
stp6502
Rp6503
sg30
I2
sg31
F39555.0
sbs(g13
Vcontains(freedom)
p6504
tp6505
g0
(g19
g2
Ntp6506
Rp6507
(dp6508
g23
F0.5
sg24
I39554
sg25
g26
((dp6509
I00
I39554
stp6510
Rp6511
sg30
I2
sg31
F39555.0
sbs(g11
Vcontains(secur)
p6512
tp6513
g0
(g19
g2
Ntp6514
Rp6515
(dp6516
g23
F0.5
sg24
I4099
sg25
g26
((dp6517
I00
I4071
sI01
I28
stp6518
Rp6519
sg30
I2
sg31
F4100.0
sbs(g10
Vcontains(leader)
p6520
tp6521
g0
(g19
g2
Ntp6522
Rp6523
(dp6524
g23
F0.5
sg24
I9294
sg25
g26
((dp6525
I00
I9264
sI01
I30
stp6526
Rp6527
sg30
I2
sg31
F9295.0
sbs(g9
Vcontains(compet)
p6528
tp6529
g0
(g19
g2
Ntp6530
Rp6531
(dp6532
g23
F0.5
sg24
I62008
sg25
g26
((dp6533
I00
I61964
sI01
I44
stp6534
Rp6535
sg30
I2
sg31
F62009.0
sbs(g10
Vcontains(job/work)
p6536
tp6537
g0
(g19
g2
Ntp6538
Rp6539
(dp6540
g23
F0.5
sg24
I9294
sg25
g26
((dp6541
I00
I9294
stp6542
Rp6543
sg30
I1
sg31
F9294.5
sbs(g10
Vcontains(seek)
p6544
tp6545
g0
(g19
g2
Ntp6546
Rp6547
(dp6548
g23
F0.5
sg24
I9294
sg25
g26
((dp6549
I00
I9289
sI01
I5
stp6550
Rp6551
sg30
I2
sg31
F9295.0
sbs(g8
Vcontains(creativ)
p6552
tp6553
g0
(g19
g2
Ntp6554
Rp6555
(dp6556
g23
F0.5
sg24
I29752
sg25
g26
((dp6557
I00
I29716
sI01
I36
stp6558
Rp6559
sg30
I2
sg31
F29753.0
sbs(g14
Vcontains(recogn)
p6560
tp6561
g0
(g19
g2
Ntp6562
Rp6563
(dp6564
g23
F0.5
sg24
I11590
sg25
g26
((dp6565
I00
I11584
sI01
I6
stp6566
Rp6567
sg30
I2
sg31
F11591.0
sbs(g14
Vcontains(learn)
p6568
tp6569
g0
(g19
g2
Ntp6570
Rp6571
(dp6572
g23
F0.5
sg24
I11590
sg25
g26
((dp6573
I00
I10421
sI01
I1169
stp6574
Rp6575
sg30
I2
sg31
F11591.0
sbs(g12
Vcontains(teach)
p6576
tp6577
g0
(g19
g2
Ntp6578
Rp6579
(dp6580
g23
F0.5
sg24
I13347
sg25
g26
((dp6581
I00
I13329
sI01
I18
stp6582
Rp6583
sg30
I2
sg31
F13348.0
sbs(g14
Vcontains(secur)
p6584
tp6585
g0
(g19
g2
Ntp6586
Rp6587
(dp6588
g23
F0.5
sg24
I11590
sg25
g26
((dp6589
I00
I11523
sI01
I67
stp6590
Rp6591
sg30
I2
sg31
F11591.0
sbs(g10
Vcontains(encourag)
p6592
tp6593
g0
(g19
g2
Ntp6594
Rp6595
(dp6596
g23
F0.5
sg24
I9294
sg25
g26
((dp6597
I00
I9270
sI01
I24
stp6598
Rp6599
sg30
I2
sg31
F9295.0
sbs(g12
Vcontains(confid)
p6600
tp6601
g0
(g19
g2
Ntp6602
Rp6603
(dp6604
g23
F0.5
sg24
I13347
sg25
g26
((dp6605
I00
I13342
sI01
I5
stp6606
Rp6607
sg30
I2
sg31
F13348.0
sbs(g12
Vcontains(hike)
p6608
tp6609
g0
(g19
g2
Ntp6610
Rp6611
(dp6612
g23
F0.5
sg24
I13347
sg25
g26
((dp6613
I00
I13323
sI01
I24
stp6614
Rp6615
sg30
I2
sg31
F13348.0
sbs(g10
Vcontains(competit)
p6616
tp6617
g0
(g19
g2
Ntp6618
Rp6619
(dp6620
g23
F0.5
sg24
I9294
sg25
g26
((dp6621
I00
I9108
sI01
I186
stp6622
Rp6623
sg30
I2
sg31
F9295.0
sbs(g10
Vcontains(monetari)
p6624
tp6625
g0
(g19
g2
Ntp6626
Rp6627
(dp6628
g23
F0.5
sg24
I9294
sg25
g26
((dp6629
I00
I9261
sI01
I33
stp6630
Rp6631
sg30
I2
sg31
F9295.0
sbssS'_label_probdist'
p6632
g0
(g19
g2
Ntp6633
Rp6634
(dp6635
g23
F0.5
sg24
I169644
sg25
g26
((dp6636
g8
I29752
sg9
I62008
sg10
I9294
sg11
I4099
sg12
I13347
sg13
I39554
sg14
I11590
stp6637
Rp6638
sg30
I7
sg31
F169647.5
sbsb.