ccopy_reg
_reconstructor
p0
(cnltk.classify.naivebayes
NaiveBayesClassifier
p1
c__builtin__
object
p2
Ntp3
Rp4
(dp5
S'_labels'
p6
(lp7
S'neg'
p8
aS'pos'
p9
asS'_feature_probdist'
p10
(dp11
(g8
Vcontains(unnecessarili)
p12
tp13
g0
(cnltk.probability
ELEProbDist
p14
g2
Ntp15
Rp16
(dp17
S'_gamma'
p18
F0.5
sS'_N'
p19
I16667
sS'_freqdist'
p20
cnltk.probability
FreqDist
p21
((dp22
I00
I16667
stp23
Rp24
sS'_bins'
p25
I2
sS'_divisor'
p26
F16668.0
sbs(g8
Vcontains(insult)
p27
tp28
g0
(g14
g2
Ntp29
Rp30
(dp31
g18
F0.5
sg19
I16667
sg20
g21
((dp32
I00
I16666
sI01
I1
stp33
Rp34
sg25
I2
sg26
F16668.0
sbs(g9
Vcontains(hate)
p35
tp36
g0
(g14
g2
Ntp37
Rp38
(dp39
g18
F0.5
sg19
I91910
sg20
g21
((dp40
I00
I91905
sI01
I5
stp41
Rp42
sg25
I2
sg26
F91911.0
sbs(g9
Vcontains(angrili)
p43
tp44
g0
(g14
g2
Ntp45
Rp46
(dp47
g18
F0.5
sg19
I91910
sg20
g21
((dp48
I00
I91910
stp49
Rp50
sg25
I1
sg26
F91910.5
sbs(g8
Vcontains(comfort)
p51
tp52
g0
(g14
g2
Ntp53
Rp54
(dp55
g18
F0.5
sg19
I16667
sg20
g21
((dp56
I00
I16657
sI01
I10
stp57
Rp58
sg25
I2
sg26
F16668.0
sbs(g8
Vcontains(sadli)
p59
tp60
g0
(g14
g2
Ntp61
Rp62
(dp63
g18
F0.5
sg19
I16667
sg20
g21
((dp64
I00
I16650
sI01
I17
stp65
Rp66
sg25
I2
sg26
F16668.0
sbs(g9
Vcontains(corpor)
p67
tp68
g0
(g14
g2
Ntp69
Rp70
(dp71
g18
F0.5
sg19
I91910
sg20
g21
((dp72
I00
I91562
sI01
I348
stp73
Rp74
sg25
I2
sg26
F91911.0
sbs(g9
Vcontains(lack)
p75
tp76
g0
(g14
g2
Ntp77
Rp78
(dp79
g18
F0.5
sg19
I91910
sg20
g21
((dp80
I00
I91790
sI01
I120
stp81
Rp82
sg25
I2
sg26
F91911.0
sbs(g8
Vcontains(pleasur)
p83
tp84
g0
(g14
g2
Ntp85
Rp86
(dp87
g18
F0.5
sg19
I16667
sg20
g21
((dp88
I00
I16665
sI01
I2
stp89
Rp90
sg25
I2
sg26
F16668.0
sbs(g8
Vcontains(scari)
p91
tp92
g0
(g14
g2
Ntp93
Rp94
(dp95
g18
F0.5
sg19
I16667
sg20
g21
((dp96
I00
I16665
sI01
I2
stp97
Rp98
sg25
I2
sg26
F16668.0
sbs(g9
Vcontains(smart)
p99
tp100
g0
(g14
g2
Ntp101
Rp102
(dp103
g18
F0.5
sg19
I91910
sg20
g21
((dp104
I00
I91601
sI01
I309
stp105
Rp106
sg25
I2
sg26
F91911.0
sbs(g8
Vcontains(sad)
p107
tp108
g0
(g14
g2
Ntp109
Rp110
(dp111
g18
F0.5
sg19
I16667
sg20
g21
((dp112
I00
I16608
sI01
I59
stp113
Rp114
sg25
I2
sg26
F16668.0
sbs(g9
Vcontains(desper)
p115
tp116
g0
(g14
g2
Ntp117
Rp118
(dp119
g18
F0.5
sg19
I91910
sg20
g21
((dp120
I00
I91910
stp121
Rp122
sg25
I2
sg26
F91911.0
sbs(g8
Vcontains(fail)
p123
tp124
g0
(g14
g2
Ntp125
Rp126
(dp127
g18
F0.5
sg19
I16667
sg20
g21
((dp128
I00
I16594
sI01
I73
stp129
Rp130
sg25
I2
sg26
F16668.0
sbs(g8
Vcontains(danger)
p131
tp132
g0
(g14
g2
Ntp133
Rp134
(dp135
g18
F0.5
sg19
I16667
sg20
g21
((dp136
I00
I16657
sI01
I10
stp137
Rp138
sg25
I2
sg26
F16668.0
sbs(g8
Vcontains(perfect)
p139
tp140
g0
(g14
g2
Ntp141
Rp142
(dp143
g18
F0.5
sg19
I16667
sg20
g21
((dp144
I00
I16667
stp145
Rp146
sg25
I2
sg26
F16668.0
sbs(g9
Vcontains(littl)
p147
tp148
g0
(g14
g2
Ntp149
Rp150
(dp151
g18
F0.5
sg19
I91910
sg20
g21
((dp152
I00
I91719
sI01
I191
stp153
Rp154
sg25
I2
sg26
F91911.0
sbs(g8
Vcontains(rude)
p155
tp156
g0
(g14
g2
Ntp157
Rp158
(dp159
g18
F0.5
sg19
I16667
sg20
g21
((dp160
I00
I16523
sI01
I144
stp161
Rp162
sg25
I2
sg26
F16668.0
sbs(g8
Vcontains(strong)
p163
tp164
g0
(g14
g2
Ntp165
Rp166
(dp167
g18
F0.5
sg19
I16667
sg20
g21
((dp168
I00
I16666
sI01
I1
stp169
Rp170
sg25
I2
sg26
F16668.0
sbs(g8
Vcontains(improv)
p171
tp172
g0
(g14
g2
Ntp173
Rp174
(dp175
g18
F0.5
sg19
I16667
sg20
g21
((dp176
I00
I16629
sI01
I38
stp177
Rp178
sg25
I2
sg26
F16668.0
sbs(g9
Vcontains(crisi)
p179
tp180
g0
(g14
g2
Ntp181
Rp182
(dp183
g18
F0.5
sg19
I91910
sg20
g21
((dp184
I00
I91905
sI01
I5
stp185
Rp186
sg25
I2
sg26
F91911.0
sbs(g9
Vcontains(wast)
p187
tp188
g0
(g14
g2
Ntp189
Rp190
(dp191
g18
F0.5
sg19
I91910
sg20
g21
((dp192
I00
I91892
sI01
I18
stp193
Rp194
sg25
I2
sg26
F91911.0
sbs(g8
Vcontains(less)
p195
tp196
g0
(g14
g2
Ntp197
Rp198
(dp199
g18
F0.5
sg19
I16667
sg20
g21
((dp200
I00
I16184
sI01
I483
stp201
Rp202
sg25
I2
sg26
F16668.0
sbs(g9
Vcontains(satisfi)
p203
tp204
g0
(g14
g2
Ntp205
Rp206
(dp207
g18
F0.5
sg19
I91910
sg20
g21
((dp208
I00
I91626
sI01
I284
stp209
Rp210
sg25
I2
sg26
F91911.0
sbs(g9
Vcontains(danger)
p211
tp212
g0
(g14
g2
Ntp213
Rp214
(dp215
g18
F0.5
sg19
I91910
sg20
g21
((dp216
I00
I91909
sI01
I1
stp217
Rp218
sg25
I2
sg26
F91911.0
sbs(g8
Vcontains(brilliant)
p219
tp220
g0
(g14
g2
Ntp221
Rp222
(dp223
g18
F0.5
sg19
I16667
sg20
g21
((dp224
I00
I16667
stp225
Rp226
sg25
I2
sg26
F16668.0
sbs(g9
Vcontains(unbeliev)
p227
tp228
g0
(g14
g2
Ntp229
Rp230
(dp231
g18
F0.5
sg19
I91910
sg20
g21
((dp232
I00
I91904
sI01
I6
stp233
Rp234
sg25
I2
sg26
F91911.0
sbs(g9
Vcontains(perk)
p235
tp236
g0
(g14
g2
Ntp237
Rp238
(dp239
g18
F0.5
sg19
I91910
sg20
g21
((dp240
I00
I91738
sI01
I172
stp241
Rp242
sg25
I2
sg26
F91911.0
sbs(g9
Vcontains(promot)
p243
tp244
g0
(g14
g2
Ntp245
Rp246
(dp247
g18
F0.5
sg19
I91910
sg20
g21
((dp248
I00
I91425
sI01
I485
stp249
Rp250
sg25
I2
sg26
F91911.0
sbs(g9
Vcontains(rough)
p251
tp252
g0
(g14
g2
Ntp253
Rp254
(dp255
g18
F0.5
sg19
I91910
sg20
g21
((dp256
I00
I91904
sI01
I6
stp257
Rp258
sg25
I2
sg26
F91911.0
sbs(g8
Vcontains(motiv)
p259
tp260
g0
(g14
g2
Ntp261
Rp262
(dp263
g18
F0.5
sg19
I16667
sg20
g21
((dp264
I00
I16623
sI01
I44
stp265
Rp266
sg25
I2
sg26
F16668.0
sbs(g8
Vcontains(honest)
p267
tp268
g0
(g14
g2
Ntp269
Rp270
(dp271
g18
F0.5
sg19
I16667
sg20
g21
((dp272
I00
I16667
stp273
Rp274
sg25
I2
sg26
F16668.0
sbs(g8
Vcontains(truli)
p275
tp276
g0
(g14
g2
Ntp277
Rp278
(dp279
g18
F0.5
sg19
I16667
sg20
g21
((dp280
I00
I16656
sI01
I11
stp281
Rp282
sg25
I2
sg26
F16668.0
sbs(g9
Vcontains(excel)
p283
tp284
g0
(g14
g2
Ntp285
Rp286
(dp287
g18
F0.5
sg19
I91910
sg20
g21
((dp288
I00
I90186
sI01
I1724
stp289
Rp290
sg25
I2
sg26
F91911.0
sbs(g9
Vcontains(cant)
p291
tp292
g0
(g14
g2
Ntp293
Rp294
(dp295
g18
F0.5
sg19
I91910
sg20
g21
((dp296
I00
I91860
sI01
I50
stp297
Rp298
sg25
I2
sg26
F91911.0
sbs(g8
Vcontains(satisfact)
p299
tp300
g0
(g14
g2
Ntp301
Rp302
(dp303
g18
F0.5
sg19
I16667
sg20
g21
((dp304
I00
I16656
sI01
I11
stp305
Rp306
sg25
I2
sg26
F16668.0
sbs(g9
Vcontains(pro)
p307
tp308
g0
(g14
g2
Ntp309
Rp310
(dp311
g18
F0.5
sg19
I91910
sg20
g21
((dp312
I00
I91779
sI01
I131
stp313
Rp314
sg25
I2
sg26
F91911.0
sbs(g8
Vcontains(solv)
p315
tp316
g0
(g14
g2
Ntp317
Rp318
(dp319
g18
F0.5
sg19
I16667
sg20
g21
((dp320
I00
I16631
sI01
I36
stp321
Rp322
sg25
I2
sg26
F16668.0
sbs(g9
Vcontains(fast)
p323
tp324
g0
(g14
g2
Ntp325
Rp326
(dp327
g18
F0.5
sg19
I91910
sg20
g21
((dp328
I00
I90000
sI01
I1910
stp329
Rp330
sg25
I2
sg26
F91911.0
sbs(g8
Vcontains(promot)
p331
tp332
g0
(g14
g2
Ntp333
Rp334
(dp335
g18
F0.5
sg19
I16667
sg20
g21
((dp336
I00
I16509
sI01
I158
stp337
Rp338
sg25
I2
sg26
F16668.0
sbs(g9
Vcontains(fault)
p339
tp340
g0
(g14
g2
Ntp341
Rp342
(dp343
g18
F0.5
sg19
I91910
sg20
g21
((dp344
I00
I91906
sI01
I4
stp345
Rp346
sg25
I2
sg26
F91911.0
sbs(g8
Vcontains(opportun)
p347
tp348
g0
(g14
g2
Ntp349
Rp350
(dp351
g18
F0.5
sg19
I16667
sg20
g21
((dp352
I00
I16498
sI01
I169
stp353
Rp354
sg25
I2
sg26
F16668.0
sbs(g9
Vcontains(attract)
p355
tp356
g0
(g14
g2
Ntp357
Rp358
(dp359
g18
F0.5
sg19
I91910
sg20
g21
((dp360
I00
I91860
sI01
I50
stp361
Rp362
sg25
I2
sg26
F91911.0
sbs(g8
Vcontains(friend)
p363
tp364
g0
(g14
g2
Ntp365
Rp366
(dp367
g18
F0.5
sg19
I16667
sg20
g21
((dp368
I00
I16655
sI01
I12
stp369
Rp370
sg25
I2
sg26
F16668.0
sbs(g8
Vcontains(surviv)
p371
tp372
g0
(g14
g2
Ntp373
Rp374
(dp375
g18
F0.5
sg19
I16667
sg20
g21
((dp376
I00
I16659
sI01
I8
stp377
Rp378
sg25
I2
sg26
F16668.0
sbs(g9
Vcontains(challeng)
p379
tp380
g0
(g14
g2
Ntp381
Rp382
(dp383
g18
F0.5
sg19
I91910
sg20
g21
((dp384
I00
I90198
sI01
I1712
stp385
Rp386
sg25
I2
sg26
F91911.0
sbs(g9
Vcontains(told)
p387
tp388
g0
(g14
g2
Ntp389
Rp390
(dp391
g18
F0.5
sg19
I91910
sg20
g21
((dp392
I00
I91853
sI01
I57
stp393
Rp394
sg25
I2
sg26
F91911.0
sbs(g8
Vcontains(affect)
p395
tp396
g0
(g14
g2
Ntp397
Rp398
(dp399
g18
F0.5
sg19
I16667
sg20
g21
((dp400
I00
I16660
sI01
I7
stp401
Rp402
sg25
I2
sg26
F16668.0
sbs(g8
Vcontains(desper)
p403
tp404
g0
(g14
g2
Ntp405
Rp406
(dp407
g18
F0.5
sg19
I16667
sg20
g21
((dp408
I00
I16652
sI01
I15
stp409
Rp410
sg25
I2
sg26
F16668.0
sbs(g8
Vcontains(abl)
p411
tp412
g0
(g14
g2
Ntp413
Rp414
(dp415
g18
F0.5
sg19
I16667
sg20
g21
((dp416
I00
I16663
sI01
I4
stp417
Rp418
sg25
I2
sg26
F16668.0
sbs(g9
Vcontains(fresh)
p419
tp420
g0
(g14
g2
Ntp421
Rp422
(dp423
g18
F0.5
sg19
I91910
sg20
g21
((dp424
I00
I91780
sI01
I130
stp425
Rp426
sg25
I2
sg26
F91911.0
sbs(g8
Vcontains(critic)
p427
tp428
g0
(g14
g2
Ntp429
Rp430
(dp431
g18
F0.5
sg19
I16667
sg20
g21
((dp432
I00
I16657
sI01
I10
stp433
Rp434
sg25
I2
sg26
F16668.0
sbs(g9
Vcontains(encourag)
p435
tp436
g0
(g14
g2
Ntp437
Rp438
(dp439
g18
F0.5
sg19
I91910
sg20
g21
((dp440
I00
I91614
sI01
I296
stp441
Rp442
sg25
I2
sg26
F91911.0
sbs(g8
Vcontains(end)
p443
tp444
g0
(g14
g2
Ntp445
Rp446
(dp447
g18
F0.5
sg19
I16667
sg20
g21
((dp448
I00
I16541
sI01
I126
stp449
Rp450
sg25
I2
sg26
F16668.0
sbs(g9
Vcontains(abil)
p451
tp452
g0
(g14
g2
Ntp453
Rp454
(dp455
g18
F0.5
sg19
I91910
sg20
g21
((dp456
I00
I91612
sI01
I298
stp457
Rp458
sg25
I2
sg26
F91911.0
sbs(g8
Vcontains(wish)
p459
tp460
g0
(g14
g2
Ntp461
Rp462
(dp463
g18
F0.5
sg19
I16667
sg20
g21
((dp464
I00
I16651
sI01
I16
stp465
Rp466
sg25
I2
sg26
F16668.0
sbs(g8
Vcontains(freedom)
p467
tp468
g0
(g14
g2
Ntp469
Rp470
(dp471
g18
F0.5
sg19
I16667
sg20
g21
((dp472
I00
I16664
sI01
I3
stp473
Rp474
sg25
I2
sg26
F16668.0
sbs(g9
Vcontains(hard)
p475
tp476
g0
(g14
g2
Ntp477
Rp478
(dp479
g18
F0.5
sg19
I91910
sg20
g21
((dp480
I00
I91377
sI01
I533
stp481
Rp482
sg25
I2
sg26
F91911.0
sbs(g8
Vcontains(mani)
p483
tp484
g0
(g14
g2
Ntp485
Rp486
(dp487
g18
F0.5
sg19
I16667
sg20
g21
((dp488
I00
I16649
sI01
I18
stp489
Rp490
sg25
I2
sg26
F16668.0
sbs(g9
Vcontains(least)
p491
tp492
g0
(g14
g2
Ntp493
Rp494
(dp495
g18
F0.5
sg19
I91910
sg20
g21
((dp496
I00
I91889
sI01
I21
stp497
Rp498
sg25
I2
sg26
F91911.0
sbs(g9
Vcontains(scari)
p499
tp500
g0
(g14
g2
Ntp501
Rp502
(dp503
g18
F0.5
sg19
I91910
sg20
g21
((dp504
I00
I91910
stp505
Rp506
sg25
I2
sg26
F91911.0
sbs(g9
Vcontains(award)
p507
tp508
g0
(g14
g2
Ntp509
Rp510
(dp511
g18
F0.5
sg19
I91910
sg20
g21
((dp512
I00
I91852
sI01
I58
stp513
Rp514
sg25
I2
sg26
F91911.0
sbs(g8
Vcontains(friendli)
p515
tp516
g0
(g14
g2
Ntp517
Rp518
(dp519
g18
F0.5
sg19
I16667
sg20
g21
((dp520
I00
I16651
sI01
I16
stp521
Rp522
sg25
I2
sg26
F16668.0
sbs(g9
Vcontains(pressur)
p523
tp524
g0
(g14
g2
Ntp525
Rp526
(dp527
g18
F0.5
sg19
I91910
sg20
g21
((dp528
I00
I91099
sI01
I811
stp529
Rp530
sg25
I2
sg26
F91911.0
sbs(g9
Vcontains(reward)
p531
tp532
g0
(g14
g2
Ntp533
Rp534
(dp535
g18
F0.5
sg19
I91910
sg20
g21
((dp536
I00
I91356
sI01
I554
stp537
Rp538
sg25
I2
sg26
F91911.0
sbs(g8
Vcontains(benefit)
p539
tp540
g0
(g14
g2
Ntp541
Rp542
(dp543
g18
F0.5
sg19
I16667
sg20
g21
((dp544
I00
I16522
sI01
I145
stp545
Rp546
sg25
I2
sg26
F16668.0
sbs(g9
Vcontains(take)
p547
tp548
g0
(g14
g2
Ntp549
Rp550
(dp551
g18
F0.5
sg19
I91910
sg20
g21
((dp552
I00
I91278
sI01
I632
stp553
Rp554
sg25
I2
sg26
F91911.0
sbs(g9
Vcontains(repetit)
p555
tp556
g0
(g14
g2
Ntp557
Rp558
(dp559
g18
F0.5
sg19
I91910
sg20
g21
((dp560
I00
I91893
sI01
I17
stp561
Rp562
sg25
I2
sg26
F91911.0
sbs(g9
Vcontains(lucki)
p563
tp564
g0
(g14
g2
Ntp565
Rp566
(dp567
g18
F0.5
sg19
I91910
sg20
g21
((dp568
I00
I91787
sI01
I123
stp569
Rp570
sg25
I2
sg26
F91911.0
sbs(g9
Vcontains(transpar)
p571
tp572
g0
(g14
g2
Ntp573
Rp574
(dp575
g18
F0.5
sg19
I91910
sg20
g21
((dp576
I00
I91869
sI01
I41
stp577
Rp578
sg25
I2
sg26
F91911.0
sbs(g8
Vcontains(better)
p579
tp580
g0
(g14
g2
Ntp581
Rp582
(dp583
g18
F0.5
sg19
I16667
sg20
g21
((dp584
I00
I16654
sI01
I13
stp585
Rp586
sg25
I2
sg26
F16668.0
sbs(g9
Vcontains(peac)
p587
tp588
g0
(g14
g2
Ntp589
Rp590
(dp591
g18
F0.5
sg19
I91910
sg20
g21
((dp592
I00
I91880
sI01
I30
stp593
Rp594
sg25
I2
sg26
F91911.0
sbs(g9
Vcontains(teamwork)
p595
tp596
g0
(g14
g2
Ntp597
Rp598
(dp599
g18
F0.5
sg19
I91910
sg20
g21
((dp600
I00
I91821
sI01
I89
stp601
Rp602
sg25
I2
sg26
F91911.0
sbs(g9
Vcontains(greatli)
p603
tp604
g0
(g14
g2
Ntp605
Rp606
(dp607
g18
F0.5
sg19
I91910
sg20
g21
((dp608
I00
I91831
sI01
I79
stp609
Rp610
sg25
I2
sg26
F91911.0
sbs(g9
Vcontains(seriou)
p611
tp612
g0
(g14
g2
Ntp613
Rp614
(dp615
g18
F0.5
sg19
I91910
sg20
g21
((dp616
I00
I91900
sI01
I10
stp617
Rp618
sg25
I2
sg26
F91911.0
sbs(g8
Vcontains(pressur)
p619
tp620
g0
(g14
g2
Ntp621
Rp622
(dp623
g18
F0.5
sg19
I16667
sg20
g21
((dp624
I00
I16581
sI01
I86
stp625
Rp626
sg25
I2
sg26
F16668.0
sbs(g9
Vcontains(unpredict)
p627
tp628
g0
(g14
g2
Ntp629
Rp630
(dp631
g18
F0.5
sg19
I91910
sg20
g21
((dp632
I00
I91910
stp633
Rp634
sg25
I2
sg26
F91911.0
sbs(g9
Vcontains(unfriendli)
p635
tp636
g0
(g14
g2
Ntp637
Rp638
(dp639
g18
F0.5
sg19
I91910
sg20
g21
((dp640
I00
I91909
sI01
I1
stp641
Rp642
sg25
I2
sg26
F91911.0
sbs(g9
Vcontains(experienc)
p643
tp644
g0
(g14
g2
Ntp645
Rp646
(dp647
g18
F0.5
sg19
I91910
sg20
g21
((dp648
I00
I91580
sI01
I330
stp649
Rp650
sg25
I2
sg26
F91911.0
sbs(g8
Vcontains(ignor)
p651
tp652
g0
(g14
g2
Ntp653
Rp654
(dp655
g18
F0.5
sg19
I16667
sg20
g21
((dp656
I00
I16662
sI01
I5
stp657
Rp658
sg25
I2
sg26
F16668.0
sbs(g9
Vcontains(unabl)
p659
tp660
g0
(g14
g2
Ntp661
Rp662
(dp663
g18
F0.5
sg19
I91910
sg20
g21
((dp664
I00
I91910
stp665
Rp666
sg25
I2
sg26
F91911.0
sbs(g8
Vcontains(develop)
p667
tp668
g0
(g14
g2
Ntp669
Rp670
(dp671
g18
F0.5
sg19
I16667
sg20
g21
((dp672
I00
I16587
sI01
I80
stp673
Rp674
sg25
I2
sg26
F16668.0
sbs(g8
Vcontains(spirit)
p675
tp676
g0
(g14
g2
Ntp677
Rp678
(dp679
g18
F0.5
sg19
I16667
sg20
g21
((dp680
I00
I16665
sI01
I2
stp681
Rp682
sg25
I2
sg26
F16668.0
sbs(g8
Vcontains(well)
p683
tp684
g0
(g14
g2
Ntp685
Rp686
(dp687
g18
F0.5
sg19
I16667
sg20
g21
((dp688
I00
I16512
sI01
I155
stp689
Rp690
sg25
I2
sg26
F16668.0
sbs(g9
Vcontains(success)
p691
tp692
g0
(g14
g2
Ntp693
Rp694
(dp695
g18
F0.5
sg19
I91910
sg20
g21
((dp696
I00
I91331
sI01
I579
stp697
Rp698
sg25
I2
sg26
F91911.0
sbs(g9
Vcontains(dirti)
p699
tp700
g0
(g14
g2
Ntp701
Rp702
(dp703
g18
F0.5
sg19
I91910
sg20
g21
((dp704
I00
I91910
stp705
Rp706
sg25
I2
sg26
F91911.0
sbs(g8
Vcontains(never)
p707
tp708
g0
(g14
g2
Ntp709
Rp710
(dp711
g18
F0.5
sg19
I16667
sg20
g21
((dp712
I00
I16482
sI01
I185
stp713
Rp714
sg25
I2
sg26
F16668.0
sbs(g8
Vcontains(unfair)
p715
tp716
g0
(g14
g2
Ntp717
Rp718
(dp719
g18
F0.5
sg19
I16667
sg20
g21
((dp720
I00
I16612
sI01
I55
stp721
Rp722
sg25
I2
sg26
F16668.0
sbs(g9
Vcontains(redund)
p723
tp724
g0
(g14
g2
Ntp725
Rp726
(dp727
g18
F0.5
sg19
I91910
sg20
g21
((dp728
I00
I91904
sI01
I6
stp729
Rp730
sg25
I2
sg26
F91911.0
sbs(g9
Vcontains(start)
p731
tp732
g0
(g14
g2
Ntp733
Rp734
(dp735
g18
F0.5
sg19
I91910
sg20
g21
((dp736
I00
I90797
sI01
I1113
stp737
Rp738
sg25
I2
sg26
F91911.0
sbs(g9
Vcontains(unhappi)
p739
tp740
g0
(g14
g2
Ntp741
Rp742
(dp743
g18
F0.5
sg19
I91910
sg20
g21
((dp744
I00
I91907
sI01
I3
stp745
Rp746
sg25
I2
sg26
F91911.0
sbs(g8
Vcontains(ethic)
p747
tp748
g0
(g14
g2
Ntp749
Rp750
(dp751
g18
F0.5
sg19
I16667
sg20
g21
((dp752
I00
I16659
sI01
I8
stp753
Rp754
sg25
I2
sg26
F16668.0
sbs(g9
Vcontains(hike)
p755
tp756
g0
(g14
g2
Ntp757
Rp758
(dp759
g18
F0.5
sg19
I91910
sg20
g21
((dp760
I00
I91723
sI01
I187
stp761
Rp762
sg25
I2
sg26
F91911.0
sbs(g9
Vcontains(busi)
p763
tp764
g0
(g14
g2
Ntp765
Rp766
(dp767
g18
F0.5
sg19
I91910
sg20
g21
((dp768
I00
I90592
sI01
I1318
stp769
Rp770
sg25
I2
sg26
F91911.0
sbs(g8
Vcontains(hike)
p771
tp772
g0
(g14
g2
Ntp773
Rp774
(dp775
g18
F0.5
sg19
I16667
sg20
g21
((dp776
I00
I16631
sI01
I36
stp777
Rp778
sg25
I2
sg26
F16668.0
sbs(g8
Vcontains(avail)
p779
tp780
g0
(g14
g2
Ntp781
Rp782
(dp783
g18
F0.5
sg19
I16667
sg20
g21
((dp784
I00
I16651
sI01
I16
stp785
Rp786
sg25
I2
sg26
F16668.0
sbs(g8
Vcontains(huge)
p787
tp788
g0
(g14
g2
Ntp789
Rp790
(dp791
g18
F0.5
sg19
I16667
sg20
g21
((dp792
I00
I16662
sI01
I5
stp793
Rp794
sg25
I2
sg26
F16668.0
sbs(g9
Vcontains(sad)
p795
tp796
g0
(g14
g2
Ntp797
Rp798
(dp799
g18
F0.5
sg19
I91910
sg20
g21
((dp800
I00
I91904
sI01
I6
stp801
Rp802
sg25
I2
sg26
F91911.0
sbs(g8
Vcontains(balanc)
p803
tp804
g0
(g14
g2
Ntp805
Rp806
(dp807
g18
F0.5
sg19
I16667
sg20
g21
((dp808
I00
I16296
sI01
I371
stp809
Rp810
sg25
I2
sg26
F16668.0
sbs(g9
Vcontains(ambiti)
p811
tp812
g0
(g14
g2
Ntp813
Rp814
(dp815
g18
F0.5
sg19
I91910
sg20
g21
((dp816
I00
I91613
sI01
I297
stp817
Rp818
sg25
I2
sg26
F91911.0
sbs(g9
Vcontains(welcom)
p819
tp820
g0
(g14
g2
Ntp821
Rp822
(dp823
g18
F0.5
sg19
I91910
sg20
g21
((dp824
I00
I91795
sI01
I115
stp825
Rp826
sg25
I2
sg26
F91911.0
sbs(g9
Vcontains(allow)
p827
tp828
g0
(g14
g2
Ntp829
Rp830
(dp831
g18
F0.5
sg19
I91910
sg20
g21
((dp832
I00
I91636
sI01
I274
stp833
Rp834
sg25
I2
sg26
F91911.0
sbs(g8
Vcontains(commun)
p835
tp836
g0
(g14
g2
Ntp837
Rp838
(dp839
g18
F0.5
sg19
I16667
sg20
g21
((dp840
I00
I16494
sI01
I173
stp841
Rp842
sg25
I2
sg26
F16668.0
sbs(g8
Vcontains(unnecessari)
p843
tp844
g0
(g14
g2
Ntp845
Rp846
(dp847
g18
F0.5
sg19
I16667
sg20
g21
((dp848
I00
I16652
sI01
I15
stp849
Rp850
sg25
I2
sg26
F16668.0
sbs(g9
Vcontains(surviv)
p851
tp852
g0
(g14
g2
Ntp853
Rp854
(dp855
g18
F0.5
sg19
I91910
sg20
g21
((dp856
I00
I91884
sI01
I26
stp857
Rp858
sg25
I2
sg26
F91911.0
sbs(g9
Vcontains(dead)
p859
tp860
g0
(g14
g2
Ntp861
Rp862
(dp863
g18
F0.5
sg19
I91910
sg20
g21
((dp864
I00
I91904
sI01
I6
stp865
Rp866
sg25
I2
sg26
F91911.0
sbs(g8
Vcontains(incred)
p867
tp868
g0
(g14
g2
Ntp869
Rp870
(dp871
g18
F0.5
sg19
I16667
sg20
g21
((dp872
I00
I16660
sI01
I7
stp873
Rp874
sg25
I2
sg26
F16668.0
sbs(g8
Vcontains(illeg)
p875
tp876
g0
(g14
g2
Ntp877
Rp878
(dp879
g18
F0.5
sg19
I16667
sg20
g21
((dp880
I00
I16661
sI01
I6
stp881
Rp882
sg25
I2
sg26
F16668.0
sbs(g8
Vcontains(satisfi)
p883
tp884
g0
(g14
g2
Ntp885
Rp886
(dp887
g18
F0.5
sg19
I16667
sg20
g21
((dp888
I00
I16660
sI01
I7
stp889
Rp890
sg25
I2
sg26
F16668.0
sbs(g8
Vcontains(suck)
p891
tp892
g0
(g14
g2
Ntp893
Rp894
(dp895
g18
F0.5
sg19
I16667
sg20
g21
((dp896
I00
I16620
sI01
I47
stp897
Rp898
sg25
I2
sg26
F16668.0
sbs(g9
Vcontains(idea)
p899
tp900
g0
(g14
g2
Ntp901
Rp902
(dp903
g18
F0.5
sg19
I91910
sg20
g21
((dp904
I00
I91688
sI01
I222
stp905
Rp906
sg25
I2
sg26
F91911.0
sbs(g9
Vcontains(confus)
p907
tp908
g0
(g14
g2
Ntp909
Rp910
(dp911
g18
F0.5
sg19
I91910
sg20
g21
((dp912
I00
I91903
sI01
I7
stp913
Rp914
sg25
I2
sg26
F91911.0
sbs(g9
Vcontains(competit)
p915
tp916
g0
(g14
g2
Ntp917
Rp918
(dp919
g18
F0.5
sg19
I91910
sg20
g21
((dp920
I00
I91731
sI01
I179
stp921
Rp922
sg25
I2
sg26
F91911.0
sbs(g8
Vcontains(shi)
p923
tp924
g0
(g14
g2
Ntp925
Rp926
(dp927
g18
F0.5
sg19
I16667
sg20
g21
((dp928
I00
I16658
sI01
I9
stp929
Rp930
sg25
I2
sg26
F16668.0
sbs(g9
Vcontains(hire)
p931
tp932
g0
(g14
g2
Ntp933
Rp934
(dp935
g18
F0.5
sg19
I91910
sg20
g21
((dp936
I00
I91465
sI01
I445
stp937
Rp938
sg25
I2
sg26
F91911.0
sbs(g9
Vcontains(satisfact)
p939
tp940
g0
(g14
g2
Ntp941
Rp942
(dp943
g18
F0.5
sg19
I91910
sg20
g21
((dp944
I00
I91779
sI01
I131
stp945
Rp946
sg25
I2
sg26
F91911.0
sbs(g9
Vcontains(respect)
p947
tp948
g0
(g14
g2
Ntp949
Rp950
(dp951
g18
F0.5
sg19
I91910
sg20
g21
((dp952
I00
I91677
sI01
I233
stp953
Rp954
sg25
I2
sg26
F91911.0
sbs(g9
Vcontains(stress)
p955
tp956
g0
(g14
g2
Ntp957
Rp958
(dp959
g18
F0.5
sg19
I91910
sg20
g21
((dp960
I00
I91626
sI01
I284
stp961
Rp962
sg25
I2
sg26
F91911.0
sbs(g9
Vcontains(friendli)
p963
tp964
g0
(g14
g2
Ntp965
Rp966
(dp967
g18
F0.5
sg19
I91910
sg20
g21
((dp968
I00
I89144
sI01
I2766
stp969
Rp970
sg25
I2
sg26
F91911.0
sbs(g8
Vcontains(harder)
p971
tp972
g0
(g14
g2
Ntp973
Rp974
(dp975
g18
F0.5
sg19
I16667
sg20
g21
((dp976
I00
I16557
sI01
I110
stp977
Rp978
sg25
I2
sg26
F16668.0
sbs(g8
Vcontains(skill)
p979
tp980
g0
(g14
g2
Ntp981
Rp982
(dp983
g18
F0.5
sg19
I16667
sg20
g21
((dp984
I00
I16563
sI01
I104
stp985
Rp986
sg25
I2
sg26
F16668.0
sbs(g8
Vcontains(idea)
p987
tp988
g0
(g14
g2
Ntp989
Rp990
(dp991
g18
F0.5
sg19
I16667
sg20
g21
((dp992
I00
I16650
sI01
I17
stp993
Rp994
sg25
I2
sg26
F16668.0
sbs(g8
Vcontains(fast)
p995
tp996
g0
(g14
g2
Ntp997
Rp998
(dp999
g18
F0.5
sg19
I16667
sg20
g21
((dp1000
I00
I16643
sI01
I24
stp1001
Rp1002
sg25
I2
sg26
F16668.0
sbs(g8
Vcontains(sincer)
p1003
tp1004
g0
(g14
g2
Ntp1005
Rp1006
(dp1007
g18
F0.5
sg19
I16667
sg20
g21
((dp1008
I00
I16666
sI01
I1
stp1009
Rp1010
sg25
I2
sg26
F16668.0
sbs(g8
Vcontains(appreci)
p1011
tp1012
g0
(g14
g2
Ntp1013
Rp1014
(dp1015
g18
F0.5
sg19
I16667
sg20
g21
((dp1016
I00
I16621
sI01
I46
stp1017
Rp1018
sg25
I2
sg26
F16668.0
sbs(g9
Vcontains(best)
p1019
tp1020
g0
(g14
g2
Ntp1021
Rp1022
(dp1023
g18
F0.5
sg19
I91910
sg20
g21
((dp1024
I00
I87995
sI01
I3915
stp1025
Rp1026
sg25
I2
sg26
F91911.0
sbs(g9
Vcontains(offer)
p1027
tp1028
g0
(g14
g2
Ntp1029
Rp1030
(dp1031
g18
F0.5
sg19
I91910
sg20
g21
((dp1032
I00
I91463
sI01
I447
stp1033
Rp1034
sg25
I2
sg26
F91911.0
sbs(g9
Vcontains(weird)
p1035
tp1036
g0
(g14
g2
Ntp1037
Rp1038
(dp1039
g18
F0.5
sg19
I91910
sg20
g21
((dp1040
I00
I91909
sI01
I1
stp1041
Rp1042
sg25
I2
sg26
F91911.0
sbs(g8
Vcontains(workload)
p1043
tp1044
g0
(g14
g2
Ntp1045
Rp1046
(dp1047
g18
F0.5
sg19
I16667
sg20
g21
((dp1048
I00
I16607
sI01
I60
stp1049
Rp1050
sg25
I2
sg26
F16668.0
sbs(g9
Vcontains(leav)
p1051
tp1052
g0
(g14
g2
Ntp1053
Rp1054
(dp1055
g18
F0.5
sg19
I91910
sg20
g21
((dp1056
I00
I91593
sI01
I317
stp1057
Rp1058
sg25
I2
sg26
F91911.0
sbs(g9
Vcontains(non)
p1059
tp1060
g0
(g14
g2
Ntp1061
Rp1062
(dp1063
g18
F0.5
sg19
I91910
sg20
g21
((dp1064
I00
I91821
sI01
I89
stp1065
Rp1066
sg25
I2
sg26
F91911.0
sbs(g8
Vcontains(knowledg)
p1067
tp1068
g0
(g14
g2
Ntp1069
Rp1070
(dp1071
g18
F0.5
sg19
I16667
sg20
g21
((dp1072
I00
I16616
sI01
I51
stp1073
Rp1074
sg25
I2
sg26
F16668.0
sbs(g9
Vcontains(healthi)
p1075
tp1076
g0
(g14
g2
Ntp1077
Rp1078
(dp1079
g18
F0.5
sg19
I91910
sg20
g21
((dp1080
I00
I91646
sI01
I264
stp1081
Rp1082
sg25
I2
sg26
F91911.0
sbs(g9
Vcontains(knowledg)
p1083
tp1084
g0
(g14
g2
Ntp1085
Rp1086
(dp1087
g18
F0.5
sg19
I91910
sg20
g21
((dp1088
I00
I91325
sI01
I585
stp1089
Rp1090
sg25
I2
sg26
F91911.0
sbs(g9
Vcontains(amaz)
p1091
tp1092
g0
(g14
g2
Ntp1093
Rp1094
(dp1095
g18
F0.5
sg19
I91910
sg20
g21
((dp1096
I00
I90891
sI01
I1019
stp1097
Rp1098
sg25
I2
sg26
F91911.0
sbs(g9
Vcontains(last)
p1099
tp1100
g0
(g14
g2
Ntp1101
Rp1102
(dp1103
g18
F0.5
sg19
I91910
sg20
g21
((dp1104
I00
I91765
sI01
I145
stp1105
Rp1106
sg25
I2
sg26
F91911.0
sbs(g8
Vcontains(frustrat)
p1107
tp1108
g0
(g14
g2
Ntp1109
Rp1110
(dp1111
g18
F0.5
sg19
I16667
sg20
g21
((dp1112
I00
I16560
sI01
I107
stp1113
Rp1114
sg25
I2
sg26
F16668.0
sbs(g9
Vcontains(top)
p1115
tp1116
g0
(g14
g2
Ntp1117
Rp1118
(dp1119
g18
F0.5
sg19
I91910
sg20
g21
((dp1120
I00
I91349
sI01
I561
stp1121
Rp1122
sg25
I2
sg26
F91911.0
sbs(g8
Vcontains(fire)
p1123
tp1124
g0
(g14
g2
Ntp1125
Rp1126
(dp1127
g18
F0.5
sg19
I16667
sg20
g21
((dp1128
I00
I16632
sI01
I35
stp1129
Rp1130
sg25
I2
sg26
F16668.0
sbs(g8
Vcontains(tight)
p1131
tp1132
g0
(g14
g2
Ntp1133
Rp1134
(dp1135
g18
F0.5
sg19
I16667
sg20
g21
((dp1136
I00
I16633
sI01
I34
stp1137
Rp1138
sg25
I2
sg26
F16668.0
sbs(g8
Vcontains(interest)
p1139
tp1140
g0
(g14
g2
Ntp1141
Rp1142
(dp1143
g18
F0.5
sg19
I16667
sg20
g21
((dp1144
I00
I16657
sI01
I10
stp1145
Rp1146
sg25
I2
sg26
F16668.0
sbs(g9
Vcontains(gave)
p1147
tp1148
g0
(g14
g2
Ntp1149
Rp1150
(dp1151
g18
F0.5
sg19
I91910
sg20
g21
((dp1152
I00
I91659
sI01
I251
stp1153
Rp1154
sg25
I2
sg26
F91911.0
sbs(g8
Vcontains(busi)
p1155
tp1156
g0
(g14
g2
Ntp1157
Rp1158
(dp1159
g18
F0.5
sg19
I16667
sg20
g21
((dp1160
I00
I16519
sI01
I148
stp1161
Rp1162
sg25
I2
sg26
F16668.0
sbs(g9
Vcontains(hardest)
p1163
tp1164
g0
(g14
g2
Ntp1165
Rp1166
(dp1167
g18
F0.5
sg19
I91910
sg20
g21
((dp1168
I00
I90587
sI01
I1323
stp1169
Rp1170
sg25
I2
sg26
F91911.0
sbs(g9
Vcontains(fantast)
p1171
tp1172
g0
(g14
g2
Ntp1173
Rp1174
(dp1175
g18
F0.5
sg19
I91910
sg20
g21
((dp1176
I00
I91626
sI01
I284
stp1177
Rp1178
sg25
I2
sg26
F91911.0
sbs(g9
Vcontains(scope)
p1179
tp1180
g0
(g14
g2
Ntp1181
Rp1182
(dp1183
g18
F0.5
sg19
I91910
sg20
g21
((dp1184
I00
I91714
sI01
I196
stp1185
Rp1186
sg25
I2
sg26
F91911.0
sbs(g9
Vcontains(mental)
p1187
tp1188
g0
(g14
g2
Ntp1189
Rp1190
(dp1191
g18
F0.5
sg19
I91910
sg20
g21
((dp1192
I00
I91879
sI01
I31
stp1193
Rp1194
sg25
I2
sg26
F91911.0
sbs(g9
Vcontains(get)
p1195
tp1196
g0
(g14
g2
Ntp1197
Rp1198
(dp1199
g18
F0.5
sg19
I91910
sg20
g21
((dp1200
I00
I88992
sI01
I2918
stp1201
Rp1202
sg25
I2
sg26
F91911.0
sbs(g8
Vcontains(fault)
p1203
tp1204
g0
(g14
g2
Ntp1205
Rp1206
(dp1207
g18
F0.5
sg19
I16667
sg20
g21
((dp1208
I00
I16663
sI01
I4
stp1209
Rp1210
sg25
I2
sg26
F16668.0
sbs(g9
Vcontains(sincer)
p1211
tp1212
g0
(g14
g2
Ntp1213
Rp1214
(dp1215
g18
F0.5
sg19
I91910
sg20
g21
((dp1216
I00
I91889
sI01
I21
stp1217
Rp1218
sg25
I2
sg26
F91911.0
sbs(g8
Vcontains(weak)
p1219
tp1220
g0
(g14
g2
Ntp1221
Rp1222
(dp1223
g18
F0.5
sg19
I16667
sg20
g21
((dp1224
I00
I16643
sI01
I24
stp1225
Rp1226
sg25
I2
sg26
F16668.0
sbs(g9
Vcontains(empti)
p1227
tp1228
g0
(g14
g2
Ntp1229
Rp1230
(dp1231
g18
F0.5
sg19
I91910
sg20
g21
((dp1232
I00
I91907
sI01
I3
stp1233
Rp1234
sg25
I2
sg26
F91911.0
sbs(g9
Vcontains(pleasur)
p1235
tp1236
g0
(g14
g2
Ntp1237
Rp1238
(dp1239
g18
F0.5
sg19
I91910
sg20
g21
((dp1240
I00
I91824
sI01
I86
stp1241
Rp1242
sg25
I2
sg26
F91911.0
sbs(g9
Vcontains(pleasant)
p1243
tp1244
g0
(g14
g2
Ntp1245
Rp1246
(dp1247
g18
F0.5
sg19
I91910
sg20
g21
((dp1248
I00
I91735
sI01
I175
stp1249
Rp1250
sg25
I2
sg26
F91911.0
sbs(g8
Vcontains(free)
p1251
tp1252
g0
(g14
g2
Ntp1253
Rp1254
(dp1255
g18
F0.5
sg19
I16667
sg20
g21
((dp1256
I00
I16664
sI01
I3
stp1257
Rp1258
sg25
I2
sg26
F16668.0
sbs(g8
Vcontains(bunch)
p1259
tp1260
g0
(g14
g2
Ntp1261
Rp1262
(dp1263
g18
F0.5
sg19
I16667
sg20
g21
((dp1264
I00
I16660
sI01
I7
stp1265
Rp1266
sg25
I2
sg26
F16668.0
sbs(g9
Vcontains(avail)
p1267
tp1268
g0
(g14
g2
Ntp1269
Rp1270
(dp1271
g18
F0.5
sg19
I91910
sg20
g21
((dp1272
I00
I91299
sI01
I611
stp1273
Rp1274
sg25
I2
sg26
F91911.0
sbs(g8
Vcontains(unabl)
p1275
tp1276
g0
(g14
g2
Ntp1277
Rp1278
(dp1279
g18
F0.5
sg19
I16667
sg20
g21
((dp1280
I00
I16611
sI01
I56
stp1281
Rp1282
sg25
I2
sg26
F16668.0
sbs(g9
Vcontains(expens)
p1283
tp1284
g0
(g14
g2
Ntp1285
Rp1286
(dp1287
g18
F0.5
sg19
I91910
sg20
g21
((dp1288
I00
I91900
sI01
I10
stp1289
Rp1290
sg25
I2
sg26
F91911.0
sbs(g9
Vcontains(insult)
p1291
tp1292
g0
(g14
g2
Ntp1293
Rp1294
(dp1295
g18
F0.5
sg19
I91910
sg20
g21
((dp1296
I00
I91909
sI01
I1
stp1297
Rp1298
sg25
I2
sg26
F91911.0
sbs(g8
Vcontains(crisi)
p1299
tp1300
g0
(g14
g2
Ntp1301
Rp1302
(dp1303
g18
F0.5
sg19
I16667
sg20
g21
((dp1304
I00
I16665
sI01
I2
stp1305
Rp1306
sg25
I2
sg26
F16668.0
sbs(g8
Vcontains(fake)
p1307
tp1308
g0
(g14
g2
Ntp1309
Rp1310
(dp1311
g18
F0.5
sg19
I16667
sg20
g21
((dp1312
I00
I16654
sI01
I13
stp1313
Rp1314
sg25
I2
sg26
F16668.0
sbs(g9
Vcontains(fun)
p1315
tp1316
g0
(g14
g2
Ntp1317
Rp1318
(dp1319
g18
F0.5
sg19
I91910
sg20
g21
((dp1320
I00
I87973
sI01
I3937
stp1321
Rp1322
sg25
I2
sg26
F91911.0
sbs(g9
Vcontains(commun)
p1323
tp1324
g0
(g14
g2
Ntp1325
Rp1326
(dp1327
g18
F0.5
sg19
I91910
sg20
g21
((dp1328
I00
I91076
sI01
I834
stp1329
Rp1330
sg25
I2
sg26
F91911.0
sbs(g9
Vcontains(struggl)
p1331
tp1332
g0
(g14
g2
Ntp1333
Rp1334
(dp1335
g18
F0.5
sg19
I91910
sg20
g21
((dp1336
I00
I91888
sI01
I22
stp1337
Rp1338
sg25
I2
sg26
F91911.0
sbs(g8
Vcontains(initi)
p1339
tp1340
g0
(g14
g2
Ntp1341
Rp1342
(dp1343
g18
F0.5
sg19
I16667
sg20
g21
((dp1344
I00
I16658
sI01
I9
stp1345
Rp1346
sg25
I2
sg26
F16668.0
sbs(g8
Vcontains(con)
p1347
tp1348
g0
(g14
g2
Ntp1349
Rp1350
(dp1351
g18
F0.5
sg19
I16667
sg20
g21
((dp1352
I00
I16644
sI01
I23
stp1353
Rp1354
sg25
I2
sg26
F16668.0
sbs(g8
Vcontains(break)
p1355
tp1356
g0
(g14
g2
Ntp1357
Rp1358
(dp1359
g18
F0.5
sg19
I16667
sg20
g21
((dp1360
I00
I16577
sI01
I90
stp1361
Rp1362
sg25
I2
sg26
F16668.0
sbs(g9
Vcontains(horribl)
p1363
tp1364
g0
(g14
g2
Ntp1365
Rp1366
(dp1367
g18
F0.5
sg19
I91910
sg20
g21
((dp1368
I00
I91907
sI01
I3
stp1369
Rp1370
sg25
I2
sg26
F91911.0
sbs(g8
Vcontains(lucki)
p1371
tp1372
g0
(g14
g2
Ntp1373
Rp1374
(dp1375
g18
F0.5
sg19
I16667
sg20
g21
((dp1376
I00
I16667
stp1377
Rp1378
sg25
I2
sg26
F16668.0
sbs(g9
Vcontains(unnecessarili)
p1379
tp1380
g0
(g14
g2
Ntp1381
Rp1382
(dp1383
g18
F0.5
sg19
I91910
sg20
g21
((dp1384
I00
I91909
sI01
I1
stp1385
Rp1386
sg25
I2
sg26
F91911.0
sbs(g8
Vcontains(highli)
p1387
tp1388
g0
(g14
g2
Ntp1389
Rp1390
(dp1391
g18
F0.5
sg19
I16667
sg20
g21
((dp1392
I00
I16657
sI01
I10
stp1393
Rp1394
sg25
I2
sg26
F16668.0
sbs(g8
Vcontains(incent)
p1395
tp1396
g0
(g14
g2
Ntp1397
Rp1398
(dp1399
g18
F0.5
sg19
I16667
sg20
g21
((dp1400
I00
I16651
sI01
I16
stp1401
Rp1402
sg25
I2
sg26
F16668.0
sbs(g9
Vcontains(better)
p1403
tp1404
g0
(g14
g2
Ntp1405
Rp1406
(dp1407
g18
F0.5
sg19
I91910
sg20
g21
((dp1408
I00
I90460
sI01
I1450
stp1409
Rp1410
sg25
I2
sg26
F91911.0
sbs(g9
Vcontains(honestli)
p1411
tp1412
g0
(g14
g2
Ntp1413
Rp1414
(dp1415
g18
F0.5
sg19
I91910
sg20
g21
((dp1416
I00
I91840
sI01
I70
stp1417
Rp1418
sg25
I2
sg26
F91911.0
sbs(g9
Vcontains(fair)
p1419
tp1420
g0
(g14
g2
Ntp1421
Rp1422
(dp1423
g18
F0.5
sg19
I91910
sg20
g21
((dp1424
I00
I91615
sI01
I295
stp1425
Rp1426
sg25
I2
sg26
F91911.0
sbs(g8
Vcontains(insur)
p1427
tp1428
g0
(g14
g2
Ntp1429
Rp1430
(dp1431
g18
F0.5
sg19
I16667
sg20
g21
((dp1432
I00
I16663
sI01
I4
stp1433
Rp1434
sg25
I2
sg26
F16668.0
sbs(g8
Vcontains(rough)
p1435
tp1436
g0
(g14
g2
Ntp1437
Rp1438
(dp1439
g18
F0.5
sg19
I16667
sg20
g21
((dp1440
I00
I16644
sI01
I23
stp1441
Rp1442
sg25
I2
sg26
F16668.0
sbs(g8
Vcontains(tri)
p1443
tp1444
g0
(g14
g2
Ntp1445
Rp1446
(dp1447
g18
F0.5
sg19
I16667
sg20
g21
((dp1448
I00
I16524
sI01
I143
stp1449
Rp1450
sg25
I2
sg26
F16668.0
sbs(g9
Vcontains(inconsist)
p1451
tp1452
g0
(g14
g2
Ntp1453
Rp1454
(dp1455
g18
F0.5
sg19
I91910
sg20
g21
((dp1456
I00
I91893
sI01
I17
stp1457
Rp1458
sg25
I2
sg26
F91911.0
sbs(g8
Vcontains(wonder)
p1459
tp1460
g0
(g14
g2
Ntp1461
Rp1462
(dp1463
g18
F0.5
sg19
I16667
sg20
g21
((dp1464
I00
I16663
sI01
I4
stp1465
Rp1466
sg25
I2
sg26
F16668.0
sbs(g8
Vcontains(disturb)
p1467
tp1468
g0
(g14
g2
Ntp1469
Rp1470
(dp1471
g18
F0.5
sg19
I16667
sg20
g21
((dp1472
I00
I16662
sI01
I5
stp1473
Rp1474
sg25
I2
sg26
F16668.0
sbs(g9
Vcontains(proud)
p1475
tp1476
g0
(g14
g2
Ntp1477
Rp1478
(dp1479
g18
F0.5
sg19
I91910
sg20
g21
((dp1480
I00
I91782
sI01
I128
stp1481
Rp1482
sg25
I2
sg26
F91911.0
sbs(g8
Vcontains(uncomfort)
p1483
tp1484
g0
(g14
g2
Ntp1485
Rp1486
(dp1487
g18
F0.5
sg19
I16667
sg20
g21
((dp1488
I00
I16644
sI01
I23
stp1489
Rp1490
sg25
I2
sg26
F16668.0
sbs(g8
Vcontains(badli)
p1491
tp1492
g0
(g14
g2
Ntp1493
Rp1494
(dp1495
g18
F0.5
sg19
I16667
sg20
g21
((dp1496
I00
I16649
sI01
I18
stp1497
Rp1498
sg25
I2
sg26
F16668.0
sbs(g9
Vcontains(miss)
p1499
tp1500
g0
(g14
g2
Ntp1501
Rp1502
(dp1503
g18
F0.5
sg19
I91910
sg20
g21
((dp1504
I00
I91839
sI01
I71
stp1505
Rp1506
sg25
I2
sg26
F91911.0
sbs(g9
Vcontains(sure)
p1507
tp1508
g0
(g14
g2
Ntp1509
Rp1510
(dp1511
g18
F0.5
sg19
I91910
sg20
g21
((dp1512
I00
I90842
sI01
I1068
stp1513
Rp1514
sg25
I2
sg26
F91911.0
sbs(g8
Vcontains(sure)
p1515
tp1516
g0
(g14
g2
Ntp1517
Rp1518
(dp1519
g18
F0.5
sg19
I16667
sg20
g21
((dp1520
I00
I16663
sI01
I4
stp1521
Rp1522
sg25
I2
sg26
F16668.0
sbs(g8
Vcontains(unhappi)
p1523
tp1524
g0
(g14
g2
Ntp1525
Rp1526
(dp1527
g18
F0.5
sg19
I16667
sg20
g21
((dp1528
I00
I16626
sI01
I41
stp1529
Rp1530
sg25
I2
sg26
F16668.0
sbs(g8
Vcontains(top)
p1531
tp1532
g0
(g14
g2
Ntp1533
Rp1534
(dp1535
g18
F0.5
sg19
I16667
sg20
g21
((dp1536
I00
I16655
sI01
I12
stp1537
Rp1538
sg25
I2
sg26
F16668.0
sbs(g8
Vcontains(enjoy)
p1539
tp1540
g0
(g14
g2
Ntp1541
Rp1542
(dp1543
g18
F0.5
sg19
I16667
sg20
g21
((dp1544
I00
I16648
sI01
I19
stp1545
Rp1546
sg25
I2
sg26
F16668.0
sbs(g9
Vcontains(wonder)
p1547
tp1548
g0
(g14
g2
Ntp1549
Rp1550
(dp1551
g18
F0.5
sg19
I91910
sg20
g21
((dp1552
I00
I91124
sI01
I786
stp1553
Rp1554
sg25
I2
sg26
F91911.0
sbs(g9
Vcontains(abl)
p1555
tp1556
g0
(g14
g2
Ntp1557
Rp1558
(dp1559
g18
F0.5
sg19
I91910
sg20
g21
((dp1560
I00
I90359
sI01
I1551
stp1561
Rp1562
sg25
I2
sg26
F91911.0
sbs(g8
Vcontains(compens)
p1563
tp1564
g0
(g14
g2
Ntp1565
Rp1566
(dp1567
g18
F0.5
sg19
I16667
sg20
g21
((dp1568
I00
I16569
sI01
I98
stp1569
Rp1570
sg25
I2
sg26
F16668.0
sbs(g8
Vcontains(non)
p1571
tp1572
g0
(g14
g2
Ntp1573
Rp1574
(dp1575
g18
F0.5
sg19
I16667
sg20
g21
((dp1576
I00
I16634
sI01
I33
stp1577
Rp1578
sg25
I2
sg26
F16668.0
sbs(g8
Vcontains(attract)
p1579
tp1580
g0
(g14
g2
Ntp1581
Rp1582
(dp1583
g18
F0.5
sg19
I16667
sg20
g21
((dp1584
I00
I16665
sI01
I2
stp1585
Rp1586
sg25
I2
sg26
F16668.0
sbs(g9
Vcontains(lose)
p1587
tp1588
g0
(g14
g2
Ntp1589
Rp1590
(dp1591
g18
F0.5
sg19
I91910
sg20
g21
((dp1592
I00
I91886
sI01
I24
stp1593
Rp1594
sg25
I2
sg26
F91911.0
sbs(g9
Vcontains(discount)
p1595
tp1596
g0
(g14
g2
Ntp1597
Rp1598
(dp1599
g18
F0.5
sg19
I91910
sg20
g21
((dp1600
I00
I91830
sI01
I80
stp1601
Rp1602
sg25
I2
sg26
F91911.0
sbs(g9
Vcontains(skill)
p1603
tp1604
g0
(g14
g2
Ntp1605
Rp1606
(dp1607
g18
F0.5
sg19
I91910
sg20
g21
((dp1608
I00
I90144
sI01
I1766
stp1609
Rp1610
sg25
I2
sg26
F91911.0
sbs(g9
Vcontains(irrat)
p1611
tp1612
g0
(g14
g2
Ntp1613
Rp1614
(dp1615
g18
F0.5
sg19
I91910
sg20
g21
((dp1616
I00
I91910
stp1617
Rp1618
sg25
I1
sg26
F91910.5
sbs(g8
Vcontains(told)
p1619
tp1620
g0
(g14
g2
Ntp1621
Rp1622
(dp1623
g18
F0.5
sg19
I16667
sg20
g21
((dp1624
I00
I16635
sI01
I32
stp1625
Rp1626
sg25
I2
sg26
F16668.0
sbs(g9
Vcontains(solv)
p1627
tp1628
g0
(g14
g2
Ntp1629
Rp1630
(dp1631
g18
F0.5
sg19
I91910
sg20
g21
((dp1632
I00
I91757
sI01
I153
stp1633
Rp1634
sg25
I2
sg26
F91911.0
sbs(g8
Vcontains(grow)
p1635
tp1636
g0
(g14
g2
Ntp1637
Rp1638
(dp1639
g18
F0.5
sg19
I16667
sg20
g21
((dp1640
I00
I16600
sI01
I67
stp1641
Rp1642
sg25
I2
sg26
F16668.0
sbs(g8
Vcontains(good)
p1643
tp1644
g0
(g14
g2
Ntp1645
Rp1646
(dp1647
g18
F0.5
sg19
I16667
sg20
g21
((dp1648
I00
I16647
sI01
I20
stp1649
Rp1650
sg25
I2
sg26
F16668.0
sbs(g8
Vcontains(will)
p1651
tp1652
g0
(g14
g2
Ntp1653
Rp1654
(dp1655
g18
F0.5
sg19
I16667
sg20
g21
((dp1656
I00
I16663
sI01
I4
stp1657
Rp1658
sg25
I2
sg26
F16668.0
sbs(g8
Vcontains(brutal)
p1659
tp1660
g0
(g14
g2
Ntp1661
Rp1662
(dp1663
g18
F0.5
sg19
I16667
sg20
g21
((dp1664
I00
I16655
sI01
I12
stp1665
Rp1666
sg25
I2
sg26
F16668.0
sbs(g9
Vcontains(serious)
p1667
tp1668
g0
(g14
g2
Ntp1669
Rp1670
(dp1671
g18
F0.5
sg19
I91910
sg20
g21
((dp1672
I00
I91904
sI01
I6
stp1673
Rp1674
sg25
I2
sg26
F91911.0
sbs(g8
Vcontains(warn)
p1675
tp1676
g0
(g14
g2
Ntp1677
Rp1678
(dp1679
g18
F0.5
sg19
I16667
sg20
g21
((dp1680
I00
I16658
sI01
I9
stp1681
Rp1682
sg25
I2
sg26
F16668.0
sbs(g9
Vcontains(extrem)
p1683
tp1684
g0
(g14
g2
Ntp1685
Rp1686
(dp1687
g18
F0.5
sg19
I91910
sg20
g21
((dp1688
I00
I91701
sI01
I209
stp1689
Rp1690
sg25
I2
sg26
F91911.0
sbs(g8
Vcontains(succeed)
p1691
tp1692
g0
(g14
g2
Ntp1693
Rp1694
(dp1695
g18
F0.5
sg19
I16667
sg20
g21
((dp1696
I00
I16661
sI01
I6
stp1697
Rp1698
sg25
I2
sg26
F16668.0
sbs(g8
Vcontains(slave)
p1699
tp1700
g0
(g14
g2
Ntp1701
Rp1702
(dp1703
g18
F0.5
sg19
I16667
sg20
g21
((dp1704
I00
I16656
sI01
I11
stp1705
Rp1706
sg25
I2
sg26
F16668.0
sbs(g8
Vcontains(longer)
p1707
tp1708
g0
(g14
g2
Ntp1709
Rp1710
(dp1711
g18
F0.5
sg19
I16667
sg20
g21
((dp1712
I00
I16639
sI01
I28
stp1713
Rp1714
sg25
I2
sg26
F16668.0
sbs(g8
Vcontains(complaint)
p1715
tp1716
g0
(g14
g2
Ntp1717
Rp1718
(dp1719
g18
F0.5
sg19
I16667
sg20
g21
((dp1720
I00
I16619
sI01
I48
stp1721
Rp1722
sg25
I2
sg26
F16668.0
sbs(g8
Vcontains(award)
p1723
tp1724
g0
(g14
g2
Ntp1725
Rp1726
(dp1727
g18
F0.5
sg19
I16667
sg20
g21
((dp1728
I00
I16666
sI01
I1
stp1729
Rp1730
sg25
I2
sg26
F16668.0
sbs(g8
Vcontains(least)
p1731
tp1732
g0
(g14
g2
Ntp1733
Rp1734
(dp1735
g18
F0.5
sg19
I16667
sg20
g21
((dp1736
I00
I16486
sI01
I181
stp1737
Rp1738
sg25
I2
sg26
F16668.0
sbs(g9
Vcontains(problem)
p1739
tp1740
g0
(g14
g2
Ntp1741
Rp1742
(dp1743
g18
F0.5
sg19
I91910
sg20
g21
((dp1744
I00
I91515
sI01
I395
stp1745
Rp1746
sg25
I2
sg26
F91911.0
sbs(g8
Vcontains(unpredict)
p1747
tp1748
g0
(g14
g2
Ntp1749
Rp1750
(dp1751
g18
F0.5
sg19
I16667
sg20
g21
((dp1752
I00
I16654
sI01
I13
stp1753
Rp1754
sg25
I2
sg26
F16668.0
sbs(g8
Vcontains(small)
p1755
tp1756
g0
(g14
g2
Ntp1757
Rp1758
(dp1759
g18
F0.5
sg19
I16667
sg20
g21
((dp1760
I00
I16474
sI01
I193
stp1761
Rp1762
sg25
I2
sg26
F16668.0
sbs(g8
Vcontains(encourag)
p1763
tp1764
g0
(g14
g2
Ntp1765
Rp1766
(dp1767
g18
F0.5
sg19
I16667
sg20
g21
((dp1768
I00
I16628
sI01
I39
stp1769
Rp1770
sg25
I2
sg26
F16668.0
sbs(g8
Vcontains(leav)
p1771
tp1772
g0
(g14
g2
Ntp1773
Rp1774
(dp1775
g18
F0.5
sg19
I16667
sg20
g21
((dp1776
I00
I16538
sI01
I129
stp1777
Rp1778
sg25
I2
sg26
F16668.0
sbs(g8
Vcontains(offer)
p1779
tp1780
g0
(g14
g2
Ntp1781
Rp1782
(dp1783
g18
F0.5
sg19
I16667
sg20
g21
((dp1784
I00
I16622
sI01
I45
stp1785
Rp1786
sg25
I2
sg26
F16668.0
sbs(g8
Vcontains(greatli)
p1787
tp1788
g0
(g14
g2
Ntp1789
Rp1790
(dp1791
g18
F0.5
sg19
I16667
sg20
g21
((dp1792
I00
I16666
sI01
I1
stp1793
Rp1794
sg25
I2
sg26
F16668.0
sbs(g8
Vcontains(short)
p1795
tp1796
g0
(g14
g2
Ntp1797
Rp1798
(dp1799
g18
F0.5
sg19
I16667
sg20
g21
((dp1800
I00
I16643
sI01
I24
stp1801
Rp1802
sg25
I2
sg26
F16668.0
sbs(g9
Vcontains(small)
p1803
tp1804
g0
(g14
g2
Ntp1805
Rp1806
(dp1807
g18
F0.5
sg19
I91910
sg20
g21
((dp1808
I00
I91869
sI01
I41
stp1809
Rp1810
sg25
I2
sg26
F91911.0
sbs(g8
Vcontains(peac)
p1811
tp1812
g0
(g14
g2
Ntp1813
Rp1814
(dp1815
g18
F0.5
sg19
I16667
sg20
g21
((dp1816
I00
I16665
sI01
I2
stp1817
Rp1818
sg25
I2
sg26
F16668.0
sbs(g9
Vcontains(complaint)
p1819
tp1820
g0
(g14
g2
Ntp1821
Rp1822
(dp1823
g18
F0.5
sg19
I91910
sg20
g21
((dp1824
I00
I91879
sI01
I31
stp1825
Rp1826
sg25
I2
sg26
F91911.0
sbs(g8
Vcontains(corpor)
p1827
tp1828
g0
(g14
g2
Ntp1829
Rp1830
(dp1831
g18
F0.5
sg19
I16667
sg20
g21
((dp1832
I00
I16628
sI01
I39
stp1833
Rp1834
sg25
I2
sg26
F16668.0
sbs(g9
Vcontains(cannot)
p1835
tp1836
g0
(g14
g2
Ntp1837
Rp1838
(dp1839
g18
F0.5
sg19
I91910
sg20
g21
((dp1840
I00
I91868
sI01
I42
stp1841
Rp1842
sg25
I2
sg26
F91911.0
sbs(g9
Vcontains(like)
p1843
tp1844
g0
(g14
g2
Ntp1845
Rp1846
(dp1847
g18
F0.5
sg19
I91910
sg20
g21
((dp1848
I00
I90195
sI01
I1715
stp1849
Rp1850
sg25
I2
sg26
F91911.0
sbs(g9
Vcontains(luck)
p1851
tp1852
g0
(g14
g2
Ntp1853
Rp1854
(dp1855
g18
F0.5
sg19
I91910
sg20
g21
((dp1856
I00
I91860
sI01
I50
stp1857
Rp1858
sg25
I2
sg26
F91911.0
sbs(g9
Vcontains(initi)
p1859
tp1860
g0
(g14
g2
Ntp1861
Rp1862
(dp1863
g18
F0.5
sg19
I91910
sg20
g21
((dp1864
I00
I91795
sI01
I115
stp1865
Rp1866
sg25
I2
sg26
F91911.0
sbs(g9
Vcontains(unorgan)
p1867
tp1868
g0
(g14
g2
Ntp1869
Rp1870
(dp1871
g18
F0.5
sg19
I91910
sg20
g21
((dp1872
I00
I91889
sI01
I21
stp1873
Rp1874
sg25
I2
sg26
F91911.0
sbs(g8
Vcontains(take)
p1875
tp1876
g0
(g14
g2
Ntp1877
Rp1878
(dp1879
g18
F0.5
sg19
I16667
sg20
g21
((dp1880
I00
I16496
sI01
I171
stp1881
Rp1882
sg25
I2
sg26
F16668.0
sbs(g9
Vcontains(less)
p1883
tp1884
g0
(g14
g2
Ntp1885
Rp1886
(dp1887
g18
F0.5
sg19
I91910
sg20
g21
((dp1888
I00
I91688
sI01
I222
stp1889
Rp1890
sg25
I2
sg26
F91911.0
sbs(g9
Vcontains(bore)
p1891
tp1892
g0
(g14
g2
Ntp1893
Rp1894
(dp1895
g18
F0.5
sg19
I91910
sg20
g21
((dp1896
I00
I91869
sI01
I41
stp1897
Rp1898
sg25
I2
sg26
F91911.0
sbs(g9
Vcontains(fail)
p1899
tp1900
g0
(g14
g2
Ntp1901
Rp1902
(dp1903
g18
F0.5
sg19
I91910
sg20
g21
((dp1904
I00
I91907
sI01
I3
stp1905
Rp1906
sg25
I2
sg26
F91911.0
sbs(g8
Vcontains(miser)
p1907
tp1908
g0
(g14
g2
Ntp1909
Rp1910
(dp1911
g18
F0.5
sg19
I16667
sg20
g21
((dp1912
I00
I16631
sI01
I36
stp1913
Rp1914
sg25
I2
sg26
F16668.0
sbs(g8
Vcontains(proud)
p1915
tp1916
g0
(g14
g2
Ntp1917
Rp1918
(dp1919
g18
F0.5
sg19
I16667
sg20
g21
((dp1920
I00
I16667
stp1921
Rp1922
sg25
I2
sg26
F16668.0
sbs(g9
Vcontains(irrelev)
p1923
tp1924
g0
(g14
g2
Ntp1925
Rp1926
(dp1927
g18
F0.5
sg19
I91910
sg20
g21
((dp1928
I00
I91910
stp1929
Rp1930
sg25
I2
sg26
F91911.0
sbs(g9
Vcontains(weak)
p1931
tp1932
g0
(g14
g2
Ntp1933
Rp1934
(dp1935
g18
F0.5
sg19
I91910
sg20
g21
((dp1936
I00
I91904
sI01
I6
stp1937
Rp1938
sg25
I2
sg26
F91911.0
sbs(g9
Vcontains(wrong)
p1939
tp1940
g0
(g14
g2
Ntp1941
Rp1942
(dp1943
g18
F0.5
sg19
I91910
sg20
g21
((dp1944
I00
I91893
sI01
I17
stp1945
Rp1946
sg25
I2
sg26
F91911.0
sbs(g9
Vcontains(environ)
p1947
tp1948
g0
(g14
g2
Ntp1949
Rp1950
(dp1951
g18
F0.5
sg19
I91910
sg20
g21
((dp1952
I00
I87766
sI01
I4144
stp1953
Rp1954
sg25
I2
sg26
F91911.0
sbs(g9
Vcontains(exhaust)
p1955
tp1956
g0
(g14
g2
Ntp1957
Rp1958
(dp1959
g18
F0.5
sg19
I91910
sg20
g21
((dp1960
I00
I91909
sI01
I1
stp1961
Rp1962
sg25
I2
sg26
F91911.0
sbs(g9
Vcontains(perform)
p1963
tp1964
g0
(g14
g2
Ntp1965
Rp1966
(dp1967
g18
F0.5
sg19
I91910
sg20
g21
((dp1968
I00
I91497
sI01
I413
stp1969
Rp1970
sg25
I2
sg26
F91911.0
sbs(g9
Vcontains(unnecessari)
p1971
tp1972
g0
(g14
g2
Ntp1973
Rp1974
(dp1975
g18
F0.5
sg19
I91910
sg20
g21
((dp1976
I00
I91906
sI01
I4
stp1977
Rp1978
sg25
I2
sg26
F91911.0
sbs(g8
Vcontains(cant)
p1979
tp1980
g0
(g14
g2
Ntp1981
Rp1982
(dp1983
g18
F0.5
sg19
I16667
sg20
g21
((dp1984
I00
I16652
sI01
I15
stp1985
Rp1986
sg25
I2
sg26
F16668.0
sbs(g9
Vcontains(free)
p1987
tp1988
g0
(g14
g2
Ntp1989
Rp1990
(dp1991
g18
F0.5
sg19
I91910
sg20
g21
((dp1992
I00
I90936
sI01
I974
stp1993
Rp1994
sg25
I2
sg26
F91911.0
sbs(g9
Vcontains(illeg)
p1995
tp1996
g0
(g14
g2
Ntp1997
Rp1998
(dp1999
g18
F0.5
sg19
I91910
sg20
g21
((dp2000
I00
I91910
stp2001
Rp2002
sg25
I2
sg26
F91911.0
sbs(g8
Vcontains(unfriendli)
p2003
tp2004
g0
(g14
g2
Ntp2005
Rp2006
(dp2007
g18
F0.5
sg19
I16667
sg20
g21
((dp2008
I00
I16665
sI01
I2
stp2009
Rp2010
sg25
I2
sg26
F16668.0
sbs(g9
Vcontains(oper)
p2011
tp2012
g0
(g14
g2
Ntp2013
Rp2014
(dp2015
g18
F0.5
sg19
I91910
sg20
g21
((dp2016
I00
I91544
sI01
I366
stp2017
Rp2018
sg25
I2
sg26
F91911.0
sbs(g9
Vcontains(help)
p2019
tp2020
g0
(g14
g2
Ntp2021
Rp2022
(dp2023
g18
F0.5
sg19
I91910
sg20
g21
((dp2024
I00
I89363
sI01
I2547
stp2025
Rp2026
sg25
I2
sg26
F91911.0
sbs(g8
Vcontains(unbeliev)
p2027
tp2028
g0
(g14
g2
Ntp2029
Rp2030
(dp2031
g18
F0.5
sg19
I16667
sg20
g21
((dp2032
I00
I16657
sI01
I10
stp2033
Rp2034
sg25
I2
sg26
F16668.0
sbs(g9
Vcontains(quit)
p2035
tp2036
g0
(g14
g2
Ntp2037
Rp2038
(dp2039
g18
F0.5
sg19
I91910
sg20
g21
((dp2040
I00
I91708
sI01
I202
stp2041
Rp2042
sg25
I2
sg26
F91911.0
sbs(g8
Vcontains(minimum)
p2043
tp2044
g0
(g14
g2
Ntp2045
Rp2046
(dp2047
g18
F0.5
sg19
I16667
sg20
g21
((dp2048
I00
I16647
sI01
I20
stp2049
Rp2050
sg25
I2
sg26
F16668.0
sbs(g9
Vcontains(opportun)
p2051
tp2052
g0
(g14
g2
Ntp2053
Rp2054
(dp2055
g18
F0.5
sg19
I91910
sg20
g21
((dp2056
I00
I89261
sI01
I2649
stp2057
Rp2058
sg25
I2
sg26
F91911.0
sbs(g8
Vcontains(awesom)
p2059
tp2060
g0
(g14
g2
Ntp2061
Rp2062
(dp2063
g18
F0.5
sg19
I16667
sg20
g21
((dp2064
I00
I16667
stp2065
Rp2066
sg25
I2
sg26
F16668.0
sbs(g9
Vcontains(unfortun)
p2067
tp2068
g0
(g14
g2
Ntp2069
Rp2070
(dp2071
g18
F0.5
sg19
I91910
sg20
g21
((dp2072
I00
I91877
sI01
I33
stp2073
Rp2074
sg25
I2
sg26
F91911.0
sbs(g8
Vcontains(love)
p2075
tp2076
g0
(g14
g2
Ntp2077
Rp2078
(dp2079
g18
F0.5
sg19
I16667
sg20
g21
((dp2080
I00
I16654
sI01
I13
stp2081
Rp2082
sg25
I2
sg26
F16668.0
sbs(g9
Vcontains(hardli)
p2083
tp2084
g0
(g14
g2
Ntp2085
Rp2086
(dp2087
g18
F0.5
sg19
I91910
sg20
g21
((dp2088
I00
I91903
sI01
I7
stp2089
Rp2090
sg25
I2
sg26
F91911.0
sbs(g8
Vcontains(start)
p2091
tp2092
g0
(g14
g2
Ntp2093
Rp2094
(dp2095
g18
F0.5
sg19
I16667
sg20
g21
((dp2096
I00
I16390
sI01
I277
stp2097
Rp2098
sg25
I2
sg26
F16668.0
sbs(g8
Vcontains(relax)
p2099
tp2100
g0
(g14
g2
Ntp2101
Rp2102
(dp2103
g18
F0.5
sg19
I16667
sg20
g21
((dp2104
I00
I16655
sI01
I12
stp2105
Rp2106
sg25
I2
sg26
F16668.0
sbs(g9
Vcontains(includ)
p2107
tp2108
g0
(g14
g2
Ntp2109
Rp2110
(dp2111
g18
F0.5
sg19
I91910
sg20
g21
((dp2112
I00
I91715
sI01
I195
stp2113
Rp2114
sg25
I2
sg26
F91911.0
sbs(g9
Vcontains(fals)
p2115
tp2116
g0
(g14
g2
Ntp2117
Rp2118
(dp2119
g18
F0.5
sg19
I91910
sg20
g21
((dp2120
I00
I91909
sI01
I1
stp2121
Rp2122
sg25
I2
sg26
F91911.0
sbs(g9
Vcontains(con)
p2123
tp2124
g0
(g14
g2
Ntp2125
Rp2126
(dp2127
g18
F0.5
sg19
I91910
sg20
g21
((dp2128
I00
I91782
sI01
I128
stp2129
Rp2130
sg25
I2
sg26
F91911.0
sbs(g8
Vcontains(discount)
p2131
tp2132
g0
(g14
g2
Ntp2133
Rp2134
(dp2135
g18
F0.5
sg19
I16667
sg20
g21
((dp2136
I00
I16659
sI01
I8
stp2137
Rp2138
sg25
I2
sg26
F16668.0
sbs(g8
Vcontains(gain)
p2139
tp2140
g0
(g14
g2
Ntp2141
Rp2142
(dp2143
g18
F0.5
sg19
I16667
sg20
g21
((dp2144
I00
I16639
sI01
I28
stp2145
Rp2146
sg25
I2
sg26
F16668.0
sbs(g9
Vcontains(focu)
p2147
tp2148
g0
(g14
g2
Ntp2149
Rp2150
(dp2151
g18
F0.5
sg19
I91910
sg20
g21
((dp2152
I00
I91761
sI01
I149
stp2153
Rp2154
sg25
I2
sg26
F91911.0
sbs(g8
Vcontains(recommend)
p2155
tp2156
g0
(g14
g2
Ntp2157
Rp2158
(dp2159
g18
F0.5
sg19
I16667
sg20
g21
((dp2160
I00
I16638
sI01
I29
stp2161
Rp2162
sg25
I2
sg26
F16668.0
sbs(g8
Vcontains(late)
p2163
tp2164
g0
(g14
g2
Ntp2165
Rp2166
(dp2167
g18
F0.5
sg19
I16667
sg20
g21
((dp2168
I00
I16481
sI01
I186
stp2169
Rp2170
sg25
I2
sg26
F16668.0
sbs(g8
Vcontains(ridicul)
p2171
tp2172
g0
(g14
g2
Ntp2173
Rp2174
(dp2175
g18
F0.5
sg19
I16667
sg20
g21
((dp2176
I00
I16633
sI01
I34
stp2177
Rp2178
sg25
I2
sg26
F16668.0
sbs(g8
Vcontains(struggl)
p2179
tp2180
g0
(g14
g2
Ntp2181
Rp2182
(dp2183
g18
F0.5
sg19
I16667
sg20
g21
((dp2184
I00
I16656
sI01
I11
stp2185
Rp2186
sg25
I2
sg26
F16668.0
sbs(g8
Vcontains(abil)
p2187
tp2188
g0
(g14
g2
Ntp2189
Rp2190
(dp2191
g18
F0.5
sg19
I16667
sg20
g21
((dp2192
I00
I16630
sI01
I37
stp2193
Rp2194
sg25
I2
sg26
F16668.0
sbs(g9
Vcontains(compens)
p2195
tp2196
g0
(g14
g2
Ntp2197
Rp2198
(dp2199
g18
F0.5
sg19
I91910
sg20
g21
((dp2200
I00
I91541
sI01
I369
stp2201
Rp2202
sg25
I2
sg26
F91911.0
sbs(g8
Vcontains(stress)
p2203
tp2204
g0
(g14
g2
Ntp2205
Rp2206
(dp2207
g18
F0.5
sg19
I16667
sg20
g21
((dp2208
I00
I16598
sI01
I69
stp2209
Rp2210
sg25
I2
sg26
F16668.0
sbs(g9
Vcontains(profession)
p2211
tp2212
g0
(g14
g2
Ntp2213
Rp2214
(dp2215
g18
F0.5
sg19
I91910
sg20
g21
((dp2216
I00
I90902
sI01
I1008
stp2217
Rp2218
sg25
I2
sg26
F91911.0
sbs(g8
Vcontains(depend)
p2219
tp2220
g0
(g14
g2
Ntp2221
Rp2222
(dp2223
g18
F0.5
sg19
I16667
sg20
g21
((dp2224
I00
I16576
sI01
I91
stp2225
Rp2226
sg25
I2
sg26
F16668.0
sbs(g9
Vcontains(joy)
p2227
tp2228
g0
(g14
g2
Ntp2229
Rp2230
(dp2231
g18
F0.5
sg19
I91910
sg20
g21
((dp2232
I00
I91830
sI01
I80
stp2233
Rp2234
sg25
I2
sg26
F91911.0
sbs(g8
Vcontains(crazi)
p2235
tp2236
g0
(g14
g2
Ntp2237
Rp2238
(dp2239
g18
F0.5
sg19
I16667
sg20
g21
((dp2240
I00
I16586
sI01
I81
stp2241
Rp2242
sg25
I2
sg26
F16668.0
sbs(g8
Vcontains(support)
p2243
tp2244
g0
(g14
g2
Ntp2245
Rp2246
(dp2247
g18
F0.5
sg19
I16667
sg20
g21
((dp2248
I00
I16553
sI01
I114
stp2249
Rp2250
sg25
I2
sg26
F16668.0
sbs(g9
Vcontains(unfairli)
p2251
tp2252
g0
(g14
g2
Ntp2253
Rp2254
(dp2255
g18
F0.5
sg19
I91910
sg20
g21
((dp2256
I00
I91910
stp2257
Rp2258
sg25
I2
sg26
F91911.0
sbs(g8
Vcontains(unfairli)
p2259
tp2260
g0
(g14
g2
Ntp2261
Rp2262
(dp2263
g18
F0.5
sg19
I16667
sg20
g21
((dp2264
I00
I16656
sI01
I11
stp2265
Rp2266
sg25
I2
sg26
F16668.0
sbs(g8
Vcontains(hire)
p2267
tp2268
g0
(g14
g2
Ntp2269
Rp2270
(dp2271
g18
F0.5
sg19
I16667
sg20
g21
((dp2272
I00
I16616
sI01
I51
stp2273
Rp2274
sg25
I2
sg26
F16668.0
sbs(g8
Vcontains(get)
p2275
tp2276
g0
(g14
g2
Ntp2277
Rp2278
(dp2279
g18
F0.5
sg19
I16667
sg20
g21
((dp2280
I00
I15809
sI01
I858
stp2281
Rp2282
sg25
I2
sg26
F16668.0
sbs(g8
Vcontains(shift)
p2283
tp2284
g0
(g14
g2
Ntp2285
Rp2286
(dp2287
g18
F0.5
sg19
I16667
sg20
g21
((dp2288
I00
I16359
sI01
I308
stp2289
Rp2290
sg25
I2
sg26
F16668.0
sbs(g8
Vcontains(miss)
p2291
tp2292
g0
(g14
g2
Ntp2293
Rp2294
(dp2295
g18
F0.5
sg19
I16667
sg20
g21
((dp2296
I00
I16606
sI01
I61
stp2297
Rp2298
sg25
I2
sg26
F16668.0
sbs(g9
Vcontains(tough)
p2299
tp2300
g0
(g14
g2
Ntp2301
Rp2302
(dp2303
g18
F0.5
sg19
I91910
sg20
g21
((dp2304
I00
I91880
sI01
I30
stp2305
Rp2306
sg25
I2
sg26
F91911.0
sbs(g9
Vcontains(enhanc)
p2307
tp2308
g0
(g14
g2
Ntp2309
Rp2310
(dp2311
g18
F0.5
sg19
I91910
sg20
g21
((dp2312
I00
I91760
sI01
I150
stp2313
Rp2314
sg25
I2
sg26
F91911.0
sbs(g8
Vcontains(forc)
p2315
tp2316
g0
(g14
g2
Ntp2317
Rp2318
(dp2319
g18
F0.5
sg19
I16667
sg20
g21
((dp2320
I00
I16580
sI01
I87
stp2321
Rp2322
sg25
I2
sg26
F16668.0
sbs(g9
Vcontains(mani)
p2323
tp2324
g0
(g14
g2
Ntp2325
Rp2326
(dp2327
g18
F0.5
sg19
I91910
sg20
g21
((dp2328
I00
I88526
sI01
I3384
stp2329
Rp2330
sg25
I2
sg26
F91911.0
sbs(g9
Vcontains(understand)
p2331
tp2332
g0
(g14
g2
Ntp2333
Rp2334
(dp2335
g18
F0.5
sg19
I91910
sg20
g21
((dp2336
I00
I91557
sI01
I353
stp2337
Rp2338
sg25
I2
sg26
F91911.0
sbs(g9
Vcontains(mentor)
p2339
tp2340
g0
(g14
g2
Ntp2341
Rp2342
(dp2343
g18
F0.5
sg19
I91910
sg20
g21
((dp2344
I00
I91794
sI01
I116
stp2345
Rp2346
sg25
I2
sg26
F91911.0
sbs(g8
Vcontains(slow)
p2347
tp2348
g0
(g14
g2
Ntp2349
Rp2350
(dp2351
g18
F0.5
sg19
I16667
sg20
g21
((dp2352
I00
I16387
sI01
I280
stp2353
Rp2354
sg25
I2
sg26
F16668.0
sbs(g9
Vcontains(safeti)
p2355
tp2356
g0
(g14
g2
Ntp2357
Rp2358
(dp2359
g18
F0.5
sg19
I91910
sg20
g21
((dp2360
I00
I91806
sI01
I104
stp2361
Rp2362
sg25
I2
sg26
F91911.0
sbs(g9
Vcontains(bright)
p2363
tp2364
g0
(g14
g2
Ntp2365
Rp2366
(dp2367
g18
F0.5
sg19
I91910
sg20
g21
((dp2368
I00
I91864
sI01
I46
stp2369
Rp2370
sg25
I2
sg26
F91911.0
sbs(g9
Vcontains(end)
p2371
tp2372
g0
(g14
g2
Ntp2373
Rp2374
(dp2375
g18
F0.5
sg19
I91910
sg20
g21
((dp2376
I00
I91501
sI01
I409
stp2377
Rp2378
sg25
I2
sg26
F91911.0
sbs(g8
Vcontains(terribl)
p2379
tp2380
g0
(g14
g2
Ntp2381
Rp2382
(dp2383
g18
F0.5
sg19
I16667
sg20
g21
((dp2384
I00
I16481
sI01
I186
stp2385
Rp2386
sg25
I2
sg26
F16668.0
sbs(g9
Vcontains(forc)
p2387
tp2388
g0
(g14
g2
Ntp2389
Rp2390
(dp2391
g18
F0.5
sg19
I91910
sg20
g21
((dp2392
I00
I91846
sI01
I64
stp2393
Rp2394
sg25
I2
sg26
F91911.0
sbs(g9
Vcontains(imposs)
p2395
tp2396
g0
(g14
g2
Ntp2397
Rp2398
(dp2399
g18
F0.5
sg19
I91910
sg20
g21
((dp2400
I00
I91904
sI01
I6
stp2401
Rp2402
sg25
I2
sg26
F91911.0
sbs(g9
Vcontains(unpleas)
p2403
tp2404
g0
(g14
g2
Ntp2405
Rp2406
(dp2407
g18
F0.5
sg19
I91910
sg20
g21
((dp2408
I00
I91910
stp2409
Rp2410
sg25
I2
sg26
F91911.0
sbs(g9
Vcontains(mundan)
p2411
tp2412
g0
(g14
g2
Ntp2413
Rp2414
(dp2415
g18
F0.5
sg19
I91910
sg20
g21
((dp2416
I00
I91909
sI01
I1
stp2417
Rp2418
sg25
I2
sg26
F91911.0
sbs(g8
Vcontains(unless)
p2419
tp2420
g0
(g14
g2
Ntp2421
Rp2422
(dp2423
g18
F0.5
sg19
I16667
sg20
g21
((dp2424
I00
I16621
sI01
I46
stp2425
Rp2426
sg25
I2
sg26
F16668.0
sbs(g8
Vcontains(tire)
p2427
tp2428
g0
(g14
g2
Ntp2429
Rp2430
(dp2431
g18
F0.5
sg19
I16667
sg20
g21
((dp2432
I00
I16619
sI01
I48
stp2433
Rp2434
sg25
I2
sg26
F16668.0
sbs(g8
Vcontains(unorgan)
p2435
tp2436
g0
(g14
g2
Ntp2437
Rp2438
(dp2439
g18
F0.5
sg19
I16667
sg20
g21
((dp2440
I00
I16653
sI01
I14
stp2441
Rp2442
sg25
I2
sg26
F16668.0
sbs(g8
Vcontains(neg)
p2443
tp2444
g0
(g14
g2
Ntp2445
Rp2446
(dp2447
g18
F0.5
sg19
I16667
sg20
g21
((dp2448
I00
I16569
sI01
I98
stp2449
Rp2450
sg25
I2
sg26
F16668.0
sbs(g8
Vcontains(hardest)
p2451
tp2452
g0
(g14
g2
Ntp2453
Rp2454
(dp2455
g18
F0.5
sg19
I16667
sg20
g21
((dp2456
I00
I16269
sI01
I398
stp2457
Rp2458
sg25
I2
sg26
F16668.0
sbs(g8
Vcontains(transpar)
p2459
tp2460
g0
(g14
g2
Ntp2461
Rp2462
(dp2463
g18
F0.5
sg19
I16667
sg20
g21
((dp2464
I00
I16665
sI01
I2
stp2465
Rp2466
sg25
I2
sg26
F16668.0
sbs(g8
Vcontains(sorri)
p2467
tp2468
g0
(g14
g2
Ntp2469
Rp2470
(dp2471
g18
F0.5
sg19
I16667
sg20
g21
((dp2472
I00
I16644
sI01
I23
stp2473
Rp2474
sg25
I2
sg26
F16668.0
sbs(g8
Vcontains(easi)
p2475
tp2476
g0
(g14
g2
Ntp2477
Rp2478
(dp2479
g18
F0.5
sg19
I16667
sg20
g21
((dp2480
I00
I16661
sI01
I6
stp2481
Rp2482
sg25
I2
sg26
F16668.0
sbs(g9
Vcontains(effect)
p2483
tp2484
g0
(g14
g2
Ntp2485
Rp2486
(dp2487
g18
F0.5
sg19
I91910
sg20
g21
((dp2488
I00
I91502
sI01
I408
stp2489
Rp2490
sg25
I2
sg26
F91911.0
sbs(g8
Vcontains(success)
p2491
tp2492
g0
(g14
g2
Ntp2493
Rp2494
(dp2495
g18
F0.5
sg19
I16667
sg20
g21
((dp2496
I00
I16661
sI01
I6
stp2497
Rp2498
sg25
I2
sg26
F16668.0
sbs(g9
Vcontains(short)
p2499
tp2500
g0
(g14
g2
Ntp2501
Rp2502
(dp2503
g18
F0.5
sg19
I91910
sg20
g21
((dp2504
I00
I91750
sI01
I160
stp2505
Rp2506
sg25
I2
sg26
F91911.0
sbs(g9
Vcontains(product)
p2507
tp2508
g0
(g14
g2
Ntp2509
Rp2510
(dp2511
g18
F0.5
sg19
I91910
sg20
g21
((dp2512
I00
I90816
sI01
I1094
stp2513
Rp2514
sg25
I2
sg26
F91911.0
sbs(g8
Vcontains(hard)
p2515
tp2516
g0
(g14
g2
Ntp2517
Rp2518
(dp2519
g18
F0.5
sg19
I16667
sg20
g21
((dp2520
I00
I14251
sI01
I2416
stp2521
Rp2522
sg25
I2
sg26
F16668.0
sbs(g9
Vcontains(mad)
p2523
tp2524
g0
(g14
g2
Ntp2525
Rp2526
(dp2527
g18
F0.5
sg19
I91910
sg20
g21
((dp2528
I00
I91908
sI01
I2
stp2529
Rp2530
sg25
I2
sg26
F91911.0
sbs(g9
Vcontains(incred)
p2531
tp2532
g0
(g14
g2
Ntp2533
Rp2534
(dp2535
g18
F0.5
sg19
I91910
sg20
g21
((dp2536
I00
I91772
sI01
I138
stp2537
Rp2538
sg25
I2
sg26
F91911.0
sbs(g8
Vcontains(greatest)
p2539
tp2540
g0
(g14
g2
Ntp2541
Rp2542
(dp2543
g18
F0.5
sg19
I16667
sg20
g21
((dp2544
I00
I16667
stp2545
Rp2546
sg25
I2
sg26
F16668.0
sbs(g9
Vcontains(complic)
p2547
tp2548
g0
(g14
g2
Ntp2549
Rp2550
(dp2551
g18
F0.5
sg19
I91910
sg20
g21
((dp2552
I00
I91904
sI01
I6
stp2553
Rp2554
sg25
I2
sg26
F91911.0
sbs(g8
Vcontains(effect)
p2555
tp2556
g0
(g14
g2
Ntp2557
Rp2558
(dp2559
g18
F0.5
sg19
I16667
sg20
g21
((dp2560
I00
I16655
sI01
I12
stp2561
Rp2562
sg25
I2
sg26
F16668.0
sbs(g8
Vcontains(help)
p2563
tp2564
g0
(g14
g2
Ntp2565
Rp2566
(dp2567
g18
F0.5
sg19
I16667
sg20
g21
((dp2568
I00
I16371
sI01
I296
stp2569
Rp2570
sg25
I2
sg26
F16668.0
sbs(g9
Vcontains(satisfactori)
p2571
tp2572
g0
(g14
g2
Ntp2573
Rp2574
(dp2575
g18
F0.5
sg19
I91910
sg20
g21
((dp2576
I00
I91897
sI01
I13
stp2577
Rp2578
sg25
I2
sg26
F91911.0
sbs(g9
Vcontains(depress)
p2579
tp2580
g0
(g14
g2
Ntp2581
Rp2582
(dp2583
g18
F0.5
sg19
I91910
sg20
g21
((dp2584
I00
I91909
sI01
I1
stp2585
Rp2586
sg25
I2
sg26
F91911.0
sbs(g9
Vcontains(worst)
p2587
tp2588
g0
(g14
g2
Ntp2589
Rp2590
(dp2591
g18
F0.5
sg19
I91910
sg20
g21
((dp2592
I00
I91905
sI01
I5
stp2593
Rp2594
sg25
I2
sg26
F91911.0
sbs(g8
Vcontains(irrat)
p2595
tp2596
g0
(g14
g2
Ntp2597
Rp2598
(dp2599
g18
F0.5
sg19
I16667
sg20
g21
((dp2600
I00
I16667
stp2601
Rp2602
sg25
I1
sg26
F16667.5
sbs(g8
Vcontains(exhaust)
p2603
tp2604
g0
(g14
g2
Ntp2605
Rp2606
(dp2607
g18
F0.5
sg19
I16667
sg20
g21
((dp2608
I00
I16624
sI01
I43
stp2609
Rp2610
sg25
I2
sg26
F16668.0
sbs(g9
Vcontains(love)
p2611
tp2612
g0
(g14
g2
Ntp2613
Rp2614
(dp2615
g18
F0.5
sg19
I91910
sg20
g21
((dp2616
I00
I89218
sI01
I2692
stp2617
Rp2618
sg25
I2
sg26
F91911.0
sbs(g8
Vcontains(wast)
p2619
tp2620
g0
(g14
g2
Ntp2621
Rp2622
(dp2623
g18
F0.5
sg19
I16667
sg20
g21
((dp2624
I00
I16626
sI01
I41
stp2625
Rp2626
sg25
I2
sg26
F16668.0
sbs(g8
Vcontains(poorli)
p2627
tp2628
g0
(g14
g2
Ntp2629
Rp2630
(dp2631
g18
F0.5
sg19
I16667
sg20
g21
((dp2632
I00
I16613
sI01
I54
stp2633
Rp2634
sg25
I2
sg26
F16668.0
sbs(g8
Vcontains(unpleas)
p2635
tp2636
g0
(g14
g2
Ntp2637
Rp2638
(dp2639
g18
F0.5
sg19
I16667
sg20
g21
((dp2640
I00
I16656
sI01
I11
stp2641
Rp2642
sg25
I2
sg26
F16668.0
sbs(g8
Vcontains(nice)
p2643
tp2644
g0
(g14
g2
Ntp2645
Rp2646
(dp2647
g18
F0.5
sg19
I16667
sg20
g21
((dp2648
I00
I16661
sI01
I6
stp2649
Rp2650
sg25
I2
sg26
F16668.0
sbs(g9
Vcontains(disast)
p2651
tp2652
g0
(g14
g2
Ntp2653
Rp2654
(dp2655
g18
F0.5
sg19
I91910
sg20
g21
((dp2656
I00
I91900
sI01
I10
stp2657
Rp2658
sg25
I2
sg26
F91911.0
sbs(g9
Vcontains(stupid)
p2659
tp2660
g0
(g14
g2
Ntp2661
Rp2662
(dp2663
g18
F0.5
sg19
I91910
sg20
g21
((dp2664
I00
I91908
sI01
I2
stp2665
Rp2666
sg25
I2
sg26
F91911.0
sbs(g8
Vcontains(disast)
p2667
tp2668
g0
(g14
g2
Ntp2669
Rp2670
(dp2671
g18
F0.5
sg19
I16667
sg20
g21
((dp2672
I00
I16664
sI01
I3
stp2673
Rp2674
sg25
I2
sg26
F16668.0
sbs(g9
Vcontains(miser)
p2675
tp2676
g0
(g14
g2
Ntp2677
Rp2678
(dp2679
g18
F0.5
sg19
I91910
sg20
g21
((dp2680
I00
I91910
stp2681
Rp2682
sg25
I2
sg26
F91911.0
sbs(g9
Vcontains(suck)
p2683
tp2684
g0
(g14
g2
Ntp2685
Rp2686
(dp2687
g18
F0.5
sg19
I91910
sg20
g21
((dp2688
I00
I91882
sI01
I28
stp2689
Rp2690
sg25
I2
sg26
F91911.0
sbs(g9
Vcontains(disgust)
p2691
tp2692
g0
(g14
g2
Ntp2693
Rp2694
(dp2695
g18
F0.5
sg19
I91910
sg20
g21
((dp2696
I00
I91910
stp2697
Rp2698
sg25
I2
sg26
F91911.0
sbs(g8
Vcontains(great)
p2699
tp2700
g0
(g14
g2
Ntp2701
Rp2702
(dp2703
g18
F0.5
sg19
I16667
sg20
g21
((dp2704
I00
I16666
sI01
I1
stp2705
Rp2706
sg25
I2
sg26
F16668.0
sbs(g8
Vcontains(healthi)
p2707
tp2708
g0
(g14
g2
Ntp2709
Rp2710
(dp2711
g18
F0.5
sg19
I16667
sg20
g21
((dp2712
I00
I16667
stp2713
Rp2714
sg25
I2
sg26
F16668.0
sbs(g8
Vcontains(disappoint)
p2715
tp2716
g0
(g14
g2
Ntp2717
Rp2718
(dp2719
g18
F0.5
sg19
I16667
sg20
g21
((dp2720
I00
I16628
sI01
I39
stp2721
Rp2722
sg25
I2
sg26
F16668.0
sbs(g9
Vcontains(truli)
p2723
tp2724
g0
(g14
g2
Ntp2725
Rp2726
(dp2727
g18
F0.5
sg19
I91910
sg20
g21
((dp2728
I00
I91785
sI01
I125
stp2729
Rp2730
sg25
I2
sg26
F91911.0
sbs(g8
Vcontains(environ)
p2731
tp2732
g0
(g14
g2
Ntp2733
Rp2734
(dp2735
g18
F0.5
sg19
I16667
sg20
g21
((dp2736
I00
I16485
sI01
I182
stp2737
Rp2738
sg25
I2
sg26
F16668.0
sbs(g9
Vcontains(lot)
p2739
tp2740
g0
(g14
g2
Ntp2741
Rp2742
(dp2743
g18
F0.5
sg19
I91910
sg20
g21
((dp2744
I00
I89518
sI01
I2392
stp2745
Rp2746
sg25
I2
sg26
F91911.0
sbs(g9
Vcontains(honest)
p2747
tp2748
g0
(g14
g2
Ntp2749
Rp2750
(dp2751
g18
F0.5
sg19
I91910
sg20
g21
((dp2752
I00
I91837
sI01
I73
stp2753
Rp2754
sg25
I2
sg26
F91911.0
sbs(g8
Vcontains(scope)
p2755
tp2756
g0
(g14
g2
Ntp2757
Rp2758
(dp2759
g18
F0.5
sg19
I16667
sg20
g21
((dp2760
I00
I16651
sI01
I16
stp2761
Rp2762
sg25
I2
sg26
F16668.0
sbs(g9
Vcontains(sick)
p2763
tp2764
g0
(g14
g2
Ntp2765
Rp2766
(dp2767
g18
F0.5
sg19
I91910
sg20
g21
((dp2768
I00
I91896
sI01
I14
stp2769
Rp2770
sg25
I2
sg26
F91911.0
sbs(g8
Vcontains(extrem)
p2771
tp2772
g0
(g14
g2
Ntp2773
Rp2774
(dp2775
g18
F0.5
sg19
I16667
sg20
g21
((dp2776
I00
I16464
sI01
I203
stp2777
Rp2778
sg25
I2
sg26
F16668.0
sbs(g8
Vcontains(understand)
p2779
tp2780
g0
(g14
g2
Ntp2781
Rp2782
(dp2783
g18
F0.5
sg19
I16667
sg20
g21
((dp2784
I00
I16602
sI01
I65
stp2785
Rp2786
sg25
I2
sg26
F16668.0
sbs(g8
Vcontains(challeng)
p2787
tp2788
g0
(g14
g2
Ntp2789
Rp2790
(dp2791
g18
F0.5
sg19
I16667
sg20
g21
((dp2792
I00
I16580
sI01
I87
stp2793
Rp2794
sg25
I2
sg26
F16668.0
sbs(g9
Vcontains(harder)
p2795
tp2796
g0
(g14
g2
Ntp2797
Rp2798
(dp2799
g18
F0.5
sg19
I91910
sg20
g21
((dp2800
I00
I91890
sI01
I20
stp2801
Rp2802
sg25
I2
sg26
F91911.0
sbs(g8
Vcontains(suitabl)
p2803
tp2804
g0
(g14
g2
Ntp2805
Rp2806
(dp2807
g18
F0.5
sg19
I16667
sg20
g21
((dp2808
I00
I16667
stp2809
Rp2810
sg25
I2
sg26
F16668.0
sbs(g9
Vcontains(brutal)
p2811
tp2812
g0
(g14
g2
Ntp2813
Rp2814
(dp2815
g18
F0.5
sg19
I91910
sg20
g21
((dp2816
I00
I91909
sI01
I1
stp2817
Rp2818
sg25
I2
sg26
F91911.0
sbs(g9
Vcontains(shi)
p2819
tp2820
g0
(g14
g2
Ntp2821
Rp2822
(dp2823
g18
F0.5
sg19
I91910
sg20
g21
((dp2824
I00
I91909
sI01
I1
stp2825
Rp2826
sg25
I2
sg26
F91911.0
sbs(g9
Vcontains(easi)
p2827
tp2828
g0
(g14
g2
Ntp2829
Rp2830
(dp2831
g18
F0.5
sg19
I91910
sg20
g21
((dp2832
I00
I90559
sI01
I1351
stp2833
Rp2834
sg25
I2
sg26
F91911.0
sbs(g9
Vcontains(overtim)
p2835
tp2836
g0
(g14
g2
Ntp2837
Rp2838
(dp2839
g18
F0.5
sg19
I91910
sg20
g21
((dp2840
I00
I91755
sI01
I155
stp2841
Rp2842
sg25
I2
sg26
F91911.0
sbs(g9
Vcontains(slowli)
p2843
tp2844
g0
(g14
g2
Ntp2845
Rp2846
(dp2847
g18
F0.5
sg19
I91910
sg20
g21
((dp2848
I00
I91909
sI01
I1
stp2849
Rp2850
sg25
I2
sg26
F91911.0
sbs(g8
Vcontains(provid)
p2851
tp2852
g0
(g14
g2
Ntp2853
Rp2854
(dp2855
g18
F0.5
sg19
I16667
sg20
g21
((dp2856
I00
I16566
sI01
I101
stp2857
Rp2858
sg25
I2
sg26
F16668.0
sbs(g9
Vcontains(longer)
p2859
tp2860
g0
(g14
g2
Ntp2861
Rp2862
(dp2863
g18
F0.5
sg19
I91910
sg20
g21
((dp2864
I00
I91851
sI01
I59
stp2865
Rp2866
sg25
I2
sg26
F91911.0
sbs(g9
Vcontains(import)
p2867
tp2868
g0
(g14
g2
Ntp2869
Rp2870
(dp2871
g18
F0.5
sg19
I91910
sg20
g21
((dp2872
I00
I91372
sI01
I538
stp2873
Rp2874
sg25
I2
sg26
F91911.0
sbs(g9
Vcontains(develop)
p2875
tp2876
g0
(g14
g2
Ntp2877
Rp2878
(dp2879
g18
F0.5
sg19
I91910
sg20
g21
((dp2880
I00
I91073
sI01
I837
stp2881
Rp2882
sg25
I2
sg26
F91911.0
sbs(g8
Vcontains(happi)
p2883
tp2884
g0
(g14
g2
Ntp2885
Rp2886
(dp2887
g18
F0.5
sg19
I16667
sg20
g21
((dp2888
I00
I16664
sI01
I3
stp2889
Rp2890
sg25
I2
sg26
F16668.0
sbs(g9
Vcontains(tire)
p2891
tp2892
g0
(g14
g2
Ntp2893
Rp2894
(dp2895
g18
F0.5
sg19
I91910
sg20
g21
((dp2896
I00
I91896
sI01
I14
stp2897
Rp2898
sg25
I2
sg26
F91911.0
sbs(g9
Vcontains(break)
p2899
tp2900
g0
(g14
g2
Ntp2901
Rp2902
(dp2903
g18
F0.5
sg19
I91910
sg20
g21
((dp2904
I00
I91614
sI01
I296
stp2905
Rp2906
sg25
I2
sg26
F91911.0
sbs(g9
Vcontains(grow)
p2907
tp2908
g0
(g14
g2
Ntp2909
Rp2910
(dp2911
g18
F0.5
sg19
I91910
sg20
g21
((dp2912
I00
I91265
sI01
I645
stp2913
Rp2914
sg25
I2
sg26
F91911.0
sbs(g9
Vcontains(workload)
p2915
tp2916
g0
(g14
g2
Ntp2917
Rp2918
(dp2919
g18
F0.5
sg19
I91910
sg20
g21
((dp2920
I00
I91847
sI01
I63
stp2921
Rp2922
sg25
I2
sg26
F91911.0
sbs(g9
Vcontains(troubl)
p2923
tp2924
g0
(g14
g2
Ntp2925
Rp2926
(dp2927
g18
F0.5
sg19
I91910
sg20
g21
((dp2928
I00
I91888
sI01
I22
stp2929
Rp2930
sg25
I2
sg26
F91911.0
sbs(g8
Vcontains(littl)
p2931
tp2932
g0
(g14
g2
Ntp2933
Rp2934
(dp2935
g18
F0.5
sg19
I16667
sg20
g21
((dp2936
I00
I16030
sI01
I637
stp2937
Rp2938
sg25
I2
sg26
F16668.0
sbs(g8
Vcontains(bad)
p2939
tp2940
g0
(g14
g2
Ntp2941
Rp2942
(dp2943
g18
F0.5
sg19
I16667
sg20
g21
((dp2944
I00
I15874
sI01
I793
stp2945
Rp2946
sg25
I2
sg26
F16668.0
sbs(g8
Vcontains(enhanc)
p2947
tp2948
g0
(g14
g2
Ntp2949
Rp2950
(dp2951
g18
F0.5
sg19
I16667
sg20
g21
((dp2952
I00
I16664
sI01
I3
stp2953
Rp2954
sg25
I2
sg26
F16668.0
sbs(g8
Vcontains(lack)
p2955
tp2956
g0
(g14
g2
Ntp2957
Rp2958
(dp2959
g18
F0.5
sg19
I16667
sg20
g21
((dp2960
I00
I16587
sI01
I80
stp2961
Rp2962
sg25
I2
sg26
F16668.0
sbs(g9
Vcontains(slave)
p2963
tp2964
g0
(g14
g2
Ntp2965
Rp2966
(dp2967
g18
F0.5
sg19
I91910
sg20
g21
((dp2968
I00
I91900
sI01
I10
stp2969
Rp2970
sg25
I2
sg26
F91911.0
sbs(g8
Vcontains(broken)
p2971
tp2972
g0
(g14
g2
Ntp2973
Rp2974
(dp2975
g18
F0.5
sg19
I16667
sg20
g21
((dp2976
I00
I16637
sI01
I30
stp2977
Rp2978
sg25
I2
sg26
F16668.0
sbs(g9
Vcontains(lazi)
p2979
tp2980
g0
(g14
g2
Ntp2981
Rp2982
(dp2983
g18
F0.5
sg19
I91910
sg20
g21
((dp2984
I00
I91895
sI01
I15
stp2985
Rp2986
sg25
I2
sg26
F91911.0
sbs(g8
Vcontains(poor)
p2987
tp2988
g0
(g14
g2
Ntp2989
Rp2990
(dp2991
g18
F0.5
sg19
I16667
sg20
g21
((dp2992
I00
I16252
sI01
I415
stp2993
Rp2994
sg25
I2
sg26
F16668.0
sbs(g8
Vcontains(patienc)
p2995
tp2996
g0
(g14
g2
Ntp2997
Rp2998
(dp2999
g18
F0.5
sg19
I16667
sg20
g21
((dp3000
I00
I16657
sI01
I10
stp3001
Rp3002
sg25
I2
sg26
F16668.0
sbs(g9
Vcontains(will)
p3003
tp3004
g0
(g14
g2
Ntp3005
Rp3006
(dp3007
g18
F0.5
sg19
I91910
sg20
g21
((dp3008
I00
I91265
sI01
I645
stp3009
Rp3010
sg25
I2
sg26
F91911.0
sbs(g8
Vcontains(repetit)
p3011
tp3012
g0
(g14
g2
Ntp3013
Rp3014
(dp3015
g18
F0.5
sg19
I16667
sg20
g21
((dp3016
I00
I16583
sI01
I84
stp3017
Rp3018
sg25
I2
sg26
F16668.0
sbs(g9
Vcontains(ill)
p3019
tp3020
g0
(g14
g2
Ntp3021
Rp3022
(dp3023
g18
F0.5
sg19
I91910
sg20
g21
((dp3024
I00
I91910
stp3025
Rp3026
sg25
I2
sg26
F91911.0
sbs(g9
Vcontains(talent)
p3027
tp3028
g0
(g14
g2
Ntp3029
Rp3030
(dp3031
g18
F0.5
sg19
I91910
sg20
g21
((dp3032
I00
I91481
sI01
I429
stp3033
Rp3034
sg25
I2
sg26
F91911.0
sbs(g9
Vcontains(rude)
p3035
tp3036
g0
(g14
g2
Ntp3037
Rp3038
(dp3039
g18
F0.5
sg19
I91910
sg20
g21
((dp3040
I00
I91901
sI01
I9
stp3041
Rp3042
sg25
I2
sg26
F91911.0
sbs(g8
Vcontains(experienc)
p3043
tp3044
g0
(g14
g2
Ntp3045
Rp3046
(dp3047
g18
F0.5
sg19
I16667
sg20
g21
((dp3048
I00
I16661
sI01
I6
stp3049
Rp3050
sg25
I2
sg26
F16668.0
sbs(g8
Vcontains(apprais)
p3051
tp3052
g0
(g14
g2
Ntp3053
Rp3054
(dp3055
g18
F0.5
sg19
I16667
sg20
g21
((dp3056
I00
I16643
sI01
I24
stp3057
Rp3058
sg25
I2
sg26
F16668.0
sbs(g8
Vcontains(inexperienc)
p3059
tp3060
g0
(g14
g2
Ntp3061
Rp3062
(dp3063
g18
F0.5
sg19
I16667
sg20
g21
((dp3064
I00
I16654
sI01
I13
stp3065
Rp3066
sg25
I2
sg26
F16668.0
sbs(g8
Vcontains(fairli)
p3067
tp3068
g0
(g14
g2
Ntp3069
Rp3070
(dp3071
g18
F0.5
sg19
I16667
sg20
g21
((dp3072
I00
I16661
sI01
I6
stp3073
Rp3074
sg25
I2
sg26
F16668.0
sbs(g9
Vcontains(inexperienc)
p3075
tp3076
g0
(g14
g2
Ntp3077
Rp3078
(dp3079
g18
F0.5
sg19
I91910
sg20
g21
((dp3080
I00
I91904
sI01
I6
stp3081
Rp3082
sg25
I2
sg26
F91911.0
sbs(g8
Vcontains(excess)
p3083
tp3084
g0
(g14
g2
Ntp3085
Rp3086
(dp3087
g18
F0.5
sg19
I16667
sg20
g21
((dp3088
I00
I16639
sI01
I28
stp3089
Rp3090
sg25
I2
sg26
F16668.0
sbs(g9
Vcontains(patienc)
p3091
tp3092
g0
(g14
g2
Ntp3093
Rp3094
(dp3095
g18
F0.5
sg19
I91910
sg20
g21
((dp3096
I00
I91866
sI01
I44
stp3097
Rp3098
sg25
I2
sg26
F91911.0
sbs(g9
Vcontains(ignor)
p3099
tp3100
g0
(g14
g2
Ntp3101
Rp3102
(dp3103
g18
F0.5
sg19
I91910
sg20
g21
((dp3104
I00
I91902
sI01
I8
stp3105
Rp3106
sg25
I2
sg26
F91911.0
sbs(g8
Vcontains(mad)
p3107
tp3108
g0
(g14
g2
Ntp3109
Rp3110
(dp3111
g18
F0.5
sg19
I16667
sg20
g21
((dp3112
I00
I16642
sI01
I25
stp3113
Rp3114
sg25
I2
sg26
F16668.0
sbs(g9
Vcontains(past)
p3115
tp3116
g0
(g14
g2
Ntp3117
Rp3118
(dp3119
g18
F0.5
sg19
I91910
sg20
g21
((dp3120
I00
I91806
sI01
I104
stp3121
Rp3122
sg25
I2
sg26
F91911.0
sbs(g8
Vcontains(irrelev)
p3123
tp3124
g0
(g14
g2
Ntp3125
Rp3126
(dp3127
g18
F0.5
sg19
I16667
sg20
g21
((dp3128
I00
I16666
sI01
I1
stp3129
Rp3130
sg25
I2
sg26
F16668.0
sbs(g9
Vcontains(excess)
p3131
tp3132
g0
(g14
g2
Ntp3133
Rp3134
(dp3135
g18
F0.5
sg19
I91910
sg20
g21
((dp3136
I00
I91906
sI01
I4
stp3137
Rp3138
sg25
I2
sg26
F91911.0
sbs(g9
Vcontains(low)
p3139
tp3140
g0
(g14
g2
Ntp3141
Rp3142
(dp3143
g18
F0.5
sg19
I91910
sg20
g21
((dp3144
I00
I91816
sI01
I94
stp3145
Rp3146
sg25
I2
sg26
F91911.0
sbs(g8
Vcontains(execut)
p3147
tp3148
g0
(g14
g2
Ntp3149
Rp3150
(dp3151
g18
F0.5
sg19
I16667
sg20
g21
((dp3152
I00
I16611
sI01
I56
stp3153
Rp3154
sg25
I2
sg26
F16668.0
sbs(g8
Vcontains(teamwork)
p3155
tp3156
g0
(g14
g2
Ntp3157
Rp3158
(dp3159
g18
F0.5
sg19
I16667
sg20
g21
((dp3160
I00
I16660
sI01
I7
stp3161
Rp3162
sg25
I2
sg26
F16668.0
sbs(g9
Vcontains(badli)
p3163
tp3164
g0
(g14
g2
Ntp3165
Rp3166
(dp3167
g18
F0.5
sg19
I91910
sg20
g21
((dp3168
I00
I91910
stp3169
Rp3170
sg25
I2
sg26
F91911.0
sbs(g8
Vcontains(noth)
p3171
tp3172
g0
(g14
g2
Ntp3173
Rp3174
(dp3175
g18
F0.5
sg19
I16667
sg20
g21
((dp3176
I00
I16511
sI01
I156
stp3177
Rp3178
sg25
I2
sg26
F16668.0
sbs(g8
Vcontains(unfortun)
p3179
tp3180
g0
(g14
g2
Ntp3181
Rp3182
(dp3183
g18
F0.5
sg19
I16667
sg20
g21
((dp3184
I00
I16553
sI01
I114
stp3185
Rp3186
sg25
I2
sg26
F16668.0
sbs(g8
Vcontains(okay)
p3187
tp3188
g0
(g14
g2
Ntp3189
Rp3190
(dp3191
g18
F0.5
sg19
I16667
sg20
g21
((dp3192
I00
I16667
stp3193
Rp3194
sg25
I2
sg26
F16668.0
sbs(g8
Vcontains(heartless)
p3195
tp3196
g0
(g14
g2
Ntp3197
Rp3198
(dp3199
g18
F0.5
sg19
I16667
sg20
g21
((dp3200
I00
I16666
sI01
I1
stp3201
Rp3202
sg25
I2
sg26
F16668.0
sbs(g9
Vcontains(smile)
p3203
tp3204
g0
(g14
g2
Ntp3205
Rp3206
(dp3207
g18
F0.5
sg19
I91910
sg20
g21
((dp3208
I00
I91729
sI01
I181
stp3209
Rp3210
sg25
I2
sg26
F91911.0
sbs(g8
Vcontains(limit)
p3211
tp3212
g0
(g14
g2
Ntp3213
Rp3214
(dp3215
g18
F0.5
sg19
I16667
sg20
g21
((dp3216
I00
I16641
sI01
I26
stp3217
Rp3218
sg25
I2
sg26
F16668.0
sbs(g8
Vcontains(smile)
p3219
tp3220
g0
(g14
g2
Ntp3221
Rp3222
(dp3223
g18
F0.5
sg19
I16667
sg20
g21
((dp3224
I00
I16658
sI01
I9
stp3225
Rp3226
sg25
I2
sg26
F16668.0
sbs(g9
Vcontains(wise)
p3227
tp3228
g0
(g14
g2
Ntp3229
Rp3230
(dp3231
g18
F0.5
sg19
I91910
sg20
g21
((dp3232
I00
I91781
sI01
I129
stp3233
Rp3234
sg25
I2
sg26
F91911.0
sbs(g9
Vcontains(incent)
p3235
tp3236
g0
(g14
g2
Ntp3237
Rp3238
(dp3239
g18
F0.5
sg19
I91910
sg20
g21
((dp3240
I00
I91810
sI01
I100
stp3241
Rp3242
sg25
I2
sg26
F91911.0
sbs(g8
Vcontains(pro)
p3243
tp3244
g0
(g14
g2
Ntp3245
Rp3246
(dp3247
g18
F0.5
sg19
I16667
sg20
g21
((dp3248
I00
I16649
sI01
I18
stp3249
Rp3250
sg25
I2
sg26
F16668.0
sbs(g8
Vcontains(confus)
p3251
tp3252
g0
(g14
g2
Ntp3253
Rp3254
(dp3255
g18
F0.5
sg19
I16667
sg20
g21
((dp3256
I00
I16635
sI01
I32
stp3257
Rp3258
sg25
I2
sg26
F16668.0
sbs(g8
Vcontains(useless)
p3259
tp3260
g0
(g14
g2
Ntp3261
Rp3262
(dp3263
g18
F0.5
sg19
I16667
sg20
g21
((dp3264
I00
I16654
sI01
I13
stp3265
Rp3266
sg25
I2
sg26
F16668.0
sbs(g9
Vcontains(strong)
p3267
tp3268
g0
(g14
g2
Ntp3269
Rp3270
(dp3271
g18
F0.5
sg19
I91910
sg20
g21
((dp3272
I00
I91160
sI01
I750
stp3273
Rp3274
sg25
I2
sg26
F91911.0
sbs(g8
Vcontains(low)
p3275
tp3276
g0
(g14
g2
Ntp3277
Rp3278
(dp3279
g18
F0.5
sg19
I16667
sg20
g21
((dp3280
I00
I16635
sI01
I32
stp3281
Rp3282
sg25
I2
sg26
F16668.0
sbs(g9
Vcontains(kind)
p3283
tp3284
g0
(g14
g2
Ntp3285
Rp3286
(dp3287
g18
F0.5
sg19
I91910
sg20
g21
((dp3288
I00
I91427
sI01
I483
stp3289
Rp3290
sg25
I2
sg26
F91911.0
sbs(g9
Vcontains(awesom)
p3291
tp3292
g0
(g14
g2
Ntp3293
Rp3294
(dp3295
g18
F0.5
sg19
I91910
sg20
g21
((dp3296
I00
I91084
sI01
I826
stp3297
Rp3298
sg25
I2
sg26
F91911.0
sbs(g8
Vcontains(maintain)
p3299
tp3300
g0
(g14
g2
Ntp3301
Rp3302
(dp3303
g18
F0.5
sg19
I16667
sg20
g21
((dp3304
I00
I16610
sI01
I57
stp3305
Rp3306
sg25
I2
sg26
F16668.0
sbs(g9
Vcontains(insur)
p3307
tp3308
g0
(g14
g2
Ntp3309
Rp3310
(dp3311
g18
F0.5
sg19
I91910
sg20
g21
((dp3312
I00
I91837
sI01
I73
stp3313
Rp3314
sg25
I2
sg26
F91911.0
sbs(g9
Vcontains(requir)
p3315
tp3316
g0
(g14
g2
Ntp3317
Rp3318
(dp3319
g18
F0.5
sg19
I91910
sg20
g21
((dp3320
I00
I91464
sI01
I446
stp3321
Rp3322
sg25
I2
sg26
F91911.0
sbs(g9
Vcontains(simpl)
p3323
tp3324
g0
(g14
g2
Ntp3325
Rp3326
(dp3327
g18
F0.5
sg19
I91910
sg20
g21
((dp3328
I00
I91873
sI01
I37
stp3329
Rp3330
sg25
I2
sg26
F91911.0
sbs(g8
Vcontains(horribl)
p3331
tp3332
g0
(g14
g2
Ntp3333
Rp3334
(dp3335
g18
F0.5
sg19
I16667
sg20
g21
((dp3336
I00
I16446
sI01
I221
stp3337
Rp3338
sg25
I2
sg26
F16668.0
sbs(g8
Vcontains(fall)
p3339
tp3340
g0
(g14
g2
Ntp3341
Rp3342
(dp3343
g18
F0.5
sg19
I16667
sg20
g21
((dp3344
I00
I16646
sI01
I21
stp3345
Rp3346
sg25
I2
sg26
F16668.0
sbs(g9
Vcontains(innov)
p3347
tp3348
g0
(g14
g2
Ntp3349
Rp3350
(dp3351
g18
F0.5
sg19
I91910
sg20
g21
((dp3352
I00
I91689
sI01
I221
stp3353
Rp3354
sg25
I2
sg26
F91911.0
sbs(g9
Vcontains(ridicul)
p3355
tp3356
g0
(g14
g2
Ntp3357
Rp3358
(dp3359
g18
F0.5
sg19
I91910
sg20
g21
((dp3360
I00
I91905
sI01
I5
stp3361
Rp3362
sg25
I2
sg26
F91911.0
sbs(g8
Vcontains(focu)
p3363
tp3364
g0
(g14
g2
Ntp3365
Rp3366
(dp3367
g18
F0.5
sg19
I16667
sg20
g21
((dp3368
I00
I16639
sI01
I28
stp3369
Rp3370
sg25
I2
sg26
F16668.0
sbs(g8
Vcontains(worst)
p3371
tp3372
g0
(g14
g2
Ntp3373
Rp3374
(dp3375
g18
F0.5
sg19
I16667
sg20
g21
((dp3376
I00
I16401
sI01
I266
stp3377
Rp3378
sg25
I2
sg26
F16668.0
sbs(g8
Vcontains(stabl)
p3379
tp3380
g0
(g14
g2
Ntp3381
Rp3382
(dp3383
g18
F0.5
sg19
I16667
sg20
g21
((dp3384
I00
I16663
sI01
I4
stp3385
Rp3386
sg25
I2
sg26
F16668.0
sbs(g9
Vcontains(afraid)
p3387
tp3388
g0
(g14
g2
Ntp3389
Rp3390
(dp3391
g18
F0.5
sg19
I91910
sg20
g21
((dp3392
I00
I91905
sI01
I5
stp3393
Rp3394
sg25
I2
sg26
F91911.0
sbs(g9
Vcontains(stabl)
p3395
tp3396
g0
(g14
g2
Ntp3397
Rp3398
(dp3399
g18
F0.5
sg19
I91910
sg20
g21
((dp3400
I00
I91879
sI01
I31
stp3401
Rp3402
sg25
I2
sg26
F91911.0
sbs(g8
Vcontains(includ)
p3403
tp3404
g0
(g14
g2
Ntp3405
Rp3406
(dp3407
g18
F0.5
sg19
I16667
sg20
g21
((dp3408
I00
I16469
sI01
I198
stp3409
Rp3410
sg25
I2
sg26
F16668.0
sbs(g9
Vcontains(nice)
p3411
tp3412
g0
(g14
g2
Ntp3413
Rp3414
(dp3415
g18
F0.5
sg19
I91910
sg20
g21
((dp3416
I00
I89040
sI01
I2870
stp3417
Rp3418
sg25
I2
sg26
F91911.0
sbs(g9
Vcontains(enjoy)
p3419
tp3420
g0
(g14
g2
Ntp3421
Rp3422
(dp3423
g18
F0.5
sg19
I91910
sg20
g21
((dp3424
I00
I84676
sI01
I7234
stp3425
Rp3426
sg25
I2
sg26
F91911.0
sbs(g9
Vcontains(fairli)
p3427
tp3428
g0
(g14
g2
Ntp3429
Rp3430
(dp3431
g18
F0.5
sg19
I91910
sg20
g21
((dp3432
I00
I91776
sI01
I134
stp3433
Rp3434
sg25
I2
sg26
F91911.0
sbs(g8
Vcontains(weird)
p3435
tp3436
g0
(g14
g2
Ntp3437
Rp3438
(dp3439
g18
F0.5
sg19
I16667
sg20
g21
((dp3440
I00
I16650
sI01
I17
stp3441
Rp3442
sg25
I2
sg26
F16668.0
sbs(g8
Vcontains(serious)
p3443
tp3444
g0
(g14
g2
Ntp3445
Rp3446
(dp3447
g18
F0.5
sg19
I16667
sg20
g21
((dp3448
I00
I16618
sI01
I49
stp3449
Rp3450
sg25
I2
sg26
F16668.0
sbs(g8
Vcontains(best)
p3451
tp3452
g0
(g14
g2
Ntp3453
Rp3454
(dp3455
g18
F0.5
sg19
I16667
sg20
g21
((dp3456
I00
I16667
stp3457
Rp3458
sg25
I2
sg26
F16668.0
sbs(g9
Vcontains(motiv)
p3459
tp3460
g0
(g14
g2
Ntp3461
Rp3462
(dp3463
g18
F0.5
sg19
I91910
sg20
g21
((dp3464
I00
I91628
sI01
I282
stp3465
Rp3466
sg25
I2
sg26
F91911.0
sbs(g8
Vcontains(lot)
p3467
tp3468
g0
(g14
g2
Ntp3469
Rp3470
(dp3471
g18
F0.5
sg19
I16667
sg20
g21
((dp3472
I00
I16349
sI01
I318
stp3473
Rp3474
sg25
I2
sg26
F16668.0
sbs(g9
Vcontains(succeed)
p3475
tp3476
g0
(g14
g2
Ntp3477
Rp3478
(dp3479
g18
F0.5
sg19
I91910
sg20
g21
((dp3480
I00
I91847
sI01
I63
stp3481
Rp3482
sg25
I2
sg26
F91911.0
sbs(g9
Vcontains(warn)
p3483
tp3484
g0
(g14
g2
Ntp3485
Rp3486
(dp3487
g18
F0.5
sg19
I91910
sg20
g21
((dp3488
I00
I91899
sI01
I11
stp3489
Rp3490
sg25
I2
sg26
F91911.0
sbs(g9
Vcontains(flexibl)
p3491
tp3492
g0
(g14
g2
Ntp3493
Rp3494
(dp3495
g18
F0.5
sg19
I91910
sg20
g21
((dp3496
I00
I91207
sI01
I703
stp3497
Rp3498
sg25
I2
sg26
F91911.0
sbs(g9
Vcontains(tight)
p3499
tp3500
g0
(g14
g2
Ntp3501
Rp3502
(dp3503
g18
F0.5
sg19
I91910
sg20
g21
((dp3504
I00
I91889
sI01
I21
stp3505
Rp3506
sg25
I2
sg26
F91911.0
sbs(g9
Vcontains(unless)
p3507
tp3508
g0
(g14
g2
Ntp3509
Rp3510
(dp3511
g18
F0.5
sg19
I91910
sg20
g21
((dp3512
I00
I91779
sI01
I131
stp3513
Rp3514
sg25
I2
sg26
F91911.0
sbs(g9
Vcontains(frustrat)
p3515
tp3516
g0
(g14
g2
Ntp3517
Rp3518
(dp3519
g18
F0.5
sg19
I91910
sg20
g21
((dp3520
I00
I91900
sI01
I10
stp3521
Rp3522
sg25
I2
sg26
F91911.0
sbs(g9
Vcontains(good)
p3523
tp3524
g0
(g14
g2
Ntp3525
Rp3526
(dp3527
g18
F0.5
sg19
I91910
sg20
g21
((dp3528
I00
I75163
sI01
I16747
stp3529
Rp3530
sg25
I2
sg26
F91911.0
sbs(g8
Vcontains(fantast)
p3531
tp3532
g0
(g14
g2
Ntp3533
Rp3534
(dp3535
g18
F0.5
sg19
I16667
sg20
g21
((dp3536
I00
I16667
stp3537
Rp3538
sg25
I2
sg26
F16668.0
sbs(g9
Vcontains(appreci)
p3539
tp3540
g0
(g14
g2
Ntp3541
Rp3542
(dp3543
g18
F0.5
sg19
I91910
sg20
g21
((dp3544
I00
I91624
sI01
I286
stp3545
Rp3546
sg25
I2
sg26
F91911.0
sbs(g9
Vcontains(never)
p3547
tp3548
g0
(g14
g2
Ntp3549
Rp3550
(dp3551
g18
F0.5
sg19
I91910
sg20
g21
((dp3552
I00
I91481
sI01
I429
stp3553
Rp3554
sg25
I2
sg26
F91911.0
sbs(g8
Vcontains(last)
p3555
tp3556
g0
(g14
g2
Ntp3557
Rp3558
(dp3559
g18
F0.5
sg19
I16667
sg20
g21
((dp3560
I00
I16633
sI01
I34
stp3561
Rp3562
sg25
I2
sg26
F16668.0
sbs(g9
Vcontains(noth)
p3563
tp3564
g0
(g14
g2
Ntp3565
Rp3566
(dp3567
g18
F0.5
sg19
I91910
sg20
g21
((dp3568
I00
I91687
sI01
I223
stp3569
Rp3570
sg25
I2
sg26
F91911.0
sbs(g9
Vcontains(realli)
p3571
tp3572
g0
(g14
g2
Ntp3573
Rp3574
(dp3575
g18
F0.5
sg19
I91910
sg20
g21
((dp3576
I00
I88908
sI01
I3002
stp3577
Rp3578
sg25
I2
sg26
F91911.0
sbs(g9
Vcontains(okay)
p3579
tp3580
g0
(g14
g2
Ntp3581
Rp3582
(dp3583
g18
F0.5
sg19
I91910
sg20
g21
((dp3584
I00
I91629
sI01
I281
stp3585
Rp3586
sg25
I2
sg26
F91911.0
sbs(g8
Vcontains(like)
p3587
tp3588
g0
(g14
g2
Ntp3589
Rp3590
(dp3591
g18
F0.5
sg19
I16667
sg20
g21
((dp3592
I00
I16360
sI01
I307
stp3593
Rp3594
sg25
I2
sg26
F16668.0
sbs(g8
Vcontains(problem)
p3595
tp3596
g0
(g14
g2
Ntp3597
Rp3598
(dp3599
g18
F0.5
sg19
I16667
sg20
g21
((dp3600
I00
I16560
sI01
I107
stp3601
Rp3602
sg25
I2
sg26
F16668.0
sbs(g8
Vcontains(mundan)
p3603
tp3604
g0
(g14
g2
Ntp3605
Rp3606
(dp3607
g18
F0.5
sg19
I16667
sg20
g21
((dp3608
I00
I16661
sI01
I6
stp3609
Rp3610
sg25
I2
sg26
F16668.0
sbs(g8
Vcontains(fals)
p3611
tp3612
g0
(g14
g2
Ntp3613
Rp3614
(dp3615
g18
F0.5
sg19
I16667
sg20
g21
((dp3616
I00
I16646
sI01
I21
stp3617
Rp3618
sg25
I2
sg26
F16668.0
sbs(g9
Vcontains(unfair)
p3619
tp3620
g0
(g14
g2
Ntp3621
Rp3622
(dp3623
g18
F0.5
sg19
I91910
sg20
g21
((dp3624
I00
I91909
sI01
I1
stp3625
Rp3626
sg25
I2
sg26
F91911.0
sbs(g9
Vcontains(terribl)
p3627
tp3628
g0
(g14
g2
Ntp3629
Rp3630
(dp3631
g18
F0.5
sg19
I91910
sg20
g21
((dp3632
I00
I91909
sI01
I1
stp3633
Rp3634
sg25
I2
sg26
F91911.0
sbs(g8
Vcontains(honestli)
p3635
tp3636
g0
(g14
g2
Ntp3637
Rp3638
(dp3639
g18
F0.5
sg19
I16667
sg20
g21
((dp3640
I00
I16656
sI01
I11
stp3641
Rp3642
sg25
I2
sg26
F16668.0
sbs(g8
Vcontains(angrili)
p3643
tp3644
g0
(g14
g2
Ntp3645
Rp3646
(dp3647
g18
F0.5
sg19
I16667
sg20
g21
((dp3648
I00
I16667
stp3649
Rp3650
sg25
I1
sg26
F16667.5
sbs(g9
Vcontains(sadli)
p3651
tp3652
g0
(g14
g2
Ntp3653
Rp3654
(dp3655
g18
F0.5
sg19
I91910
sg20
g21
((dp3656
I00
I91905
sI01
I5
stp3657
Rp3658
sg25
I2
sg26
F91911.0
sbs(g8
Vcontains(consist)
p3659
tp3660
g0
(g14
g2
Ntp3661
Rp3662
(dp3663
g18
F0.5
sg19
I16667
sg20
g21
((dp3664
I00
I16444
sI01
I223
stp3665
Rp3666
sg25
I2
sg26
F16668.0
sbs(g9
Vcontains(maintain)
p3667
tp3668
g0
(g14
g2
Ntp3669
Rp3670
(dp3671
g18
F0.5
sg19
I91910
sg20
g21
((dp3672
I00
I91562
sI01
I348
stp3673
Rp3674
sg25
I2
sg26
F91911.0
sbs(g8
Vcontains(product)
p3675
tp3676
g0
(g14
g2
Ntp3677
Rp3678
(dp3679
g18
F0.5
sg19
I16667
sg20
g21
((dp3680
I00
I16491
sI01
I176
stp3681
Rp3682
sg25
I2
sg26
F16668.0
sbs(g8
Vcontains(redund)
p3683
tp3684
g0
(g14
g2
Ntp3685
Rp3686
(dp3687
g18
F0.5
sg19
I16667
sg20
g21
((dp3688
I00
I16656
sI01
I11
stp3689
Rp3690
sg25
I2
sg26
F16668.0
sbs(g9
Vcontains(impress)
p3691
tp3692
g0
(g14
g2
Ntp3693
Rp3694
(dp3695
g18
F0.5
sg19
I91910
sg20
g21
((dp3696
I00
I91747
sI01
I163
stp3697
Rp3698
sg25
I2
sg26
F91911.0
sbs(g9
Vcontains(spirit)
p3699
tp3700
g0
(g14
g2
Ntp3701
Rp3702
(dp3703
g18
F0.5
sg19
I91910
sg20
g21
((dp3704
I00
I91849
sI01
I61
stp3705
Rp3706
sg25
I2
sg26
F91911.0
sbs(g8
Vcontains(past)
p3707
tp3708
g0
(g14
g2
Ntp3709
Rp3710
(dp3711
g18
F0.5
sg19
I16667
sg20
g21
((dp3712
I00
I16495
sI01
I172
stp3713
Rp3714
sg25
I2
sg26
F16668.0
sbs(g9
Vcontains(sorri)
p3715
tp3716
g0
(g14
g2
Ntp3717
Rp3718
(dp3719
g18
F0.5
sg19
I91910
sg20
g21
((dp3720
I00
I91910
stp3721
Rp3722
sg25
I2
sg26
F91911.0
sbs(g8
Vcontains(inconsist)
p3723
tp3724
g0
(g14
g2
Ntp3725
Rp3726
(dp3727
g18
F0.5
sg19
I16667
sg20
g21
((dp3728
I00
I16656
sI01
I11
stp3729
Rp3730
sg25
I2
sg26
F16668.0
sbs(g9
Vcontains(huge)
p3731
tp3732
g0
(g14
g2
Ntp3733
Rp3734
(dp3735
g18
F0.5
sg19
I91910
sg20
g21
((dp3736
I00
I91556
sI01
I354
stp3737
Rp3738
sg25
I2
sg26
F91911.0
sbs(g8
Vcontains(perk)
p3739
tp3740
g0
(g14
g2
Ntp3741
Rp3742
(dp3743
g18
F0.5
sg19
I16667
sg20
g21
((dp3744
I00
I16659
sI01
I8
stp3745
Rp3746
sg25
I2
sg26
F16668.0
sbs(g8
Vcontains(fun)
p3747
tp3748
g0
(g14
g2
Ntp3749
Rp3750
(dp3751
g18
F0.5
sg19
I16667
sg20
g21
((dp3752
I00
I16647
sI01
I20
stp3753
Rp3754
sg25
I2
sg26
F16668.0
sbs(g8
Vcontains(depress)
p3755
tp3756
g0
(g14
g2
Ntp3757
Rp3758
(dp3759
g18
F0.5
sg19
I16667
sg20
g21
((dp3760
I00
I16656
sI01
I11
stp3761
Rp3762
sg25
I2
sg26
F16668.0
sbs(g8
Vcontains(bore)
p3763
tp3764
g0
(g14
g2
Ntp3765
Rp3766
(dp3767
g18
F0.5
sg19
I16667
sg20
g21
((dp3768
I00
I16536
sI01
I131
stp3769
Rp3770
sg25
I2
sg26
F16668.0
sbs(g8
Vcontains(difficult)
p3771
tp3772
g0
(g14
g2
Ntp3773
Rp3774
(dp3775
g18
F0.5
sg19
I16667
sg20
g21
((dp3776
I00
I15826
sI01
I841
stp3777
Rp3778
sg25
I2
sg26
F16668.0
sbs(g9
Vcontains(consist)
p3779
tp3780
g0
(g14
g2
Ntp3781
Rp3782
(dp3783
g18
F0.5
sg19
I91910
sg20
g21
((dp3784
I00
I91626
sI01
I284
stp3785
Rp3786
sg25
I2
sg26
F91911.0
sbs(g8
Vcontains(welcom)
p3787
tp3788
g0
(g14
g2
Ntp3789
Rp3790
(dp3791
g18
F0.5
sg19
I16667
sg20
g21
((dp3792
I00
I16660
sI01
I7
stp3793
Rp3794
sg25
I2
sg26
F16668.0
sbs(g8
Vcontains(wise)
p3795
tp3796
g0
(g14
g2
Ntp3797
Rp3798
(dp3799
g18
F0.5
sg19
I16667
sg20
g21
((dp3800
I00
I16663
sI01
I4
stp3801
Rp3802
sg25
I2
sg26
F16668.0
sbs(g8
Vcontains(excel)
p3803
tp3804
g0
(g14
g2
Ntp3805
Rp3806
(dp3807
g18
F0.5
sg19
I16667
sg20
g21
((dp3808
I00
I16652
sI01
I15
stp3809
Rp3810
sg25
I2
sg26
F16668.0
sbs(g9
Vcontains(greatest)
p3811
tp3812
g0
(g14
g2
Ntp3813
Rp3814
(dp3815
g18
F0.5
sg19
I91910
sg20
g21
((dp3816
I00
I91791
sI01
I119
stp3817
Rp3818
sg25
I2
sg26
F91911.0
sbs(g9
Vcontains(highli)
p3819
tp3820
g0
(g14
g2
Ntp3821
Rp3822
(dp3823
g18
F0.5
sg19
I91910
sg20
g21
((dp3824
I00
I91252
sI01
I658
stp3825
Rp3826
sg25
I2
sg26
F91911.0
sbs(g8
Vcontains(harsh)
p3827
tp3828
g0
(g14
g2
Ntp3829
Rp3830
(dp3831
g18
F0.5
sg19
I16667
sg20
g21
((dp3832
I00
I16641
sI01
I26
stp3833
Rp3834
sg25
I2
sg26
F16668.0
sbs(g9
Vcontains(tri)
p3835
tp3836
g0
(g14
g2
Ntp3837
Rp3838
(dp3839
g18
F0.5
sg19
I91910
sg20
g21
((dp3840
I00
I91529
sI01
I381
stp3841
Rp3842
sg25
I2
sg26
F91911.0
sbs(g9
Vcontains(brilliant)
p3843
tp3844
g0
(g14
g2
Ntp3845
Rp3846
(dp3847
g18
F0.5
sg19
I91910
sg20
g21
((dp3848
I00
I91779
sI01
I131
stp3849
Rp3850
sg25
I2
sg26
F91911.0
sbs(g9
Vcontains(uncomfort)
p3851
tp3852
g0
(g14
g2
Ntp3853
Rp3854
(dp3855
g18
F0.5
sg19
I91910
sg20
g21
((dp3856
I00
I91909
sI01
I1
stp3857
Rp3858
sg25
I2
sg26
F91911.0
sbs(g9
Vcontains(disturb)
p3859
tp3860
g0
(g14
g2
Ntp3861
Rp3862
(dp3863
g18
F0.5
sg19
I91910
sg20
g21
((dp3864
I00
I91908
sI01
I2
stp3865
Rp3866
sg25
I2
sg26
F91911.0
sbs(g9
Vcontains(angri)
p3867
tp3868
g0
(g14
g2
Ntp3869
Rp3870
(dp3871
g18
F0.5
sg19
I91910
sg20
g21
((dp3872
I00
I91905
sI01
I5
stp3873
Rp3874
sg25
I2
sg26
F91911.0
sbs(g8
Vcontains(fair)
p3875
tp3876
g0
(g14
g2
Ntp3877
Rp3878
(dp3879
g18
F0.5
sg19
I16667
sg20
g21
((dp3880
I00
I16665
sI01
I2
stp3881
Rp3882
sg25
I2
sg26
F16668.0
sbs(g8
Vcontains(harass)
p3883
tp3884
g0
(g14
g2
Ntp3885
Rp3886
(dp3887
g18
F0.5
sg19
I16667
sg20
g21
((dp3888
I00
I16664
sI01
I3
stp3889
Rp3890
sg25
I2
sg26
F16668.0
sbs(g8
Vcontains(toughest)
p3891
tp3892
g0
(g14
g2
Ntp3893
Rp3894
(dp3895
g18
F0.5
sg19
I16667
sg20
g21
((dp3896
I00
I16660
sI01
I7
stp3897
Rp3898
sg25
I2
sg26
F16668.0
sbs(g9
Vcontains(neg)
p3899
tp3900
g0
(g14
g2
Ntp3901
Rp3902
(dp3903
g18
F0.5
sg19
I91910
sg20
g21
((dp3904
I00
I91891
sI01
I19
stp3905
Rp3906
sg25
I2
sg26
F91911.0
sbs(g9
Vcontains(toughest)
p3907
tp3908
g0
(g14
g2
Ntp3909
Rp3910
(dp3911
g18
F0.5
sg19
I91910
sg20
g21
((dp3912
I00
I91895
sI01
I15
stp3913
Rp3914
sg25
I2
sg26
F91911.0
sbs(g9
Vcontains(heartless)
p3915
tp3916
g0
(g14
g2
Ntp3917
Rp3918
(dp3919
g18
F0.5
sg19
I91910
sg20
g21
((dp3920
I00
I91910
stp3921
Rp3922
sg25
I2
sg26
F91911.0
sbs(g8
Vcontains(mind)
p3923
tp3924
g0
(g14
g2
Ntp3925
Rp3926
(dp3927
g18
F0.5
sg19
I16667
sg20
g21
((dp3928
I00
I16632
sI01
I35
stp3929
Rp3930
sg25
I2
sg26
F16668.0
sbs(g9
Vcontains(unrealist)
p3931
tp3932
g0
(g14
g2
Ntp3933
Rp3934
(dp3935
g18
F0.5
sg19
I91910
sg20
g21
((dp3936
I00
I91909
sI01
I1
stp3937
Rp3938
sg25
I2
sg26
F91911.0
sbs(g9
Vcontains(support)
p3939
tp3940
g0
(g14
g2
Ntp3941
Rp3942
(dp3943
g18
F0.5
sg19
I91910
sg20
g21
((dp3944
I00
I90011
sI01
I1899
stp3945
Rp3946
sg25
I2
sg26
F91911.0
sbs(g9
Vcontains(suitabl)
p3947
tp3948
g0
(g14
g2
Ntp3949
Rp3950
(dp3951
g18
F0.5
sg19
I91910
sg20
g21
((dp3952
I00
I91873
sI01
I37
stp3953
Rp3954
sg25
I2
sg26
F91911.0
sbs(g9
Vcontains(crazi)
p3955
tp3956
g0
(g14
g2
Ntp3957
Rp3958
(dp3959
g18
F0.5
sg19
I91910
sg20
g21
((dp3960
I00
I91907
sI01
I3
stp3961
Rp3962
sg25
I2
sg26
F91911.0
sbs(g9
Vcontains(recommend)
p3963
tp3964
g0
(g14
g2
Ntp3965
Rp3966
(dp3967
g18
F0.5
sg19
I91910
sg20
g21
((dp3968
I00
I91711
sI01
I199
stp3969
Rp3970
sg25
I2
sg26
F91911.0
sbs(g9
Vcontains(critic)
p3971
tp3972
g0
(g14
g2
Ntp3973
Rp3974
(dp3975
g18
F0.5
sg19
I91910
sg20
g21
((dp3976
I00
I91859
sI01
I51
stp3977
Rp3978
sg25
I2
sg26
F91911.0
sbs(g8
Vcontains(incompet)
p3979
tp3980
g0
(g14
g2
Ntp3981
Rp3982
(dp3983
g18
F0.5
sg19
I16667
sg20
g21
((dp3984
I00
I16648
sI01
I19
stp3985
Rp3986
sg25
I2
sg26
F16668.0
sbs(g9
Vcontains(disadvantag)
p3987
tp3988
g0
(g14
g2
Ntp3989
Rp3990
(dp3991
g18
F0.5
sg19
I91910
sg20
g21
((dp3992
I00
I91908
sI01
I2
stp3993
Rp3994
sg25
I2
sg26
F91911.0
sbs(g9
Vcontains(minimum)
p3995
tp3996
g0
(g14
g2
Ntp3997
Rp3998
(dp3999
g18
F0.5
sg19
I91910
sg20
g21
((dp4000
I00
I91865
sI01
I45
stp4001
Rp4002
sg25
I2
sg26
F91911.0
sbs(g9
Vcontains(provid)
p4003
tp4004
g0
(g14
g2
Ntp4005
Rp4006
(dp4007
g18
F0.5
sg19
I91910
sg20
g21
((dp4008
I00
I90150
sI01
I1760
stp4009
Rp4010
sg25
I2
sg26
F91911.0
sbs(g8
Vcontains(slowli)
p4011
tp4012
g0
(g14
g2
Ntp4013
Rp4014
(dp4015
g18
F0.5
sg19
I16667
sg20
g21
((dp4016
I00
I16646
sI01
I21
stp4017
Rp4018
sg25
I2
sg26
F16668.0
sbs(g9
Vcontains(freedom)
p4019
tp4020
g0
(g14
g2
Ntp4021
Rp4022
(dp4023
g18
F0.5
sg19
I91910
sg20
g21
((dp4024
I00
I91806
sI01
I104
stp4025
Rp4026
sg25
I2
sg26
F91911.0
sbs(g9
Vcontains(relax)
p4027
tp4028
g0
(g14
g2
Ntp4029
Rp4030
(dp4031
g18
F0.5
sg19
I91910
sg20
g21
((dp4032
I00
I91854
sI01
I56
stp4033
Rp4034
sg25
I2
sg26
F91911.0
sbs(g9
Vcontains(friend)
p4035
tp4036
g0
(g14
g2
Ntp4037
Rp4038
(dp4039
g18
F0.5
sg19
I91910
sg20
g21
((dp4040
I00
I91548
sI01
I362
stp4041
Rp4042
sg25
I2
sg26
F91911.0
sbs(g8
Vcontains(lose)
p4043
tp4044
g0
(g14
g2
Ntp4045
Rp4046
(dp4047
g18
F0.5
sg19
I16667
sg20
g21
((dp4048
I00
I16661
sI01
I6
stp4049
Rp4050
sg25
I2
sg26
F16668.0
sbs(g8
Vcontains(mentor)
p4051
tp4052
g0
(g14
g2
Ntp4053
Rp4054
(dp4055
g18
F0.5
sg19
I16667
sg20
g21
((dp4056
I00
I16661
sI01
I6
stp4057
Rp4058
sg25
I2
sg26
F16668.0
sbs(g8
Vcontains(hardli)
p4059
tp4060
g0
(g14
g2
Ntp4061
Rp4062
(dp4063
g18
F0.5
sg19
I16667
sg20
g21
((dp4064
I00
I16617
sI01
I50
stp4065
Rp4066
sg25
I2
sg26
F16668.0
sbs(g8
Vcontains(gave)
p4067
tp4068
g0
(g14
g2
Ntp4069
Rp4070
(dp4071
g18
F0.5
sg19
I16667
sg20
g21
((dp4072
I00
I16639
sI01
I28
stp4073
Rp4074
sg25
I2
sg26
F16668.0
sbs(g8
Vcontains(fresh)
p4075
tp4076
g0
(g14
g2
Ntp4077
Rp4078
(dp4079
g18
F0.5
sg19
I16667
sg20
g21
((dp4080
I00
I16663
sI01
I4
stp4081
Rp4082
sg25
I2
sg26
F16668.0
sbs(g8
Vcontains(cool)
p4083
tp4084
g0
(g14
g2
Ntp4085
Rp4086
(dp4087
g18
F0.5
sg19
I16667
sg20
g21
((dp4088
I00
I16665
sI01
I2
stp4089
Rp4090
sg25
I2
sg26
F16668.0
sbs(g8
Vcontains(hate)
p4091
tp4092
g0
(g14
g2
Ntp4093
Rp4094
(dp4095
g18
F0.5
sg19
I16667
sg20
g21
((dp4096
I00
I16574
sI01
I93
stp4097
Rp4098
sg25
I2
sg26
F16668.0
sbs(g8
Vcontains(failur)
p4099
tp4100
g0
(g14
g2
Ntp4101
Rp4102
(dp4103
g18
F0.5
sg19
I16667
sg20
g21
((dp4104
I00
I16640
sI01
I27
stp4105
Rp4106
sg25
I2
sg26
F16668.0
sbs(g9
Vcontains(shift)
p4107
tp4108
g0
(g14
g2
Ntp4109
Rp4110
(dp4111
g18
F0.5
sg19
I91910
sg20
g21
((dp4112
I00
I91211
sI01
I699
stp4113
Rp4114
sg25
I2
sg26
F91911.0
sbs(g9
Vcontains(failur)
p4115
tp4116
g0
(g14
g2
Ntp4117
Rp4118
(dp4119
g18
F0.5
sg19
I91910
sg20
g21
((dp4120
I00
I91908
sI01
I2
stp4121
Rp4122
sg25
I2
sg26
F91911.0
sbs(g9
Vcontains(wish)
p4123
tp4124
g0
(g14
g2
Ntp4125
Rp4126
(dp4127
g18
F0.5
sg19
I91910
sg20
g21
((dp4128
I00
I91801
sI01
I109
stp4129
Rp4130
sg25
I2
sg26
F91911.0
sbs(g8
Vcontains(overtim)
p4131
tp4132
g0
(g14
g2
Ntp4133
Rp4134
(dp4135
g18
F0.5
sg19
I16667
sg20
g21
((dp4136
I00
I16592
sI01
I75
stp4137
Rp4138
sg25
I2
sg26
F16668.0
sbs(g8
Vcontains(empti)
p4139
tp4140
g0
(g14
g2
Ntp4141
Rp4142
(dp4143
g18
F0.5
sg19
I16667
sg20
g21
((dp4144
I00
I16646
sI01
I21
stp4145
Rp4146
sg25
I2
sg26
F16668.0
sbs(g8
Vcontains(amaz)
p4147
tp4148
g0
(g14
g2
Ntp4149
Rp4150
(dp4151
g18
F0.5
sg19
I16667
sg20
g21
((dp4152
I00
I16667
stp4153
Rp4154
sg25
I2
sg26
F16668.0
sbs(g9
Vcontains(tediou)
p4155
tp4156
g0
(g14
g2
Ntp4157
Rp4158
(dp4159
g18
F0.5
sg19
I91910
sg20
g21
((dp4160
I00
I91910
stp4161
Rp4162
sg25
I2
sg26
F91911.0
sbs(g9
Vcontains(balanc)
p4163
tp4164
g0
(g14
g2
Ntp4165
Rp4166
(dp4167
g18
F0.5
sg19
I91910
sg20
g21
((dp4168
I00
I89288
sI01
I2622
stp4169
Rp4170
sg25
I2
sg26
F91911.0
sbs(g8
Vcontains(lazi)
p4171
tp4172
g0
(g14
g2
Ntp4173
Rp4174
(dp4175
g18
F0.5
sg19
I16667
sg20
g21
((dp4176
I00
I16623
sI01
I44
stp4177
Rp4178
sg25
I2
sg26
F16668.0
sbs(g9
Vcontains(enthusiast)
p4179
tp4180
g0
(g14
g2
Ntp4181
Rp4182
(dp4183
g18
F0.5
sg19
I91910
sg20
g21
((dp4184
I00
I91869
sI01
I41
stp4185
Rp4186
sg25
I2
sg26
F91911.0
sbs(g8
Vcontains(decreas)
p4187
tp4188
g0
(g14
g2
Ntp4189
Rp4190
(dp4191
g18
F0.5
sg19
I16667
sg20
g21
((dp4192
I00
I16662
sI01
I5
stp4193
Rp4194
sg25
I2
sg26
F16668.0
sbs(g9
Vcontains(comfort)
p4195
tp4196
g0
(g14
g2
Ntp4197
Rp4198
(dp4199
g18
F0.5
sg19
I91910
sg20
g21
((dp4200
I00
I91655
sI01
I255
stp4201
Rp4202
sg25
I2
sg26
F91911.0
sbs(g8
Vcontains(luck)
p4203
tp4204
g0
(g14
g2
Ntp4205
Rp4206
(dp4207
g18
F0.5
sg19
I16667
sg20
g21
((dp4208
I00
I16664
sI01
I3
stp4209
Rp4210
sg25
I2
sg26
F16668.0
sbs(g9
Vcontains(affect)
p4211
tp4212
g0
(g14
g2
Ntp4213
Rp4214
(dp4215
g18
F0.5
sg19
I91910
sg20
g21
((dp4216
I00
I91873
sI01
I37
stp4217
Rp4218
sg25
I2
sg26
F91911.0
sbs(g9
Vcontains(interest)
p4219
tp4220
g0
(g14
g2
Ntp4221
Rp4222
(dp4223
g18
F0.5
sg19
I91910
sg20
g21
((dp4224
I00
I91185
sI01
I725
stp4225
Rp4226
sg25
I2
sg26
F91911.0
sbs(g8
Vcontains(reward)
p4227
tp4228
g0
(g14
g2
Ntp4229
Rp4230
(dp4231
g18
F0.5
sg19
I16667
sg20
g21
((dp4232
I00
I16617
sI01
I50
stp4233
Rp4234
sg25
I2
sg26
F16668.0
sbs(g9
Vcontains(minim)
p4235
tp4236
g0
(g14
g2
Ntp4237
Rp4238
(dp4239
g18
F0.5
sg19
I91910
sg20
g21
((dp4240
I00
I91879
sI01
I31
stp4241
Rp4242
sg25
I2
sg26
F91911.0
sbs(g8
Vcontains(posit)
p4243
tp4244
g0
(g14
g2
Ntp4245
Rp4246
(dp4247
g18
F0.5
sg19
I16667
sg20
g21
((dp4248
I00
I16521
sI01
I146
stp4249
Rp4250
sg25
I2
sg26
F16668.0
sbs(g8
Vcontains(troubl)
p4251
tp4252
g0
(g14
g2
Ntp4253
Rp4254
(dp4255
g18
F0.5
sg19
I16667
sg20
g21
((dp4256
I00
I16586
sI01
I81
stp4257
Rp4258
sg25
I2
sg26
F16668.0
sbs(g9
Vcontains(activ)
p4259
tp4260
g0
(g14
g2
Ntp4261
Rp4262
(dp4263
g18
F0.5
sg19
I91910
sg20
g21
((dp4264
I00
I91493
sI01
I417
stp4265
Rp4266
sg25
I2
sg26
F91911.0
sbs(g8
Vcontains(expens)
p4267
tp4268
g0
(g14
g2
Ntp4269
Rp4270
(dp4271
g18
F0.5
sg19
I16667
sg20
g21
((dp4272
I00
I16640
sI01
I27
stp4273
Rp4274
sg25
I2
sg26
F16668.0
sbs(g8
Vcontains(wrong)
p4275
tp4276
g0
(g14
g2
Ntp4277
Rp4278
(dp4279
g18
F0.5
sg19
I16667
sg20
g21
((dp4280
I00
I16546
sI01
I121
stp4281
Rp4282
sg25
I2
sg26
F16668.0
sbs(g9
Vcontains(happi)
p4283
tp4284
g0
(g14
g2
Ntp4285
Rp4286
(dp4287
g18
F0.5
sg19
I91910
sg20
g21
((dp4288
I00
I91167
sI01
I743
stp4289
Rp4290
sg25
I2
sg26
F91911.0
sbs(g8
Vcontains(kind)
p4291
tp4292
g0
(g14
g2
Ntp4293
Rp4294
(dp4295
g18
F0.5
sg19
I16667
sg20
g21
((dp4296
I00
I16655
sI01
I12
stp4297
Rp4298
sg25
I2
sg26
F16668.0
sbs(g9
Vcontains(apprais)
p4299
tp4300
g0
(g14
g2
Ntp4301
Rp4302
(dp4303
g18
F0.5
sg19
I91910
sg20
g21
((dp4304
I00
I91851
sI01
I59
stp4305
Rp4306
sg25
I2
sg26
F91911.0
sbs(g8
Vcontains(tediou)
p4307
tp4308
g0
(g14
g2
Ntp4309
Rp4310
(dp4311
g18
F0.5
sg19
I16667
sg20
g21
((dp4312
I00
I16623
sI01
I44
stp4313
Rp4314
sg25
I2
sg26
F16668.0
sbs(g8
Vcontains(realli)
p4315
tp4316
g0
(g14
g2
Ntp4317
Rp4318
(dp4319
g18
F0.5
sg19
I16667
sg20
g21
((dp4320
I00
I16416
sI01
I251
stp4321
Rp4322
sg25
I2
sg26
F16668.0
sbs(g8
Vcontains(minim)
p4323
tp4324
g0
(g14
g2
Ntp4325
Rp4326
(dp4327
g18
F0.5
sg19
I16667
sg20
g21
((dp4328
I00
I16600
sI01
I67
stp4329
Rp4330
sg25
I2
sg26
F16668.0
sbs(g8
Vcontains(cannot)
p4331
tp4332
g0
(g14
g2
Ntp4333
Rp4334
(dp4335
g18
F0.5
sg19
I16667
sg20
g21
((dp4336
I00
I16657
sI01
I10
stp4337
Rp4338
sg25
I2
sg26
F16668.0
sbs(g9
Vcontains(ethic)
p4339
tp4340
g0
(g14
g2
Ntp4341
Rp4342
(dp4343
g18
F0.5
sg19
I91910
sg20
g21
((dp4344
I00
I91629
sI01
I281
stp4345
Rp4346
sg25
I2
sg26
F91911.0
sbs(g8
Vcontains(stupid)
p4347
tp4348
g0
(g14
g2
Ntp4349
Rp4350
(dp4351
g18
F0.5
sg19
I16667
sg20
g21
((dp4352
I00
I16649
sI01
I18
stp4353
Rp4354
sg25
I2
sg26
F16668.0
sbs(g8
Vcontains(complic)
p4355
tp4356
g0
(g14
g2
Ntp4357
Rp4358
(dp4359
g18
F0.5
sg19
I16667
sg20
g21
((dp4360
I00
I16624
sI01
I43
stp4361
Rp4362
sg25
I2
sg26
F16668.0
sbs(g8
Vcontains(mental)
p4363
tp4364
g0
(g14
g2
Ntp4365
Rp4366
(dp4367
g18
F0.5
sg19
I16667
sg20
g21
((dp4368
I00
I16627
sI01
I40
stp4369
Rp4370
sg25
I2
sg26
F16668.0
sbs(g9
Vcontains(well)
p4371
tp4372
g0
(g14
g2
Ntp4373
Rp4374
(dp4375
g18
F0.5
sg19
I91910
sg20
g21
((dp4376
I00
I90656
sI01
I1254
stp4377
Rp4378
sg25
I2
sg26
F91911.0
sbs(g8
Vcontains(quit)
p4379
tp4380
g0
(g14
g2
Ntp4381
Rp4382
(dp4383
g18
F0.5
sg19
I16667
sg20
g21
((dp4384
I00
I16592
sI01
I75
stp4385
Rp4386
sg25
I2
sg26
F16668.0
sbs(g8
Vcontains(profession)
p4387
tp4388
g0
(g14
g2
Ntp4389
Rp4390
(dp4391
g18
F0.5
sg19
I16667
sg20
g21
((dp4392
I00
I16649
sI01
I18
stp4393
Rp4394
sg25
I2
sg26
F16668.0
sbs(g9
Vcontains(execut)
p4395
tp4396
g0
(g14
g2
Ntp4397
Rp4398
(dp4399
g18
F0.5
sg19
I91910
sg20
g21
((dp4400
I00
I91756
sI01
I154
stp4401
Rp4402
sg25
I2
sg26
F91911.0
sbs(g8
Vcontains(imposs)
p4403
tp4404
g0
(g14
g2
Ntp4405
Rp4406
(dp4407
g18
F0.5
sg19
I16667
sg20
g21
((dp4408
I00
I16523
sI01
I144
stp4409
Rp4410
sg25
I2
sg26
F16668.0
sbs(g8
Vcontains(smart)
p4411
tp4412
g0
(g14
g2
Ntp4413
Rp4414
(dp4415
g18
F0.5
sg19
I16667
sg20
g21
((dp4416
I00
I16666
sI01
I1
stp4417
Rp4418
sg25
I2
sg26
F16668.0
sbs(g8
Vcontains(sick)
p4419
tp4420
g0
(g14
g2
Ntp4421
Rp4422
(dp4423
g18
F0.5
sg19
I16667
sg20
g21
((dp4424
I00
I16564
sI01
I103
stp4425
Rp4426
sg25
I2
sg26
F16668.0
sbs(g8
Vcontains(simpl)
p4427
tp4428
g0
(g14
g2
Ntp4429
Rp4430
(dp4431
g18
F0.5
sg19
I16667
sg20
g21
((dp4432
I00
I16657
sI01
I10
stp4433
Rp4434
sg25
I2
sg26
F16668.0
sbs(g9
Vcontains(harsh)
p4435
tp4436
g0
(g14
g2
Ntp4437
Rp4438
(dp4439
g18
F0.5
sg19
I91910
sg20
g21
((dp4440
I00
I91910
stp4441
Rp4442
sg25
I2
sg26
F91911.0
sbs(g8
Vcontains(unrealist)
p4443
tp4444
g0
(g14
g2
Ntp4445
Rp4446
(dp4447
g18
F0.5
sg19
I16667
sg20
g21
((dp4448
I00
I16604
sI01
I63
stp4449
Rp4450
sg25
I2
sg26
F16668.0
sbs(g9
Vcontains(useless)
p4451
tp4452
g0
(g14
g2
Ntp4453
Rp4454
(dp4455
g18
F0.5
sg19
I91910
sg20
g21
((dp4456
I00
I91905
sI01
I5
stp4457
Rp4458
sg25
I2
sg26
F91911.0
sbs(g8
Vcontains(disgust)
p4459
tp4460
g0
(g14
g2
Ntp4461
Rp4462
(dp4463
g18
F0.5
sg19
I16667
sg20
g21
((dp4464
I00
I16663
sI01
I4
stp4465
Rp4466
sg25
I2
sg26
F16668.0
sbs(g9
Vcontains(difficult)
p4467
tp4468
g0
(g14
g2
Ntp4469
Rp4470
(dp4471
g18
F0.5
sg19
I91910
sg20
g21
((dp4472
I00
I91854
sI01
I56
stp4473
Rp4474
sg25
I2
sg26
F91911.0
sbs(g9
Vcontains(improv)
p4475
tp4476
g0
(g14
g2
Ntp4477
Rp4478
(dp4479
g18
F0.5
sg19
I91910
sg20
g21
((dp4480
I00
I91573
sI01
I337
stp4481
Rp4482
sg25
I2
sg26
F91911.0
sbs(g9
Vcontains(poorli)
p4483
tp4484
g0
(g14
g2
Ntp4485
Rp4486
(dp4487
g18
F0.5
sg19
I91910
sg20
g21
((dp4488
I00
I91903
sI01
I7
stp4489
Rp4490
sg25
I2
sg26
F91911.0
sbs(g8
Vcontains(allow)
p4491
tp4492
g0
(g14
g2
Ntp4493
Rp4494
(dp4495
g18
F0.5
sg19
I16667
sg20
g21
((dp4496
I00
I16628
sI01
I39
stp4497
Rp4498
sg25
I2
sg26
F16668.0
sbs(g9
Vcontains(harass)
p4499
tp4500
g0
(g14
g2
Ntp4501
Rp4502
(dp4503
g18
F0.5
sg19
I91910
sg20
g21
((dp4504
I00
I91899
sI01
I11
stp4505
Rp4506
sg25
I2
sg26
F91911.0
sbs(g9
Vcontains(heavili)
p4507
tp4508
g0
(g14
g2
Ntp4509
Rp4510
(dp4511
g18
F0.5
sg19
I91910
sg20
g21
((dp4512
I00
I91903
sI01
I7
stp4513
Rp4514
sg25
I2
sg26
F91911.0
sbs(g8
Vcontains(impati)
p4515
tp4516
g0
(g14
g2
Ntp4517
Rp4518
(dp4519
g18
F0.5
sg19
I16667
sg20
g21
((dp4520
I00
I16658
sI01
I9
stp4521
Rp4522
sg25
I2
sg26
F16668.0
sbs(g9
Vcontains(great)
p4523
tp4524
g0
(g14
g2
Ntp4525
Rp4526
(dp4527
g18
F0.5
sg19
I91910
sg20
g21
((dp4528
I00
I78754
sI01
I13156
stp4529
Rp4530
sg25
I2
sg26
F91911.0
sbs(g9
Vcontains(impati)
p4531
tp4532
g0
(g14
g2
Ntp4533
Rp4534
(dp4535
g18
F0.5
sg19
I91910
sg20
g21
((dp4536
I00
I91909
sI01
I1
stp4537
Rp4538
sg25
I2
sg26
F91911.0
sbs(g8
Vcontains(respect)
p4539
tp4540
g0
(g14
g2
Ntp4541
Rp4542
(dp4543
g18
F0.5
sg19
I16667
sg20
g21
((dp4544
I00
I16636
sI01
I31
stp4545
Rp4546
sg25
I2
sg26
F16668.0
sbs(g9
Vcontains(limit)
p4547
tp4548
g0
(g14
g2
Ntp4549
Rp4550
(dp4551
g18
F0.5
sg19
I91910
sg20
g21
((dp4552
I00
I91825
sI01
I85
stp4553
Rp4554
sg25
I2
sg26
F91911.0
sbs(g8
Vcontains(dead)
p4555
tp4556
g0
(g14
g2
Ntp4557
Rp4558
(dp4559
g18
F0.5
sg19
I16667
sg20
g21
((dp4560
I00
I16638
sI01
I29
stp4561
Rp4562
sg25
I2
sg26
F16668.0
sbs(g8
Vcontains(innov)
p4563
tp4564
g0
(g14
g2
Ntp4565
Rp4566
(dp4567
g18
F0.5
sg19
I16667
sg20
g21
((dp4568
I00
I16652
sI01
I15
stp4569
Rp4570
sg25
I2
sg26
F16668.0
sbs(g9
Vcontains(perfect)
p4571
tp4572
g0
(g14
g2
Ntp4573
Rp4574
(dp4575
g18
F0.5
sg19
I91910
sg20
g21
((dp4576
I00
I91625
sI01
I285
stp4577
Rp4578
sg25
I2
sg26
F91911.0
sbs(g8
Vcontains(joy)
p4579
tp4580
g0
(g14
g2
Ntp4581
Rp4582
(dp4583
g18
F0.5
sg19
I16667
sg20
g21
((dp4584
I00
I16667
stp4585
Rp4586
sg25
I2
sg26
F16668.0
sbs(g9
Vcontains(fall)
p4587
tp4588
g0
(g14
g2
Ntp4589
Rp4590
(dp4591
g18
F0.5
sg19
I91910
sg20
g21
((dp4592
I00
I91855
sI01
I55
stp4593
Rp4594
sg25
I2
sg26
F91911.0
sbs(g8
Vcontains(competit)
p4595
tp4596
g0
(g14
g2
Ntp4597
Rp4598
(dp4599
g18
F0.5
sg19
I16667
sg20
g21
((dp4600
I00
I16636
sI01
I31
stp4601
Rp4602
sg25
I2
sg26
F16668.0
sbs(g8
Vcontains(satisfactori)
p4603
tp4604
g0
(g14
g2
Ntp4605
Rp4606
(dp4607
g18
F0.5
sg19
I16667
sg20
g21
((dp4608
I00
I16666
sI01
I1
stp4609
Rp4610
sg25
I2
sg26
F16668.0
sbs(g8
Vcontains(ambiti)
p4611
tp4612
g0
(g14
g2
Ntp4613
Rp4614
(dp4615
g18
F0.5
sg19
I16667
sg20
g21
((dp4616
I00
I16667
stp4617
Rp4618
sg25
I2
sg26
F16668.0
sbs(g8
Vcontains(disadvantag)
p4619
tp4620
g0
(g14
g2
Ntp4621
Rp4622
(dp4623
g18
F0.5
sg19
I16667
sg20
g21
((dp4624
I00
I16666
sI01
I1
stp4625
Rp4626
sg25
I2
sg26
F16668.0
sbs(g8
Vcontains(heavili)
p4627
tp4628
g0
(g14
g2
Ntp4629
Rp4630
(dp4631
g18
F0.5
sg19
I16667
sg20
g21
((dp4632
I00
I16645
sI01
I22
stp4633
Rp4634
sg25
I2
sg26
F16668.0
sbs(g9
Vcontains(right)
p4635
tp4636
g0
(g14
g2
Ntp4637
Rp4638
(dp4639
g18
F0.5
sg19
I91910
sg20
g21
((dp4640
I00
I91245
sI01
I665
stp4641
Rp4642
sg25
I2
sg26
F91911.0
sbs(g9
Vcontains(disappoint)
p4643
tp4644
g0
(g14
g2
Ntp4645
Rp4646
(dp4647
g18
F0.5
sg19
I91910
sg20
g21
((dp4648
I00
I91906
sI01
I4
stp4649
Rp4650
sg25
I2
sg26
F91911.0
sbs(g9
Vcontains(bad)
p4651
tp4652
g0
(g14
g2
Ntp4653
Rp4654
(dp4655
g18
F0.5
sg19
I91910
sg20
g21
((dp4656
I00
I91853
sI01
I57
stp4657
Rp4658
sg25
I2
sg26
F91911.0
sbs(g8
Vcontains(right)
p4659
tp4660
g0
(g14
g2
Ntp4661
Rp4662
(dp4663
g18
F0.5
sg19
I16667
sg20
g21
((dp4664
I00
I16657
sI01
I10
stp4665
Rp4666
sg25
I2
sg26
F16668.0
sbs(g8
Vcontains(tough)
p4667
tp4668
g0
(g14
g2
Ntp4669
Rp4670
(dp4671
g18
F0.5
sg19
I16667
sg20
g21
((dp4672
I00
I16466
sI01
I201
stp4673
Rp4674
sg25
I2
sg26
F16668.0
sbs(g8
Vcontains(pleasant)
p4675
tp4676
g0
(g14
g2
Ntp4677
Rp4678
(dp4679
g18
F0.5
sg19
I16667
sg20
g21
((dp4680
I00
I16667
stp4681
Rp4682
sg25
I2
sg26
F16668.0
sbs(g8
Vcontains(angri)
p4683
tp4684
g0
(g14
g2
Ntp4685
Rp4686
(dp4687
g18
F0.5
sg19
I16667
sg20
g21
((dp4688
I00
I16614
sI01
I53
stp4689
Rp4690
sg25
I2
sg26
F16668.0
sbs(g9
Vcontains(mind)
p4691
tp4692
g0
(g14
g2
Ntp4693
Rp4694
(dp4695
g18
F0.5
sg19
I91910
sg20
g21
((dp4696
I00
I91776
sI01
I134
stp4697
Rp4698
sg25
I2
sg26
F91911.0
sbs(g9
Vcontains(slow)
p4699
tp4700
g0
(g14
g2
Ntp4701
Rp4702
(dp4703
g18
F0.5
sg19
I91910
sg20
g21
((dp4704
I00
I91872
sI01
I38
stp4705
Rp4706
sg25
I2
sg26
F91911.0
sbs(g9
Vcontains(gain)
p4707
tp4708
g0
(g14
g2
Ntp4709
Rp4710
(dp4711
g18
F0.5
sg19
I91910
sg20
g21
((dp4712
I00
I91367
sI01
I543
stp4713
Rp4714
sg25
I2
sg26
F91911.0
sbs(g9
Vcontains(depend)
p4715
tp4716
g0
(g14
g2
Ntp4717
Rp4718
(dp4719
g18
F0.5
sg19
I91910
sg20
g21
((dp4720
I00
I91617
sI01
I293
stp4721
Rp4722
sg25
I2
sg26
F91911.0
sbs(g9
Vcontains(late)
p4723
tp4724
g0
(g14
g2
Ntp4725
Rp4726
(dp4727
g18
F0.5
sg19
I91910
sg20
g21
((dp4728
I00
I91877
sI01
I33
stp4729
Rp4730
sg25
I2
sg26
F91911.0
sbs(g9
Vcontains(cool)
p4731
tp4732
g0
(g14
g2
Ntp4733
Rp4734
(dp4735
g18
F0.5
sg19
I91910
sg20
g21
((dp4736
I00
I91547
sI01
I363
stp4737
Rp4738
sg25
I2
sg26
F91911.0
sbs(g8
Vcontains(talent)
p4739
tp4740
g0
(g14
g2
Ntp4741
Rp4742
(dp4743
g18
F0.5
sg19
I16667
sg20
g21
((dp4744
I00
I16651
sI01
I16
stp4745
Rp4746
sg25
I2
sg26
F16668.0
sbs(g8
Vcontains(safeti)
p4747
tp4748
g0
(g14
g2
Ntp4749
Rp4750
(dp4751
g18
F0.5
sg19
I16667
sg20
g21
((dp4752
I00
I16646
sI01
I21
stp4753
Rp4754
sg25
I2
sg26
F16668.0
sbs(g8
Vcontains(afraid)
p4755
tp4756
g0
(g14
g2
Ntp4757
Rp4758
(dp4759
g18
F0.5
sg19
I16667
sg20
g21
((dp4760
I00
I16644
sI01
I23
stp4761
Rp4762
sg25
I2
sg26
F16668.0
sbs(g8
Vcontains(requir)
p4763
tp4764
g0
(g14
g2
Ntp4765
Rp4766
(dp4767
g18
F0.5
sg19
I16667
sg20
g21
((dp4768
I00
I16543
sI01
I124
stp4769
Rp4770
sg25
I2
sg26
F16668.0
sbs(g9
Vcontains(broken)
p4771
tp4772
g0
(g14
g2
Ntp4773
Rp4774
(dp4775
g18
F0.5
sg19
I91910
sg20
g21
((dp4776
I00
I91910
stp4777
Rp4778
sg25
I2
sg26
F91911.0
sbs(g8
Vcontains(flexibl)
p4779
tp4780
g0
(g14
g2
Ntp4781
Rp4782
(dp4783
g18
F0.5
sg19
I16667
sg20
g21
((dp4784
I00
I16617
sI01
I50
stp4785
Rp4786
sg25
I2
sg26
F16668.0
sbs(g9
Vcontains(poor)
p4787
tp4788
g0
(g14
g2
Ntp4789
Rp4790
(dp4791
g18
F0.5
sg19
I91910
sg20
g21
((dp4792
I00
I91844
sI01
I66
stp4793
Rp4794
sg25
I2
sg26
F91911.0
sbs(g8
Vcontains(impress)
p4795
tp4796
g0
(g14
g2
Ntp4797
Rp4798
(dp4799
g18
F0.5
sg19
I16667
sg20
g21
((dp4800
I00
I16664
sI01
I3
stp4801
Rp4802
sg25
I2
sg26
F16668.0
sbs(g9
Vcontains(benefit)
p4803
tp4804
g0
(g14
g2
Ntp4805
Rp4806
(dp4807
g18
F0.5
sg19
I91910
sg20
g21
((dp4808
I00
I89991
sI01
I1919
stp4809
Rp4810
sg25
I2
sg26
F91911.0
sbs(g8
Vcontains(activ)
p4811
tp4812
g0
(g14
g2
Ntp4813
Rp4814
(dp4815
g18
F0.5
sg19
I16667
sg20
g21
((dp4816
I00
I16518
sI01
I149
stp4817
Rp4818
sg25
I2
sg26
F16668.0
sbs(g8
Vcontains(enthusiast)
p4819
tp4820
g0
(g14
g2
Ntp4821
Rp4822
(dp4823
g18
F0.5
sg19
I16667
sg20
g21
((dp4824
I00
I16667
stp4825
Rp4826
sg25
I2
sg26
F16668.0
sbs(g8
Vcontains(bright)
p4827
tp4828
g0
(g14
g2
Ntp4829
Rp4830
(dp4831
g18
F0.5
sg19
I16667
sg20
g21
((dp4832
I00
I16667
stp4833
Rp4834
sg25
I2
sg26
F16668.0
sbs(g9
Vcontains(incompet)
p4835
tp4836
g0
(g14
g2
Ntp4837
Rp4838
(dp4839
g18
F0.5
sg19
I91910
sg20
g21
((dp4840
I00
I91910
stp4841
Rp4842
sg25
I2
sg26
F91911.0
sbs(g9
Vcontains(posit)
p4843
tp4844
g0
(g14
g2
Ntp4845
Rp4846
(dp4847
g18
F0.5
sg19
I91910
sg20
g21
((dp4848
I00
I90697
sI01
I1213
stp4849
Rp4850
sg25
I2
sg26
F91911.0
sbs(g8
Vcontains(dirti)
p4851
tp4852
g0
(g14
g2
Ntp4853
Rp4854
(dp4855
g18
F0.5
sg19
I16667
sg20
g21
((dp4856
I00
I16644
sI01
I23
stp4857
Rp4858
sg25
I2
sg26
F16668.0
sbs(g9
Vcontains(fake)
p4859
tp4860
g0
(g14
g2
Ntp4861
Rp4862
(dp4863
g18
F0.5
sg19
I91910
sg20
g21
((dp4864
I00
I91910
stp4865
Rp4866
sg25
I2
sg26
F91911.0
sbs(g8
Vcontains(ill)
p4867
tp4868
g0
(g14
g2
Ntp4869
Rp4870
(dp4871
g18
F0.5
sg19
I16667
sg20
g21
((dp4872
I00
I16643
sI01
I24
stp4873
Rp4874
sg25
I2
sg26
F16668.0
sbs(g9
Vcontains(decreas)
p4875
tp4876
g0
(g14
g2
Ntp4877
Rp4878
(dp4879
g18
F0.5
sg19
I91910
sg20
g21
((dp4880
I00
I91902
sI01
I8
stp4881
Rp4882
sg25
I2
sg26
F91911.0
sbs(g8
Vcontains(import)
p4883
tp4884
g0
(g14
g2
Ntp4885
Rp4886
(dp4887
g18
F0.5
sg19
I16667
sg20
g21
((dp4888
I00
I16661
sI01
I6
stp4889
Rp4890
sg25
I2
sg26
F16668.0
sbs(g8
Vcontains(perform)
p4891
tp4892
g0
(g14
g2
Ntp4893
Rp4894
(dp4895
g18
F0.5
sg19
I16667
sg20
g21
((dp4896
I00
I16582
sI01
I85
stp4897
Rp4898
sg25
I2
sg26
F16668.0
sbs(g8
Vcontains(seriou)
p4899
tp4900
g0
(g14
g2
Ntp4901
Rp4902
(dp4903
g18
F0.5
sg19
I16667
sg20
g21
((dp4904
I00
I16599
sI01
I68
stp4905
Rp4906
sg25
I2
sg26
F16668.0
sbs(g9
Vcontains(bunch)
p4907
tp4908
g0
(g14
g2
Ntp4909
Rp4910
(dp4911
g18
F0.5
sg19
I91910
sg20
g21
((dp4912
I00
I91861
sI01
I49
stp4913
Rp4914
sg25
I2
sg26
F91911.0
sbs(g9
Vcontains(fire)
p4915
tp4916
g0
(g14
g2
Ntp4917
Rp4918
(dp4919
g18
F0.5
sg19
I91910
sg20
g21
((dp4920
I00
I91860
sI01
I50
stp4921
Rp4922
sg25
I2
sg26
F91911.0
sbs(g8
Vcontains(oper)
p4923
tp4924
g0
(g14
g2
Ntp4925
Rp4926
(dp4927
g18
F0.5
sg19
I16667
sg20
g21
((dp4928
I00
I16626
sI01
I41
stp4929
Rp4930
sg25
I2
sg26
F16668.0
sbssS'_label_probdist'
p4931
g0
(g14
g2
Ntp4932
Rp4933
(dp4934
g18
F0.5
sg19
I108577
sg20
g21
((dp4935
g8
I16667
sg9
I91910
stp4936
Rp4937
sg25
I2
sg26
F108578.0
sbsb.