ccopy_reg
_reconstructor
p0
(cnltk.classify.naivebayes
NaiveBayesClassifier
p1
c__builtin__
object
p2
Ntp3
Rp4
(dp5
S'_labels'
p6
(lp7
S'neg'
p8
aS'neutral'
p9
aS'pos'
p10
asS'_feature_probdist'
p11
(dp12
(g8
Vcontains(unnecessarili)
p13
tp14
g0
(cnltk.probability
ELEProbDist
p15
g2
Ntp16
Rp17
(dp18
S'_gamma'
p19
F0.5
sS'_N'
p20
I17127
sS'_freqdist'
p21
cnltk.probability
FreqDist
p22
((dp23
I00
I17126
sI01
I1
stp24
Rp25
sS'_bins'
p26
I2
sS'_divisor'
p27
F17128.0
sbs(g8
Vcontains(insult)
p28
tp29
g0
(g15
g2
Ntp30
Rp31
(dp32
g19
F0.5
sg20
I17127
sg21
g22
((dp33
I00
I17126
sI01
I1
stp34
Rp35
sg26
I2
sg27
F17128.0
sbs(g10
Vcontains(hate)
p36
tp37
g0
(g15
g2
Ntp38
Rp39
(dp40
g19
F0.5
sg20
I94852
sg21
g22
((dp41
I00
I94847
sI01
I5
stp42
Rp43
sg26
I2
sg27
F94853.0
sbs(g10
Vcontains(angrili)
p44
tp45
g0
(g15
g2
Ntp46
Rp47
(dp48
g19
F0.5
sg20
I94852
sg21
g22
((dp49
I00
I94852
stp50
Rp51
sg26
I1
sg27
F94852.5
sbs(g9
Vcontains(greatest)
p52
tp53
g0
(g15
g2
Ntp54
Rp55
(dp56
g19
F0.5
sg20
I57665
sg21
g22
((dp57
I00
I57665
stp58
Rp59
sg26
I2
sg27
F57666.0
sbs(g9
Vcontains(break)
p60
tp61
g0
(g15
g2
Ntp62
Rp63
(dp64
g19
F0.5
sg20
I57665
sg21
g22
((dp65
I00
I57377
sI01
I288
stp66
Rp67
sg26
I2
sg27
F57666.0
sbs(g10
Vcontains(unfortun)
p68
tp69
g0
(g15
g2
Ntp70
Rp71
(dp72
g19
F0.5
sg20
I94852
sg21
g22
((dp73
I00
I94822
sI01
I30
stp74
Rp75
sg26
I2
sg27
F94853.0
sbs(g8
Vcontains(comfort)
p76
tp77
g0
(g15
g2
Ntp78
Rp79
(dp80
g19
F0.5
sg20
I17127
sg21
g22
((dp81
I00
I17116
sI01
I11
stp82
Rp83
sg26
I2
sg27
F17128.0
sbs(g9
Vcontains(incompet)
p84
tp85
g0
(g15
g2
Ntp86
Rp87
(dp88
g19
F0.5
sg20
I57665
sg21
g22
((dp89
I00
I57661
sI01
I4
stp90
Rp91
sg26
I2
sg27
F57666.0
sbs(g9
Vcontains(hardest)
p92
tp93
g0
(g15
g2
Ntp94
Rp95
(dp96
g19
F0.5
sg20
I57665
sg21
g22
((dp97
I00
I56539
sI01
I1126
stp98
Rp99
sg26
I2
sg27
F57666.0
sbs(g9
Vcontains(fantast)
p100
tp101
g0
(g15
g2
Ntp102
Rp103
(dp104
g19
F0.5
sg20
I57665
sg21
g22
((dp105
I00
I57662
sI01
I3
stp106
Rp107
sg26
I2
sg27
F57666.0
sbs(g9
Vcontains(highli)
p108
tp109
g0
(g15
g2
Ntp110
Rp111
(dp112
g19
F0.5
sg20
I57665
sg21
g22
((dp113
I00
I57618
sI01
I47
stp114
Rp115
sg26
I2
sg27
F57666.0
sbs(g9
Vcontains(spirit)
p116
tp117
g0
(g15
g2
Ntp118
Rp119
(dp120
g19
F0.5
sg20
I57665
sg21
g22
((dp121
I00
I57636
sI01
I29
stp122
Rp123
sg26
I2
sg27
F57666.0
sbs(g9
Vcontains(satisfi)
p124
tp125
g0
(g15
g2
Ntp126
Rp127
(dp128
g19
F0.5
sg20
I57665
sg21
g22
((dp129
I00
I57646
sI01
I19
stp130
Rp131
sg26
I2
sg27
F57666.0
sbs(g8
Vcontains(scari)
p132
tp133
g0
(g15
g2
Ntp134
Rp135
(dp136
g19
F0.5
sg20
I17127
sg21
g22
((dp137
I00
I17125
sI01
I2
stp138
Rp139
sg26
I2
sg27
F17128.0
sbs(g10
Vcontains(smart)
p140
tp141
g0
(g15
g2
Ntp142
Rp143
(dp144
g19
F0.5
sg20
I94852
sg21
g22
((dp145
I00
I94535
sI01
I317
stp146
Rp147
sg26
I2
sg27
F94853.0
sbs(g9
Vcontains(mind)
p148
tp149
g0
(g15
g2
Ntp150
Rp151
(dp152
g19
F0.5
sg20
I57665
sg21
g22
((dp153
I00
I57543
sI01
I122
stp154
Rp155
sg26
I2
sg27
F57666.0
sbs(g9
Vcontains(sincer)
p156
tp157
g0
(g15
g2
Ntp158
Rp159
(dp160
g19
F0.5
sg20
I57665
sg21
g22
((dp161
I00
I57665
stp162
Rp163
sg26
I2
sg27
F57666.0
sbs(g9
Vcontains(unnecessari)
p164
tp165
g0
(g15
g2
Ntp166
Rp167
(dp168
g19
F0.5
sg20
I57665
sg21
g22
((dp169
I00
I57664
sI01
I1
stp170
Rp171
sg26
I2
sg27
F57666.0
sbs(g9
Vcontains(success)
p172
tp173
g0
(g15
g2
Ntp174
Rp175
(dp176
g19
F0.5
sg20
I57665
sg21
g22
((dp177
I00
I57648
sI01
I17
stp178
Rp179
sg26
I2
sg27
F57666.0
sbs(g9
Vcontains(perk)
p180
tp181
g0
(g15
g2
Ntp182
Rp183
(dp184
g19
F0.5
sg20
I57665
sg21
g22
((dp185
I00
I57639
sI01
I26
stp186
Rp187
sg26
I2
sg27
F57666.0
sbs(g10
Vcontains(desper)
p188
tp189
g0
(g15
g2
Ntp190
Rp191
(dp192
g19
F0.5
sg20
I94852
sg21
g22
((dp193
I00
I94852
stp194
Rp195
sg26
I2
sg27
F94853.0
sbs(g9
Vcontains(late)
p196
tp197
g0
(g15
g2
Ntp198
Rp199
(dp200
g19
F0.5
sg20
I57665
sg21
g22
((dp201
I00
I57637
sI01
I28
stp202
Rp203
sg26
I2
sg27
F57666.0
sbs(g8
Vcontains(fail)
p204
tp205
g0
(g15
g2
Ntp206
Rp207
(dp208
g19
F0.5
sg20
I17127
sg21
g22
((dp209
I00
I17052
sI01
I75
stp210
Rp211
sg26
I2
sg27
F17128.0
sbs(g8
Vcontains(danger)
p212
tp213
g0
(g15
g2
Ntp214
Rp215
(dp216
g19
F0.5
sg20
I17127
sg21
g22
((dp217
I00
I17116
sI01
I11
stp218
Rp219
sg26
I2
sg27
F17128.0
sbs(g8
Vcontains(perfect)
p220
tp221
g0
(g15
g2
Ntp222
Rp223
(dp224
g19
F0.5
sg20
I17127
sg21
g22
((dp225
I00
I17127
stp226
Rp227
sg26
I2
sg27
F17128.0
sbs(g10
Vcontains(littl)
p228
tp229
g0
(g15
g2
Ntp230
Rp231
(dp232
g19
F0.5
sg20
I94852
sg21
g22
((dp233
I00
I94663
sI01
I189
stp234
Rp235
sg26
I2
sg27
F94853.0
sbs(g8
Vcontains(rude)
p236
tp237
g0
(g15
g2
Ntp238
Rp239
(dp240
g19
F0.5
sg20
I17127
sg21
g22
((dp241
I00
I16986
sI01
I141
stp242
Rp243
sg26
I2
sg27
F17128.0
sbs(g8
Vcontains(strong)
p244
tp245
g0
(g15
g2
Ntp246
Rp247
(dp248
g19
F0.5
sg20
I17127
sg21
g22
((dp249
I00
I17126
sI01
I1
stp250
Rp251
sg26
I2
sg27
F17128.0
sbs(g9
Vcontains(angri)
p252
tp253
g0
(g15
g2
Ntp254
Rp255
(dp256
g19
F0.5
sg20
I57665
sg21
g22
((dp257
I00
I57660
sI01
I5
stp258
Rp259
sg26
I2
sg27
F57666.0
sbs(g9
Vcontains(avail)
p260
tp261
g0
(g15
g2
Ntp262
Rp263
(dp264
g19
F0.5
sg20
I57665
sg21
g22
((dp265
I00
I57617
sI01
I48
stp266
Rp267
sg26
I2
sg27
F57666.0
sbs(g10
Vcontains(crisi)
p268
tp269
g0
(g15
g2
Ntp270
Rp271
(dp272
g19
F0.5
sg20
I94852
sg21
g22
((dp273
I00
I94847
sI01
I5
stp274
Rp275
sg26
I2
sg27
F94853.0
sbs(g10
Vcontains(greatli)
p276
tp277
g0
(g15
g2
Ntp278
Rp279
(dp280
g19
F0.5
sg20
I94852
sg21
g22
((dp281
I00
I94775
sI01
I77
stp282
Rp283
sg26
I2
sg27
F94853.0
sbs(g9
Vcontains(amaz)
p284
tp285
g0
(g15
g2
Ntp286
Rp287
(dp288
g19
F0.5
sg20
I57665
sg21
g22
((dp289
I00
I57660
sI01
I5
stp290
Rp291
sg26
I2
sg27
F57666.0
sbs(g10
Vcontains(wast)
p292
tp293
g0
(g15
g2
Ntp294
Rp295
(dp296
g19
F0.5
sg20
I94852
sg21
g22
((dp297
I00
I94837
sI01
I15
stp298
Rp299
sg26
I2
sg27
F94853.0
sbs(g9
Vcontains(fun)
p300
tp301
g0
(g15
g2
Ntp302
Rp303
(dp304
g19
F0.5
sg20
I57665
sg21
g22
((dp305
I00
I57536
sI01
I129
stp306
Rp307
sg26
I2
sg27
F57666.0
sbs(g9
Vcontains(disadvantag)
p308
tp309
g0
(g15
g2
Ntp310
Rp311
(dp312
g19
F0.5
sg20
I57665
sg21
g22
((dp313
I00
I57662
sI01
I3
stp314
Rp315
sg26
I2
sg27
F57666.0
sbs(g9
Vcontains(minimum)
p316
tp317
g0
(g15
g2
Ntp318
Rp319
(dp320
g19
F0.5
sg20
I57665
sg21
g22
((dp321
I00
I57570
sI01
I95
stp322
Rp323
sg26
I2
sg27
F57666.0
sbs(g9
Vcontains(scari)
p324
tp325
g0
(g15
g2
Ntp326
Rp327
(dp328
g19
F0.5
sg20
I57665
sg21
g22
((dp329
I00
I57665
stp330
Rp331
sg26
I2
sg27
F57666.0
sbs(g8
Vcontains(less)
p332
tp333
g0
(g15
g2
Ntp334
Rp335
(dp336
g19
F0.5
sg20
I17127
sg21
g22
((dp337
I00
I16639
sI01
I488
stp338
Rp339
sg26
I2
sg27
F17128.0
sbs(g10
Vcontains(satisfi)
p340
tp341
g0
(g15
g2
Ntp342
Rp343
(dp344
g19
F0.5
sg20
I94852
sg21
g22
((dp345
I00
I94565
sI01
I287
stp346
Rp347
sg26
I2
sg27
F94853.0
sbs(g9
Vcontains(tough)
p348
tp349
g0
(g15
g2
Ntp350
Rp351
(dp352
g19
F0.5
sg20
I57665
sg21
g22
((dp353
I00
I57639
sI01
I26
stp354
Rp355
sg26
I2
sg27
F57666.0
sbs(g10
Vcontains(danger)
p356
tp357
g0
(g15
g2
Ntp358
Rp359
(dp360
g19
F0.5
sg20
I94852
sg21
g22
((dp361
I00
I94851
sI01
I1
stp362
Rp363
sg26
I2
sg27
F94853.0
sbs(g9
Vcontains(heavili)
p364
tp365
g0
(g15
g2
Ntp366
Rp367
(dp368
g19
F0.5
sg20
I57665
sg21
g22
((dp369
I00
I57663
sI01
I2
stp370
Rp371
sg26
I2
sg27
F57666.0
sbs(g10
Vcontains(irrelev)
p372
tp373
g0
(g15
g2
Ntp374
Rp375
(dp376
g19
F0.5
sg20
I94852
sg21
g22
((dp377
I00
I94852
stp378
Rp379
sg26
I2
sg27
F94853.0
sbs(g8
Vcontains(brilliant)
p380
tp381
g0
(g15
g2
Ntp382
Rp383
(dp384
g19
F0.5
sg20
I17127
sg21
g22
((dp385
I00
I17127
stp386
Rp387
sg26
I2
sg27
F17128.0
sbs(g9
Vcontains(hardli)
p388
tp389
g0
(g15
g2
Ntp390
Rp391
(dp392
g19
F0.5
sg20
I57665
sg21
g22
((dp393
I00
I57661
sI01
I4
stp394
Rp395
sg26
I2
sg27
F57666.0
sbs(g9
Vcontains(take)
p396
tp397
g0
(g15
g2
Ntp398
Rp399
(dp400
g19
F0.5
sg20
I57665
sg21
g22
((dp401
I00
I57087
sI01
I578
stp402
Rp403
sg26
I2
sg27
F57666.0
sbs(g9
Vcontains(reward)
p404
tp405
g0
(g15
g2
Ntp406
Rp407
(dp408
g19
F0.5
sg20
I57665
sg21
g22
((dp409
I00
I57483
sI01
I182
stp410
Rp411
sg26
I2
sg27
F57666.0
sbs(g10
Vcontains(promot)
p412
tp413
g0
(g15
g2
Ntp414
Rp415
(dp416
g19
F0.5
sg20
I94852
sg21
g22
((dp417
I00
I94352
sI01
I500
stp418
Rp419
sg26
I2
sg27
F94853.0
sbs(g9
Vcontains(dead)
p420
tp421
g0
(g15
g2
Ntp422
Rp423
(dp424
g19
F0.5
sg20
I57665
sg21
g22
((dp425
I00
I57656
sI01
I9
stp426
Rp427
sg26
I2
sg27
F57666.0
sbs(g10
Vcontains(rough)
p428
tp429
g0
(g15
g2
Ntp430
Rp431
(dp432
g19
F0.5
sg20
I94852
sg21
g22
((dp433
I00
I94845
sI01
I7
stp434
Rp435
sg26
I2
sg27
F94853.0
sbs(g9
Vcontains(decreas)
p436
tp437
g0
(g15
g2
Ntp438
Rp439
(dp440
g19
F0.5
sg20
I57665
sg21
g22
((dp441
I00
I57656
sI01
I9
stp442
Rp443
sg26
I2
sg27
F57666.0
sbs(g8
Vcontains(motiv)
p444
tp445
g0
(g15
g2
Ntp446
Rp447
(dp448
g19
F0.5
sg20
I17127
sg21
g22
((dp449
I00
I17074
sI01
I53
stp450
Rp451
sg26
I2
sg27
F17128.0
sbs(g8
Vcontains(honest)
p452
tp453
g0
(g15
g2
Ntp454
Rp455
(dp456
g19
F0.5
sg20
I17127
sg21
g22
((dp457
I00
I17127
stp458
Rp459
sg26
I2
sg27
F17128.0
sbs(g9
Vcontains(fall)
p460
tp461
g0
(g15
g2
Ntp462
Rp463
(dp464
g19
F0.5
sg20
I57665
sg21
g22
((dp465
I00
I57646
sI01
I19
stp466
Rp467
sg26
I2
sg27
F57666.0
sbs(g10
Vcontains(corpor)
p468
tp469
g0
(g15
g2
Ntp470
Rp471
(dp472
g19
F0.5
sg20
I94852
sg21
g22
((dp473
I00
I94496
sI01
I356
stp474
Rp475
sg26
I2
sg27
F94853.0
sbs(g8
Vcontains(truli)
p476
tp477
g0
(g15
g2
Ntp478
Rp479
(dp480
g19
F0.5
sg20
I17127
sg21
g22
((dp481
I00
I17117
sI01
I10
stp482
Rp483
sg26
I2
sg27
F17128.0
sbs(g8
Vcontains(warn)
p484
tp485
g0
(g15
g2
Ntp486
Rp487
(dp488
g19
F0.5
sg20
I17127
sg21
g22
((dp489
I00
I17119
sI01
I8
stp490
Rp491
sg26
I2
sg27
F17128.0
sbs(g9
Vcontains(greatli)
p492
tp493
g0
(g15
g2
Ntp494
Rp495
(dp496
g19
F0.5
sg20
I57665
sg21
g22
((dp497
I00
I57664
sI01
I1
stp498
Rp499
sg26
I2
sg27
F57666.0
sbs(g9
Vcontains(fire)
p500
tp501
g0
(g15
g2
Ntp502
Rp503
(dp504
g19
F0.5
sg20
I57665
sg21
g22
((dp505
I00
I57608
sI01
I57
stp506
Rp507
sg26
I2
sg27
F57666.0
sbs(g9
Vcontains(consist)
p508
tp509
g0
(g15
g2
Ntp510
Rp511
(dp512
g19
F0.5
sg20
I57665
sg21
g22
((dp513
I00
I57518
sI01
I147
stp514
Rp515
sg26
I2
sg27
F57666.0
sbs(g8
Vcontains(satisfi)
p516
tp517
g0
(g15
g2
Ntp518
Rp519
(dp520
g19
F0.5
sg20
I17127
sg21
g22
((dp521
I00
I17119
sI01
I8
stp522
Rp523
sg26
I2
sg27
F17128.0
sbs(g10
Vcontains(lack)
p524
tp525
g0
(g15
g2
Ntp526
Rp527
(dp528
g19
F0.5
sg20
I94852
sg21
g22
((dp529
I00
I94728
sI01
I124
stp530
Rp531
sg26
I2
sg27
F94853.0
sbs(g9
Vcontains(shift)
p532
tp533
g0
(g15
g2
Ntp534
Rp535
(dp536
g19
F0.5
sg20
I57665
sg21
g22
((dp537
I00
I56235
sI01
I1430
stp538
Rp539
sg26
I2
sg27
F57666.0
sbs(g9
Vcontains(encourag)
p540
tp541
g0
(g15
g2
Ntp542
Rp543
(dp544
g19
F0.5
sg20
I57665
sg21
g22
((dp545
I00
I57149
sI01
I516
stp546
Rp547
sg26
I2
sg27
F57666.0
sbs(g9
Vcontains(hate)
p548
tp549
g0
(g15
g2
Ntp550
Rp551
(dp552
g19
F0.5
sg20
I57665
sg21
g22
((dp553
I00
I57662
sI01
I3
stp554
Rp555
sg26
I2
sg27
F57666.0
sbs(g10
Vcontains(pro)
p556
tp557
g0
(g15
g2
Ntp558
Rp559
(dp560
g19
F0.5
sg20
I94852
sg21
g22
((dp561
I00
I94705
sI01
I147
stp562
Rp563
sg26
I2
sg27
F94853.0
sbs(g8
Vcontains(solv)
p564
tp565
g0
(g15
g2
Ntp566
Rp567
(dp568
g19
F0.5
sg20
I17127
sg21
g22
((dp569
I00
I17089
sI01
I38
stp570
Rp571
sg26
I2
sg27
F17128.0
sbs(g10
Vcontains(fast)
p572
tp573
g0
(g15
g2
Ntp574
Rp575
(dp576
g19
F0.5
sg20
I94852
sg21
g22
((dp577
I00
I92882
sI01
I1970
stp578
Rp579
sg26
I2
sg27
F94853.0
sbs(g8
Vcontains(promot)
p580
tp581
g0
(g15
g2
Ntp582
Rp583
(dp584
g19
F0.5
sg20
I17127
sg21
g22
((dp585
I00
I16963
sI01
I164
stp586
Rp587
sg26
I2
sg27
F17128.0
sbs(g9
Vcontains(lose)
p588
tp589
g0
(g15
g2
Ntp590
Rp591
(dp592
g19
F0.5
sg20
I57665
sg21
g22
((dp593
I00
I57631
sI01
I34
stp594
Rp595
sg26
I2
sg27
F57666.0
sbs(g9
Vcontains(stress)
p596
tp597
g0
(g15
g2
Ntp598
Rp599
(dp600
g19
F0.5
sg20
I57665
sg21
g22
((dp601
I00
I57494
sI01
I171
stp602
Rp603
sg26
I2
sg27
F57666.0
sbs(g9
Vcontains(award)
p604
tp605
g0
(g15
g2
Ntp606
Rp607
(dp608
g19
F0.5
sg20
I57665
sg21
g22
((dp609
I00
I57631
sI01
I34
stp610
Rp611
sg26
I2
sg27
F57666.0
sbs(g10
Vcontains(attract)
p612
tp613
g0
(g15
g2
Ntp614
Rp615
(dp616
g19
F0.5
sg20
I94852
sg21
g22
((dp617
I00
I94802
sI01
I50
stp618
Rp619
sg26
I2
sg27
F94853.0
sbs(g9
Vcontains(understand)
p620
tp621
g0
(g15
g2
Ntp622
Rp623
(dp624
g19
F0.5
sg20
I57665
sg21
g22
((dp625
I00
I57419
sI01
I246
stp626
Rp627
sg26
I2
sg27
F57666.0
sbs(g9
Vcontains(minim)
p628
tp629
g0
(g15
g2
Ntp630
Rp631
(dp632
g19
F0.5
sg20
I57665
sg21
g22
((dp633
I00
I57645
sI01
I20
stp634
Rp635
sg26
I2
sg27
F57666.0
sbs(g8
Vcontains(friend)
p636
tp637
g0
(g15
g2
Ntp638
Rp639
(dp640
g19
F0.5
sg20
I17127
sg21
g22
((dp641
I00
I17112
sI01
I15
stp642
Rp643
sg26
I2
sg27
F17128.0
sbs(g8
Vcontains(surviv)
p644
tp645
g0
(g15
g2
Ntp646
Rp647
(dp648
g19
F0.5
sg20
I17127
sg21
g22
((dp649
I00
I17120
sI01
I7
stp650
Rp651
sg26
I2
sg27
F17128.0
sbs(g10
Vcontains(challeng)
p652
tp653
g0
(g15
g2
Ntp654
Rp655
(dp656
g19
F0.5
sg20
I94852
sg21
g22
((dp657
I00
I93085
sI01
I1767
stp658
Rp659
sg26
I2
sg27
F94853.0
sbs(g9
Vcontains(offer)
p660
tp661
g0
(g15
g2
Ntp662
Rp663
(dp664
g19
F0.5
sg20
I57665
sg21
g22
((dp665
I00
I57346
sI01
I319
stp666
Rp667
sg26
I2
sg27
F57666.0
sbs(g9
Vcontains(enjoy)
p668
tp669
g0
(g15
g2
Ntp670
Rp671
(dp672
g19
F0.5
sg20
I57665
sg21
g22
((dp673
I00
I57537
sI01
I128
stp674
Rp675
sg26
I2
sg27
F57666.0
sbs(g9
Vcontains(start)
p676
tp677
g0
(g15
g2
Ntp678
Rp679
(dp680
g19
F0.5
sg20
I57665
sg21
g22
((dp681
I00
I56955
sI01
I710
stp682
Rp683
sg26
I2
sg27
F57666.0
sbs(g10
Vcontains(told)
p684
tp685
g0
(g15
g2
Ntp686
Rp687
(dp688
g19
F0.5
sg20
I94852
sg21
g22
((dp689
I00
I94797
sI01
I55
stp690
Rp691
sg26
I2
sg27
F94853.0
sbs(g8
Vcontains(affect)
p692
tp693
g0
(g15
g2
Ntp694
Rp695
(dp696
g19
F0.5
sg20
I17127
sg21
g22
((dp697
I00
I17119
sI01
I8
stp698
Rp699
sg26
I2
sg27
F17128.0
sbs(g8
Vcontains(desper)
p700
tp701
g0
(g15
g2
Ntp702
Rp703
(dp704
g19
F0.5
sg20
I17127
sg21
g22
((dp705
I00
I17111
sI01
I16
stp706
Rp707
sg26
I2
sg27
F17128.0
sbs(g8
Vcontains(abl)
p708
tp709
g0
(g15
g2
Ntp710
Rp711
(dp712
g19
F0.5
sg20
I17127
sg21
g22
((dp713
I00
I17124
sI01
I3
stp714
Rp715
sg26
I2
sg27
F17128.0
sbs(g10
Vcontains(fresh)
p716
tp717
g0
(g15
g2
Ntp718
Rp719
(dp720
g19
F0.5
sg20
I94852
sg21
g22
((dp721
I00
I94716
sI01
I136
stp722
Rp723
sg26
I2
sg27
F94853.0
sbs(g9
Vcontains(wrong)
p724
tp725
g0
(g15
g2
Ntp726
Rp727
(dp728
g19
F0.5
sg20
I57665
sg21
g22
((dp729
I00
I57655
sI01
I10
stp730
Rp731
sg26
I2
sg27
F57666.0
sbs(g8
Vcontains(critic)
p732
tp733
g0
(g15
g2
Ntp734
Rp735
(dp736
g19
F0.5
sg20
I17127
sg21
g22
((dp737
I00
I17117
sI01
I10
stp738
Rp739
sg26
I2
sg27
F17128.0
sbs(g9
Vcontains(teamwork)
p740
tp741
g0
(g15
g2
Ntp742
Rp743
(dp744
g19
F0.5
sg20
I57665
sg21
g22
((dp745
I00
I57632
sI01
I33
stp746
Rp747
sg26
I2
sg27
F57666.0
sbs(g10
Vcontains(encourag)
p748
tp749
g0
(g15
g2
Ntp750
Rp751
(dp752
g19
F0.5
sg20
I94852
sg21
g22
((dp753
I00
I94550
sI01
I302
stp754
Rp755
sg26
I2
sg27
F94853.0
sbs(g8
Vcontains(end)
p756
tp757
g0
(g15
g2
Ntp758
Rp759
(dp760
g19
F0.5
sg20
I17127
sg21
g22
((dp761
I00
I16994
sI01
I133
stp762
Rp763
sg26
I2
sg27
F17128.0
sbs(g10
Vcontains(abil)
p764
tp765
g0
(g15
g2
Ntp766
Rp767
(dp768
g19
F0.5
sg20
I94852
sg21
g22
((dp769
I00
I94544
sI01
I308
stp770
Rp771
sg26
I2
sg27
F94853.0
sbs(g8
Vcontains(wish)
p772
tp773
g0
(g15
g2
Ntp774
Rp775
(dp776
g19
F0.5
sg20
I17127
sg21
g22
((dp777
I00
I17112
sI01
I15
stp778
Rp779
sg26
I2
sg27
F17128.0
sbs(g9
Vcontains(abl)
p780
tp781
g0
(g15
g2
Ntp782
Rp783
(dp784
g19
F0.5
sg20
I57665
sg21
g22
((dp785
I00
I57630
sI01
I35
stp786
Rp787
sg26
I2
sg27
F57666.0
sbs(g8
Vcontains(freedom)
p788
tp789
g0
(g15
g2
Ntp790
Rp791
(dp792
g19
F0.5
sg20
I17127
sg21
g22
((dp793
I00
I17125
sI01
I2
stp794
Rp795
sg26
I2
sg27
F17128.0
sbs(g10
Vcontains(hard)
p796
tp797
g0
(g15
g2
Ntp798
Rp799
(dp800
g19
F0.5
sg20
I94852
sg21
g22
((dp801
I00
I94296
sI01
I556
stp802
Rp803
sg26
I2
sg27
F94853.0
sbs(g9
Vcontains(unfriendli)
p804
tp805
g0
(g15
g2
Ntp806
Rp807
(dp808
g19
F0.5
sg20
I57665
sg21
g22
((dp809
I00
I57665
stp810
Rp811
sg26
I2
sg27
F57666.0
sbs(g10
Vcontains(least)
p812
tp813
g0
(g15
g2
Ntp814
Rp815
(dp816
g19
F0.5
sg20
I94852
sg21
g22
((dp817
I00
I94831
sI01
I21
stp818
Rp819
sg26
I2
sg27
F94853.0
sbs(g10
Vcontains(scari)
p820
tp821
g0
(g15
g2
Ntp822
Rp823
(dp824
g19
F0.5
sg20
I94852
sg21
g22
((dp825
I00
I94852
stp826
Rp827
sg26
I2
sg27
F94853.0
sbs(g10
Vcontains(award)
p828
tp829
g0
(g15
g2
Ntp830
Rp831
(dp832
g19
F0.5
sg20
I94852
sg21
g22
((dp833
I00
I94789
sI01
I63
stp834
Rp835
sg26
I2
sg27
F94853.0
sbs(g9
Vcontains(unpleas)
p836
tp837
g0
(g15
g2
Ntp838
Rp839
(dp840
g19
F0.5
sg20
I57665
sg21
g22
((dp841
I00
I57664
sI01
I1
stp842
Rp843
sg26
I2
sg27
F57666.0
sbs(g9
Vcontains(fake)
p844
tp845
g0
(g15
g2
Ntp846
Rp847
(dp848
g19
F0.5
sg20
I57665
sg21
g22
((dp849
I00
I57664
sI01
I1
stp850
Rp851
sg26
I2
sg27
F57666.0
sbs(g8
Vcontains(friendli)
p852
tp853
g0
(g15
g2
Ntp854
Rp855
(dp856
g19
F0.5
sg20
I17127
sg21
g22
((dp857
I00
I17110
sI01
I17
stp858
Rp859
sg26
I2
sg27
F17128.0
sbs(g8
Vcontains(fals)
p860
tp861
g0
(g15
g2
Ntp862
Rp863
(dp864
g19
F0.5
sg20
I17127
sg21
g22
((dp865
I00
I17103
sI01
I24
stp866
Rp867
sg26
I2
sg27
F17128.0
sbs(g9
Vcontains(surviv)
p868
tp869
g0
(g15
g2
Ntp870
Rp871
(dp872
g19
F0.5
sg20
I57665
sg21
g22
((dp873
I00
I57648
sI01
I17
stp874
Rp875
sg26
I2
sg27
F57666.0
sbs(g10
Vcontains(reward)
p876
tp877
g0
(g15
g2
Ntp878
Rp879
(dp880
g19
F0.5
sg20
I94852
sg21
g22
((dp881
I00
I94279
sI01
I573
stp882
Rp883
sg26
I2
sg27
F94853.0
sbs(g8
Vcontains(benefit)
p884
tp885
g0
(g15
g2
Ntp886
Rp887
(dp888
g19
F0.5
sg20
I17127
sg21
g22
((dp889
I00
I16974
sI01
I153
stp890
Rp891
sg26
I2
sg27
F17128.0
sbs(g9
Vcontains(unabl)
p892
tp893
g0
(g15
g2
Ntp894
Rp895
(dp896
g19
F0.5
sg20
I57665
sg21
g22
((dp897
I00
I57658
sI01
I7
stp898
Rp899
sg26
I2
sg27
F57666.0
sbs(g8
Vcontains(sadli)
p900
tp901
g0
(g15
g2
Ntp902
Rp903
(dp904
g19
F0.5
sg20
I17127
sg21
g22
((dp905
I00
I17112
sI01
I15
stp906
Rp907
sg26
I2
sg27
F17128.0
sbs(g9
Vcontains(unbeliev)
p908
tp909
g0
(g15
g2
Ntp910
Rp911
(dp912
g19
F0.5
sg20
I57665
sg21
g22
((dp913
I00
I57659
sI01
I6
stp914
Rp915
sg26
I2
sg27
F57666.0
sbs(g10
Vcontains(repetit)
p916
tp917
g0
(g15
g2
Ntp918
Rp919
(dp920
g19
F0.5
sg20
I94852
sg21
g22
((dp921
I00
I94836
sI01
I16
stp922
Rp923
sg26
I2
sg27
F94853.0
sbs(g10
Vcontains(lucki)
p924
tp925
g0
(g15
g2
Ntp926
Rp927
(dp928
g19
F0.5
sg20
I94852
sg21
g22
((dp929
I00
I94720
sI01
I132
stp930
Rp931
sg26
I2
sg27
F94853.0
sbs(g9
Vcontains(tediou)
p932
tp933
g0
(g15
g2
Ntp934
Rp935
(dp936
g19
F0.5
sg20
I57665
sg21
g22
((dp937
I00
I57661
sI01
I4
stp938
Rp939
sg26
I2
sg27
F57666.0
sbs(g10
Vcontains(transpar)
p940
tp941
g0
(g15
g2
Ntp942
Rp943
(dp944
g19
F0.5
sg20
I94852
sg21
g22
((dp945
I00
I94810
sI01
I42
stp946
Rp947
sg26
I2
sg27
F94853.0
sbs(g9
Vcontains(told)
p948
tp949
g0
(g15
g2
Ntp950
Rp951
(dp952
g19
F0.5
sg20
I57665
sg21
g22
((dp953
I00
I57576
sI01
I89
stp954
Rp955
sg26
I2
sg27
F57666.0
sbs(g9
Vcontains(unhappi)
p956
tp957
g0
(g15
g2
Ntp958
Rp959
(dp960
g19
F0.5
sg20
I57665
sg21
g22
((dp961
I00
I57661
sI01
I4
stp962
Rp963
sg26
I2
sg27
F57666.0
sbs(g9
Vcontains(competit)
p964
tp965
g0
(g15
g2
Ntp966
Rp967
(dp968
g19
F0.5
sg20
I57665
sg21
g22
((dp969
I00
I57427
sI01
I238
stp970
Rp971
sg26
I2
sg27
F57666.0
sbs(g9
Vcontains(excel)
p972
tp973
g0
(g15
g2
Ntp974
Rp975
(dp976
g19
F0.5
sg20
I57665
sg21
g22
((dp977
I00
I57551
sI01
I114
stp978
Rp979
sg26
I2
sg27
F57666.0
sbs(g10
Vcontains(teamwork)
p980
tp981
g0
(g15
g2
Ntp982
Rp983
(dp984
g19
F0.5
sg20
I94852
sg21
g22
((dp985
I00
I94755
sI01
I97
stp986
Rp987
sg26
I2
sg27
F94853.0
sbs(g9
Vcontains(cant)
p988
tp989
g0
(g15
g2
Ntp990
Rp991
(dp992
g19
F0.5
sg20
I57665
sg21
g22
((dp993
I00
I57635
sI01
I30
stp994
Rp995
sg26
I2
sg27
F57666.0
sbs(g8
Vcontains(fire)
p996
tp997
g0
(g15
g2
Ntp998
Rp999
(dp1000
g19
F0.5
sg20
I17127
sg21
g22
((dp1001
I00
I17091
sI01
I36
stp1002
Rp1003
sg26
I2
sg27
F17128.0
sbs(g10
Vcontains(seriou)
p1004
tp1005
g0
(g15
g2
Ntp1006
Rp1007
(dp1008
g19
F0.5
sg20
I94852
sg21
g22
((dp1009
I00
I94843
sI01
I9
stp1010
Rp1011
sg26
I2
sg27
F94853.0
sbs(g8
Vcontains(pressur)
p1012
tp1013
g0
(g15
g2
Ntp1014
Rp1015
(dp1016
g19
F0.5
sg20
I17127
sg21
g22
((dp1017
I00
I17037
sI01
I90
stp1018
Rp1019
sg26
I2
sg27
F17128.0
sbs(g9
Vcontains(difficult)
p1020
tp1021
g0
(g15
g2
Ntp1022
Rp1023
(dp1024
g19
F0.5
sg20
I57665
sg21
g22
((dp1025
I00
I57569
sI01
I96
stp1026
Rp1027
sg26
I2
sg27
F57666.0
sbs(g10
Vcontains(unpredict)
p1028
tp1029
g0
(g15
g2
Ntp1030
Rp1031
(dp1032
g19
F0.5
sg20
I94852
sg21
g22
((dp1033
I00
I94852
stp1034
Rp1035
sg26
I2
sg27
F94853.0
sbs(g10
Vcontains(unfriendli)
p1036
tp1037
g0
(g15
g2
Ntp1038
Rp1039
(dp1040
g19
F0.5
sg20
I94852
sg21
g22
((dp1041
I00
I94851
sI01
I1
stp1042
Rp1043
sg26
I2
sg27
F94853.0
sbs(g10
Vcontains(experienc)
p1044
tp1045
g0
(g15
g2
Ntp1046
Rp1047
(dp1048
g19
F0.5
sg20
I94852
sg21
g22
((dp1049
I00
I94508
sI01
I344
stp1050
Rp1051
sg26
I2
sg27
F94853.0
sbs(g8
Vcontains(ignor)
p1052
tp1053
g0
(g15
g2
Ntp1054
Rp1055
(dp1056
g19
F0.5
sg20
I17127
sg21
g22
((dp1057
I00
I17121
sI01
I6
stp1058
Rp1059
sg26
I2
sg27
F17128.0
sbs(g10
Vcontains(unabl)
p1060
tp1061
g0
(g15
g2
Ntp1062
Rp1063
(dp1064
g19
F0.5
sg20
I94852
sg21
g22
((dp1065
I00
I94852
stp1066
Rp1067
sg26
I2
sg27
F94853.0
sbs(g8
Vcontains(develop)
p1068
tp1069
g0
(g15
g2
Ntp1070
Rp1071
(dp1072
g19
F0.5
sg20
I17127
sg21
g22
((dp1073
I00
I17046
sI01
I81
stp1074
Rp1075
sg26
I2
sg27
F17128.0
sbs(g10
Vcontains(harsh)
p1076
tp1077
g0
(g15
g2
Ntp1078
Rp1079
(dp1080
g19
F0.5
sg20
I94852
sg21
g22
((dp1081
I00
I94851
sI01
I1
stp1082
Rp1083
sg26
I2
sg27
F94853.0
sbs(g8
Vcontains(well)
p1084
tp1085
g0
(g15
g2
Ntp1086
Rp1087
(dp1088
g19
F0.5
sg20
I17127
sg21
g22
((dp1089
I00
I16962
sI01
I165
stp1090
Rp1091
sg26
I2
sg27
F17128.0
sbs(g9
Vcontains(problem)
p1092
tp1093
g0
(g15
g2
Ntp1094
Rp1095
(dp1096
g19
F0.5
sg20
I57665
sg21
g22
((dp1097
I00
I57296
sI01
I369
stp1098
Rp1099
sg26
I2
sg27
F57666.0
sbs(g10
Vcontains(success)
p1100
tp1101
g0
(g15
g2
Ntp1102
Rp1103
(dp1104
g19
F0.5
sg20
I94852
sg21
g22
((dp1105
I00
I94266
sI01
I586
stp1106
Rp1107
sg26
I2
sg27
F94853.0
sbs(g10
Vcontains(balanc)
p1108
tp1109
g0
(g15
g2
Ntp1110
Rp1111
(dp1112
g19
F0.5
sg20
I94852
sg21
g22
((dp1113
I00
I92152
sI01
I2700
stp1114
Rp1115
sg26
I2
sg27
F94853.0
sbs(g8
Vcontains(never)
p1116
tp1117
g0
(g15
g2
Ntp1118
Rp1119
(dp1120
g19
F0.5
sg20
I17127
sg21
g22
((dp1121
I00
I16935
sI01
I192
stp1122
Rp1123
sg26
I2
sg27
F17128.0
sbs(g9
Vcontains(unnecessarili)
p1124
tp1125
g0
(g15
g2
Ntp1126
Rp1127
(dp1128
g19
F0.5
sg20
I57665
sg21
g22
((dp1129
I00
I57665
stp1130
Rp1131
sg26
I2
sg27
F57666.0
sbs(g10
Vcontains(redund)
p1132
tp1133
g0
(g15
g2
Ntp1134
Rp1135
(dp1136
g19
F0.5
sg20
I94852
sg21
g22
((dp1137
I00
I94847
sI01
I5
stp1138
Rp1139
sg26
I2
sg27
F94853.0
sbs(g9
Vcontains(knowledg)
p1140
tp1141
g0
(g15
g2
Ntp1142
Rp1143
(dp1144
g19
F0.5
sg20
I57665
sg21
g22
((dp1145
I00
I56995
sI01
I670
stp1146
Rp1147
sg26
I2
sg27
F57666.0
sbs(g10
Vcontains(start)
p1148
tp1149
g0
(g15
g2
Ntp1150
Rp1151
(dp1152
g19
F0.5
sg20
I94852
sg21
g22
((dp1153
I00
I93678
sI01
I1174
stp1154
Rp1155
sg26
I2
sg27
F94853.0
sbs(g9
Vcontains(peac)
p1156
tp1157
g0
(g15
g2
Ntp1158
Rp1159
(dp1160
g19
F0.5
sg20
I57665
sg21
g22
((dp1161
I00
I57661
sI01
I4
stp1162
Rp1163
sg26
I2
sg27
F57666.0
sbs(g8
Vcontains(ethic)
p1164
tp1165
g0
(g15
g2
Ntp1166
Rp1167
(dp1168
g19
F0.5
sg20
I17127
sg21
g22
((dp1169
I00
I17119
sI01
I8
stp1170
Rp1171
sg26
I2
sg27
F17128.0
sbs(g10
Vcontains(hike)
p1172
tp1173
g0
(g15
g2
Ntp1174
Rp1175
(dp1176
g19
F0.5
sg20
I94852
sg21
g22
((dp1177
I00
I94657
sI01
I195
stp1178
Rp1179
sg26
I2
sg27
F94853.0
sbs(g9
Vcontains(improv)
p1180
tp1181
g0
(g15
g2
Ntp1182
Rp1183
(dp1184
g19
F0.5
sg20
I57665
sg21
g22
((dp1185
I00
I57133
sI01
I532
stp1186
Rp1187
sg26
I2
sg27
F57666.0
sbs(g9
Vcontains(honestli)
p1188
tp1189
g0
(g15
g2
Ntp1190
Rp1191
(dp1192
g19
F0.5
sg20
I57665
sg21
g22
((dp1193
I00
I57663
sI01
I2
stp1194
Rp1195
sg26
I2
sg27
F57666.0
sbs(g8
Vcontains(hike)
p1196
tp1197
g0
(g15
g2
Ntp1198
Rp1199
(dp1200
g19
F0.5
sg20
I17127
sg21
g22
((dp1201
I00
I17090
sI01
I37
stp1202
Rp1203
sg26
I2
sg27
F17128.0
sbs(g9
Vcontains(seriou)
p1204
tp1205
g0
(g15
g2
Ntp1206
Rp1207
(dp1208
g19
F0.5
sg20
I57665
sg21
g22
((dp1209
I00
I57657
sI01
I8
stp1210
Rp1211
sg26
I2
sg27
F57666.0
sbs(g8
Vcontains(avail)
p1212
tp1213
g0
(g15
g2
Ntp1214
Rp1215
(dp1216
g19
F0.5
sg20
I17127
sg21
g22
((dp1217
I00
I17110
sI01
I17
stp1218
Rp1219
sg26
I2
sg27
F17128.0
sbs(g9
Vcontains(unrealist)
p1220
tp1221
g0
(g15
g2
Ntp1222
Rp1223
(dp1224
g19
F0.5
sg20
I57665
sg21
g22
((dp1225
I00
I57663
sI01
I2
stp1226
Rp1227
sg26
I2
sg27
F57666.0
sbs(g8
Vcontains(reward)
p1228
tp1229
g0
(g15
g2
Ntp1230
Rp1231
(dp1232
g19
F0.5
sg20
I17127
sg21
g22
((dp1233
I00
I17078
sI01
I49
stp1234
Rp1235
sg26
I2
sg27
F17128.0
sbs(g9
Vcontains(abil)
p1236
tp1237
g0
(g15
g2
Ntp1238
Rp1239
(dp1240
g19
F0.5
sg20
I57665
sg21
g22
((dp1241
I00
I57306
sI01
I359
stp1242
Rp1243
sg26
I2
sg27
F57666.0
sbs(g9
Vcontains(unpredict)
p1244
tp1245
g0
(g15
g2
Ntp1246
Rp1247
(dp1248
g19
F0.5
sg20
I57665
sg21
g22
((dp1249
I00
I57662
sI01
I3
stp1250
Rp1251
sg26
I2
sg27
F57666.0
sbs(g9
Vcontains(initi)
p1252
tp1253
g0
(g15
g2
Ntp1254
Rp1255
(dp1256
g19
F0.5
sg20
I57665
sg21
g22
((dp1257
I00
I57551
sI01
I114
stp1258
Rp1259
sg26
I2
sg27
F57666.0
sbs(g10
Vcontains(ambiti)
p1260
tp1261
g0
(g15
g2
Ntp1262
Rp1263
(dp1264
g19
F0.5
sg20
I94852
sg21
g22
((dp1265
I00
I94555
sI01
I297
stp1266
Rp1267
sg26
I2
sg27
F94853.0
sbs(g10
Vcontains(welcom)
p1268
tp1269
g0
(g15
g2
Ntp1270
Rp1271
(dp1272
g19
F0.5
sg20
I94852
sg21
g22
((dp1273
I00
I94733
sI01
I119
stp1274
Rp1275
sg26
I2
sg27
F94853.0
sbs(g9
Vcontains(mental)
p1276
tp1277
g0
(g15
g2
Ntp1278
Rp1279
(dp1280
g19
F0.5
sg20
I57665
sg21
g22
((dp1281
I00
I57638
sI01
I27
stp1282
Rp1283
sg26
I2
sg27
F57666.0
sbs(g8
Vcontains(commun)
p1284
tp1285
g0
(g15
g2
Ntp1286
Rp1287
(dp1288
g19
F0.5
sg20
I17127
sg21
g22
((dp1289
I00
I16952
sI01
I175
stp1290
Rp1291
sg26
I2
sg27
F17128.0
sbs(g9
Vcontains(least)
p1292
tp1293
g0
(g15
g2
Ntp1294
Rp1295
(dp1296
g19
F0.5
sg20
I57665
sg21
g22
((dp1297
I00
I57634
sI01
I31
stp1298
Rp1299
sg26
I2
sg27
F57666.0
sbs(g9
Vcontains(fail)
p1300
tp1301
g0
(g15
g2
Ntp1302
Rp1303
(dp1304
g19
F0.5
sg20
I57665
sg21
g22
((dp1305
I00
I57658
sI01
I7
stp1306
Rp1307
sg26
I2
sg27
F57666.0
sbs(g9
Vcontains(gain)
p1308
tp1309
g0
(g15
g2
Ntp1310
Rp1311
(dp1312
g19
F0.5
sg20
I57665
sg21
g22
((dp1313
I00
I56923
sI01
I742
stp1314
Rp1315
sg26
I2
sg27
F57666.0
sbs(g8
Vcontains(unnecessari)
p1316
tp1317
g0
(g15
g2
Ntp1318
Rp1319
(dp1320
g19
F0.5
sg20
I17127
sg21
g22
((dp1321
I00
I17111
sI01
I16
stp1322
Rp1323
sg26
I2
sg27
F17128.0
sbs(g10
Vcontains(surviv)
p1324
tp1325
g0
(g15
g2
Ntp1326
Rp1327
(dp1328
g19
F0.5
sg20
I94852
sg21
g22
((dp1329
I00
I94829
sI01
I23
stp1330
Rp1331
sg26
I2
sg27
F94853.0
sbs(g10
Vcontains(dead)
p1332
tp1333
g0
(g15
g2
Ntp1334
Rp1335
(dp1336
g19
F0.5
sg20
I94852
sg21
g22
((dp1337
I00
I94844
sI01
I8
stp1338
Rp1339
sg26
I2
sg27
F94853.0
sbs(g9
Vcontains(irrelev)
p1340
tp1341
g0
(g15
g2
Ntp1342
Rp1343
(dp1344
g19
F0.5
sg20
I57665
sg21
g22
((dp1345
I00
I57665
stp1346
Rp1347
sg26
I2
sg27
F57666.0
sbs(g8
Vcontains(illeg)
p1348
tp1349
g0
(g15
g2
Ntp1350
Rp1351
(dp1352
g19
F0.5
sg20
I17127
sg21
g22
((dp1353
I00
I17121
sI01
I6
stp1354
Rp1355
sg26
I2
sg27
F17128.0
sbs(g9
Vcontains(pleasur)
p1356
tp1357
g0
(g15
g2
Ntp1358
Rp1359
(dp1360
g19
F0.5
sg20
I57665
sg21
g22
((dp1361
I00
I57572
sI01
I93
stp1362
Rp1363
sg26
I2
sg27
F57666.0
sbs(g9
Vcontains(weird)
p1364
tp1365
g0
(g15
g2
Ntp1366
Rp1367
(dp1368
g19
F0.5
sg20
I57665
sg21
g22
((dp1369
I00
I57663
sI01
I2
stp1370
Rp1371
sg26
I2
sg27
F57666.0
sbs(g8
Vcontains(suck)
p1372
tp1373
g0
(g15
g2
Ntp1374
Rp1375
(dp1376
g19
F0.5
sg20
I17127
sg21
g22
((dp1377
I00
I17078
sI01
I49
stp1378
Rp1379
sg26
I2
sg27
F17128.0
sbs(g9
Vcontains(environ)
p1380
tp1381
g0
(g15
g2
Ntp1382
Rp1383
(dp1384
g19
F0.5
sg20
I57665
sg21
g22
((dp1385
I00
I56748
sI01
I917
stp1386
Rp1387
sg26
I2
sg27
F57666.0
sbs(g10
Vcontains(idea)
p1388
tp1389
g0
(g15
g2
Ntp1390
Rp1391
(dp1392
g19
F0.5
sg20
I94852
sg21
g22
((dp1393
I00
I94615
sI01
I237
stp1394
Rp1395
sg26
I2
sg27
F94853.0
sbs(g10
Vcontains(confus)
p1396
tp1397
g0
(g15
g2
Ntp1398
Rp1399
(dp1400
g19
F0.5
sg20
I94852
sg21
g22
((dp1401
I00
I94846
sI01
I6
stp1402
Rp1403
sg26
I2
sg27
F94853.0
sbs(g10
Vcontains(stress)
p1404
tp1405
g0
(g15
g2
Ntp1406
Rp1407
(dp1408
g19
F0.5
sg20
I94852
sg21
g22
((dp1409
I00
I94564
sI01
I288
stp1410
Rp1411
sg26
I2
sg27
F94853.0
sbs(g10
Vcontains(competit)
p1412
tp1413
g0
(g15
g2
Ntp1414
Rp1415
(dp1416
g19
F0.5
sg20
I94852
sg21
g22
((dp1417
I00
I94673
sI01
I179
stp1418
Rp1419
sg26
I2
sg27
F94853.0
sbs(g9
Vcontains(illeg)
p1420
tp1421
g0
(g15
g2
Ntp1422
Rp1423
(dp1424
g19
F0.5
sg20
I57665
sg21
g22
((dp1425
I00
I57665
stp1426
Rp1427
sg26
I2
sg27
F57666.0
sbs(g8
Vcontains(shi)
p1428
tp1429
g0
(g15
g2
Ntp1430
Rp1431
(dp1432
g19
F0.5
sg20
I17127
sg21
g22
((dp1433
I00
I17118
sI01
I9
stp1434
Rp1435
sg26
I2
sg27
F17128.0
sbs(g10
Vcontains(hire)
p1436
tp1437
g0
(g15
g2
Ntp1438
Rp1439
(dp1440
g19
F0.5
sg20
I94852
sg21
g22
((dp1441
I00
I94386
sI01
I466
stp1442
Rp1443
sg26
I2
sg27
F94853.0
sbs(g9
Vcontains(insult)
p1444
tp1445
g0
(g15
g2
Ntp1446
Rp1447
(dp1448
g19
F0.5
sg20
I57665
sg21
g22
((dp1449
I00
I57665
stp1450
Rp1451
sg26
I2
sg27
F57666.0
sbs(g9
Vcontains(pleasant)
p1452
tp1453
g0
(g15
g2
Ntp1454
Rp1455
(dp1456
g19
F0.5
sg20
I57665
sg21
g22
((dp1457
I00
I57665
stp1458
Rp1459
sg26
I2
sg27
F57666.0
sbs(g10
Vcontains(satisfact)
p1460
tp1461
g0
(g15
g2
Ntp1462
Rp1463
(dp1464
g19
F0.5
sg20
I94852
sg21
g22
((dp1465
I00
I94715
sI01
I137
stp1466
Rp1467
sg26
I2
sg27
F94853.0
sbs(g9
Vcontains(commun)
p1468
tp1469
g0
(g15
g2
Ntp1470
Rp1471
(dp1472
g19
F0.5
sg20
I57665
sg21
g22
((dp1473
I00
I56563
sI01
I1102
stp1474
Rp1475
sg26
I2
sg27
F57666.0
sbs(g10
Vcontains(respect)
p1476
tp1477
g0
(g15
g2
Ntp1478
Rp1479
(dp1480
g19
F0.5
sg20
I94852
sg21
g22
((dp1481
I00
I94614
sI01
I238
stp1482
Rp1483
sg26
I2
sg27
F94853.0
sbs(g9
Vcontains(welcom)
p1484
tp1485
g0
(g15
g2
Ntp1486
Rp1487
(dp1488
g19
F0.5
sg20
I57665
sg21
g22
((dp1489
I00
I57639
sI01
I26
stp1490
Rp1491
sg26
I2
sg27
F57666.0
sbs(g9
Vcontains(fault)
p1492
tp1493
g0
(g15
g2
Ntp1494
Rp1495
(dp1496
g19
F0.5
sg20
I57665
sg21
g22
((dp1497
I00
I57659
sI01
I6
stp1498
Rp1499
sg26
I2
sg27
F57666.0
sbs(g9
Vcontains(desper)
p1500
tp1501
g0
(g15
g2
Ntp1502
Rp1503
(dp1504
g19
F0.5
sg20
I57665
sg21
g22
((dp1505
I00
I57662
sI01
I3
stp1506
Rp1507
sg26
I2
sg27
F57666.0
sbs(g10
Vcontains(friendli)
p1508
tp1509
g0
(g15
g2
Ntp1510
Rp1511
(dp1512
g19
F0.5
sg20
I94852
sg21
g22
((dp1513
I00
I91971
sI01
I2881
stp1514
Rp1515
sg26
I2
sg27
F94853.0
sbs(g8
Vcontains(harder)
p1516
tp1517
g0
(g15
g2
Ntp1518
Rp1519
(dp1520
g19
F0.5
sg20
I17127
sg21
g22
((dp1521
I00
I17015
sI01
I112
stp1522
Rp1523
sg26
I2
sg27
F17128.0
sbs(g8
Vcontains(skill)
p1524
tp1525
g0
(g15
g2
Ntp1526
Rp1527
(dp1528
g19
F0.5
sg20
I17127
sg21
g22
((dp1529
I00
I17025
sI01
I102
stp1530
Rp1531
sg26
I2
sg27
F17128.0
sbs(g8
Vcontains(idea)
p1532
tp1533
g0
(g15
g2
Ntp1534
Rp1535
(dp1536
g19
F0.5
sg20
I17127
sg21
g22
((dp1537
I00
I17106
sI01
I21
stp1538
Rp1539
sg26
I2
sg27
F17128.0
sbs(g8
Vcontains(fast)
p1540
tp1541
g0
(g15
g2
Ntp1542
Rp1543
(dp1544
g19
F0.5
sg20
I17127
sg21
g22
((dp1545
I00
I17104
sI01
I23
stp1546
Rp1547
sg26
I2
sg27
F17128.0
sbs(g8
Vcontains(minim)
p1548
tp1549
g0
(g15
g2
Ntp1550
Rp1551
(dp1552
g19
F0.5
sg20
I17127
sg21
g22
((dp1553
I00
I17057
sI01
I70
stp1554
Rp1555
sg26
I2
sg27
F17128.0
sbs(g8
Vcontains(appreci)
p1556
tp1557
g0
(g15
g2
Ntp1558
Rp1559
(dp1560
g19
F0.5
sg20
I17127
sg21
g22
((dp1561
I00
I17077
sI01
I50
stp1562
Rp1563
sg26
I2
sg27
F17128.0
sbs(g10
Vcontains(best)
p1564
tp1565
g0
(g15
g2
Ntp1566
Rp1567
(dp1568
g19
F0.5
sg20
I94852
sg21
g22
((dp1569
I00
I90825
sI01
I4027
stp1570
Rp1571
sg26
I2
sg27
F94853.0
sbs(g9
Vcontains(wonder)
p1572
tp1573
g0
(g15
g2
Ntp1574
Rp1575
(dp1576
g19
F0.5
sg20
I57665
sg21
g22
((dp1577
I00
I57654
sI01
I11
stp1578
Rp1579
sg26
I2
sg27
F57666.0
sbs(g10
Vcontains(offer)
p1580
tp1581
g0
(g15
g2
Ntp1582
Rp1583
(dp1584
g19
F0.5
sg20
I94852
sg21
g22
((dp1585
I00
I94392
sI01
I460
stp1586
Rp1587
sg26
I2
sg27
F94853.0
sbs(g10
Vcontains(weird)
p1588
tp1589
g0
(g15
g2
Ntp1590
Rp1591
(dp1592
g19
F0.5
sg20
I94852
sg21
g22
((dp1593
I00
I94851
sI01
I1
stp1594
Rp1595
sg26
I2
sg27
F94853.0
sbs(g8
Vcontains(workload)
p1596
tp1597
g0
(g15
g2
Ntp1598
Rp1599
(dp1600
g19
F0.5
sg20
I17127
sg21
g22
((dp1601
I00
I17069
sI01
I58
stp1602
Rp1603
sg26
I2
sg27
F17128.0
sbs(g9
Vcontains(bunch)
p1604
tp1605
g0
(g15
g2
Ntp1606
Rp1607
(dp1608
g19
F0.5
sg20
I57665
sg21
g22
((dp1609
I00
I57652
sI01
I13
stp1610
Rp1611
sg26
I2
sg27
F57666.0
sbs(g10
Vcontains(non)
p1612
tp1613
g0
(g15
g2
Ntp1614
Rp1615
(dp1616
g19
F0.5
sg20
I94852
sg21
g22
((dp1617
I00
I94765
sI01
I87
stp1618
Rp1619
sg26
I2
sg27
F94853.0
sbs(g8
Vcontains(knowledg)
p1620
tp1621
g0
(g15
g2
Ntp1622
Rp1623
(dp1624
g19
F0.5
sg20
I17127
sg21
g22
((dp1625
I00
I17074
sI01
I53
stp1626
Rp1627
sg26
I2
sg27
F17128.0
sbs(g10
Vcontains(healthi)
p1628
tp1629
g0
(g15
g2
Ntp1630
Rp1631
(dp1632
g19
F0.5
sg20
I94852
sg21
g22
((dp1633
I00
I94585
sI01
I267
stp1634
Rp1635
sg26
I2
sg27
F94853.0
sbs(g9
Vcontains(redund)
p1636
tp1637
g0
(g15
g2
Ntp1638
Rp1639
(dp1640
g19
F0.5
sg20
I57665
sg21
g22
((dp1641
I00
I57658
sI01
I7
stp1642
Rp1643
sg26
I2
sg27
F57666.0
sbs(g10
Vcontains(knowledg)
p1644
tp1645
g0
(g15
g2
Ntp1646
Rp1647
(dp1648
g19
F0.5
sg20
I94852
sg21
g22
((dp1649
I00
I94248
sI01
I604
stp1650
Rp1651
sg26
I2
sg27
F94853.0
sbs(g9
Vcontains(terribl)
p1652
tp1653
g0
(g15
g2
Ntp1654
Rp1655
(dp1656
g19
F0.5
sg20
I57665
sg21
g22
((dp1657
I00
I57664
sI01
I1
stp1658
Rp1659
sg26
I2
sg27
F57666.0
sbs(g10
Vcontains(amaz)
p1660
tp1661
g0
(g15
g2
Ntp1662
Rp1663
(dp1664
g19
F0.5
sg20
I94852
sg21
g22
((dp1665
I00
I93794
sI01
I1058
stp1666
Rp1667
sg26
I2
sg27
F94853.0
sbs(g10
Vcontains(last)
p1668
tp1669
g0
(g15
g2
Ntp1670
Rp1671
(dp1672
g19
F0.5
sg20
I94852
sg21
g22
((dp1673
I00
I94703
sI01
I149
stp1674
Rp1675
sg26
I2
sg27
F94853.0
sbs(g9
Vcontains(harass)
p1676
tp1677
g0
(g15
g2
Ntp1678
Rp1679
(dp1680
g19
F0.5
sg20
I57665
sg21
g22
((dp1681
I00
I57650
sI01
I15
stp1682
Rp1683
sg26
I2
sg27
F57666.0
sbs(g9
Vcontains(angrili)
p1684
tp1685
g0
(g15
g2
Ntp1686
Rp1687
(dp1688
g19
F0.5
sg20
I57665
sg21
g22
((dp1689
I00
I57665
stp1690
Rp1691
sg26
I1
sg27
F57665.5
sbs(g8
Vcontains(frustrat)
p1692
tp1693
g0
(g15
g2
Ntp1694
Rp1695
(dp1696
g19
F0.5
sg20
I17127
sg21
g22
((dp1697
I00
I17016
sI01
I111
stp1698
Rp1699
sg26
I2
sg27
F17128.0
sbs(g10
Vcontains(top)
p1700
tp1701
g0
(g15
g2
Ntp1702
Rp1703
(dp1704
g19
F0.5
sg20
I94852
sg21
g22
((dp1705
I00
I94281
sI01
I571
stp1706
Rp1707
sg26
I2
sg27
F94853.0
sbs(g9
Vcontains(satisfact)
p1708
tp1709
g0
(g15
g2
Ntp1710
Rp1711
(dp1712
g19
F0.5
sg20
I57665
sg21
g22
((dp1713
I00
I57601
sI01
I64
stp1714
Rp1715
sg26
I2
sg27
F57666.0
sbs(g8
Vcontains(tight)
p1716
tp1717
g0
(g15
g2
Ntp1718
Rp1719
(dp1720
g19
F0.5
sg20
I17127
sg21
g22
((dp1721
I00
I17093
sI01
I34
stp1722
Rp1723
sg26
I2
sg27
F17128.0
sbs(g8
Vcontains(interest)
p1724
tp1725
g0
(g15
g2
Ntp1726
Rp1727
(dp1728
g19
F0.5
sg20
I17127
sg21
g22
((dp1729
I00
I17116
sI01
I11
stp1730
Rp1731
sg26
I2
sg27
F17128.0
sbs(g10
Vcontains(gave)
p1732
tp1733
g0
(g15
g2
Ntp1734
Rp1735
(dp1736
g19
F0.5
sg20
I94852
sg21
g22
((dp1737
I00
I94592
sI01
I260
stp1738
Rp1739
sg26
I2
sg27
F94853.0
sbs(g9
Vcontains(hard)
p1740
tp1741
g0
(g15
g2
Ntp1742
Rp1743
(dp1744
g19
F0.5
sg20
I57665
sg21
g22
((dp1745
I00
I57294
sI01
I371
stp1746
Rp1747
sg26
I2
sg27
F57666.0
sbs(g8
Vcontains(busi)
p1748
tp1749
g0
(g15
g2
Ntp1750
Rp1751
(dp1752
g19
F0.5
sg20
I17127
sg21
g22
((dp1753
I00
I16978
sI01
I149
stp1754
Rp1755
sg26
I2
sg27
F17128.0
sbs(g9
Vcontains(corpor)
p1756
tp1757
g0
(g15
g2
Ntp1758
Rp1759
(dp1760
g19
F0.5
sg20
I57665
sg21
g22
((dp1761
I00
I57370
sI01
I295
stp1762
Rp1763
sg26
I2
sg27
F57666.0
sbs(g10
Vcontains(fantast)
p1764
tp1765
g0
(g15
g2
Ntp1766
Rp1767
(dp1768
g19
F0.5
sg20
I94852
sg21
g22
((dp1769
I00
I94568
sI01
I284
stp1770
Rp1771
sg26
I2
sg27
F94853.0
sbs(g10
Vcontains(scope)
p1772
tp1773
g0
(g15
g2
Ntp1774
Rp1775
(dp1776
g19
F0.5
sg20
I94852
sg21
g22
((dp1777
I00
I94654
sI01
I198
stp1778
Rp1779
sg26
I2
sg27
F94853.0
sbs(g10
Vcontains(mental)
p1780
tp1781
g0
(g15
g2
Ntp1782
Rp1783
(dp1784
g19
F0.5
sg20
I94852
sg21
g22
((dp1785
I00
I94820
sI01
I32
stp1786
Rp1787
sg26
I2
sg27
F94853.0
sbs(g9
Vcontains(horribl)
p1788
tp1789
g0
(g15
g2
Ntp1790
Rp1791
(dp1792
g19
F0.5
sg20
I57665
sg21
g22
((dp1793
I00
I57661
sI01
I4
stp1794
Rp1795
sg26
I2
sg27
F57666.0
sbs(g9
Vcontains(pressur)
p1796
tp1797
g0
(g15
g2
Ntp1798
Rp1799
(dp1800
g19
F0.5
sg20
I57665
sg21
g22
((dp1801
I00
I57324
sI01
I341
stp1802
Rp1803
sg26
I2
sg27
F57666.0
sbs(g8
Vcontains(fault)
p1804
tp1805
g0
(g15
g2
Ntp1806
Rp1807
(dp1808
g19
F0.5
sg20
I17127
sg21
g22
((dp1809
I00
I17123
sI01
I4
stp1810
Rp1811
sg26
I2
sg27
F17128.0
sbs(g10
Vcontains(sincer)
p1812
tp1813
g0
(g15
g2
Ntp1814
Rp1815
(dp1816
g19
F0.5
sg20
I94852
sg21
g22
((dp1817
I00
I94830
sI01
I22
stp1818
Rp1819
sg26
I2
sg27
F94853.0
sbs(g10
Vcontains(small)
p1820
tp1821
g0
(g15
g2
Ntp1822
Rp1823
(dp1824
g19
F0.5
sg20
I94852
sg21
g22
((dp1825
I00
I94810
sI01
I42
stp1826
Rp1827
sg26
I2
sg27
F94853.0
sbs(g10
Vcontains(empti)
p1828
tp1829
g0
(g15
g2
Ntp1830
Rp1831
(dp1832
g19
F0.5
sg20
I94852
sg21
g22
((dp1833
I00
I94849
sI01
I3
stp1834
Rp1835
sg26
I2
sg27
F94853.0
sbs(g9
Vcontains(fairli)
p1836
tp1837
g0
(g15
g2
Ntp1838
Rp1839
(dp1840
g19
F0.5
sg20
I57665
sg21
g22
((dp1841
I00
I57654
sI01
I11
stp1842
Rp1843
sg26
I2
sg27
F57666.0
sbs(g9
Vcontains(transpar)
p1844
tp1845
g0
(g15
g2
Ntp1846
Rp1847
(dp1848
g19
F0.5
sg20
I57665
sg21
g22
((dp1849
I00
I57630
sI01
I35
stp1850
Rp1851
sg26
I2
sg27
F57666.0
sbs(g8
Vcontains(improv)
p1852
tp1853
g0
(g15
g2
Ntp1854
Rp1855
(dp1856
g19
F0.5
sg20
I17127
sg21
g22
((dp1857
I00
I17091
sI01
I36
stp1858
Rp1859
sg26
I2
sg27
F17128.0
sbs(g10
Vcontains(pleasur)
p1860
tp1861
g0
(g15
g2
Ntp1862
Rp1863
(dp1864
g19
F0.5
sg20
I94852
sg21
g22
((dp1865
I00
I94760
sI01
I92
stp1866
Rp1867
sg26
I2
sg27
F94853.0
sbs(g10
Vcontains(pleasant)
p1868
tp1869
g0
(g15
g2
Ntp1870
Rp1871
(dp1872
g19
F0.5
sg20
I94852
sg21
g22
((dp1873
I00
I94670
sI01
I182
stp1874
Rp1875
sg26
I2
sg27
F94853.0
sbs(g9
Vcontains(support)
p1876
tp1877
g0
(g15
g2
Ntp1878
Rp1879
(dp1880
g19
F0.5
sg20
I57665
sg21
g22
((dp1881
I00
I57155
sI01
I510
stp1882
Rp1883
sg26
I2
sg27
F57666.0
sbs(g8
Vcontains(free)
p1884
tp1885
g0
(g15
g2
Ntp1886
Rp1887
(dp1888
g19
F0.5
sg20
I17127
sg21
g22
((dp1889
I00
I17125
sI01
I2
stp1890
Rp1891
sg26
I2
sg27
F17128.0
sbs(g8
Vcontains(bunch)
p1892
tp1893
g0
(g15
g2
Ntp1894
Rp1895
(dp1896
g19
F0.5
sg20
I17127
sg21
g22
((dp1897
I00
I17120
sI01
I7
stp1898
Rp1899
sg26
I2
sg27
F17128.0
sbs(g9
Vcontains(confus)
p1900
tp1901
g0
(g15
g2
Ntp1902
Rp1903
(dp1904
g19
F0.5
sg20
I57665
sg21
g22
((dp1905
I00
I57648
sI01
I17
stp1906
Rp1907
sg26
I2
sg27
F57666.0
sbs(g10
Vcontains(avail)
p1908
tp1909
g0
(g15
g2
Ntp1910
Rp1911
(dp1912
g19
F0.5
sg20
I94852
sg21
g22
((dp1913
I00
I94218
sI01
I634
stp1914
Rp1915
sg26
I2
sg27
F94853.0
sbs(g9
Vcontains(complaint)
p1916
tp1917
g0
(g15
g2
Ntp1918
Rp1919
(dp1920
g19
F0.5
sg20
I57665
sg21
g22
((dp1921
I00
I57643
sI01
I22
stp1922
Rp1923
sg26
I2
sg27
F57666.0
sbs(g9
Vcontains(fair)
p1924
tp1925
g0
(g15
g2
Ntp1926
Rp1927
(dp1928
g19
F0.5
sg20
I57665
sg21
g22
((dp1929
I00
I57662
sI01
I3
stp1930
Rp1931
sg26
I2
sg27
F57666.0
sbs(g10
Vcontains(insult)
p1932
tp1933
g0
(g15
g2
Ntp1934
Rp1935
(dp1936
g19
F0.5
sg20
I94852
sg21
g22
((dp1937
I00
I94851
sI01
I1
stp1938
Rp1939
sg26
I2
sg27
F94853.0
sbs(g8
Vcontains(crisi)
p1940
tp1941
g0
(g15
g2
Ntp1942
Rp1943
(dp1944
g19
F0.5
sg20
I17127
sg21
g22
((dp1945
I00
I17125
sI01
I2
stp1946
Rp1947
sg26
I2
sg27
F17128.0
sbs(g8
Vcontains(fake)
p1948
tp1949
g0
(g15
g2
Ntp1950
Rp1951
(dp1952
g19
F0.5
sg20
I17127
sg21
g22
((dp1953
I00
I17111
sI01
I16
stp1954
Rp1955
sg26
I2
sg27
F17128.0
sbs(g10
Vcontains(fun)
p1956
tp1957
g0
(g15
g2
Ntp1958
Rp1959
(dp1960
g19
F0.5
sg20
I94852
sg21
g22
((dp1961
I00
I90803
sI01
I4049
stp1962
Rp1963
sg26
I2
sg27
F94853.0
sbs(g10
Vcontains(commun)
p1964
tp1965
g0
(g15
g2
Ntp1966
Rp1967
(dp1968
g19
F0.5
sg20
I94852
sg21
g22
((dp1969
I00
I93984
sI01
I868
stp1970
Rp1971
sg26
I2
sg27
F94853.0
sbs(g9
Vcontains(harsh)
p1972
tp1973
g0
(g15
g2
Ntp1974
Rp1975
(dp1976
g19
F0.5
sg20
I57665
sg21
g22
((dp1977
I00
I57661
sI01
I4
stp1978
Rp1979
sg26
I2
sg27
F57666.0
sbs(g10
Vcontains(leav)
p1980
tp1981
g0
(g15
g2
Ntp1982
Rp1983
(dp1984
g19
F0.5
sg20
I94852
sg21
g22
((dp1985
I00
I94533
sI01
I319
stp1986
Rp1987
sg26
I2
sg27
F94853.0
sbs(g9
Vcontains(danger)
p1988
tp1989
g0
(g15
g2
Ntp1990
Rp1991
(dp1992
g19
F0.5
sg20
I57665
sg21
g22
((dp1993
I00
I57664
sI01
I1
stp1994
Rp1995
sg26
I2
sg27
F57666.0
sbs(g10
Vcontains(struggl)
p1996
tp1997
g0
(g15
g2
Ntp1998
Rp1999
(dp2000
g19
F0.5
sg20
I94852
sg21
g22
((dp2001
I00
I94830
sI01
I22
stp2002
Rp2003
sg26
I2
sg27
F94853.0
sbs(g9
Vcontains(balanc)
p2004
tp2005
g0
(g15
g2
Ntp2006
Rp2007
(dp2008
g19
F0.5
sg20
I57665
sg21
g22
((dp2009
I00
I55946
sI01
I1719
stp2010
Rp2011
sg26
I2
sg27
F57666.0
sbs(g8
Vcontains(con)
p2012
tp2013
g0
(g15
g2
Ntp2014
Rp2015
(dp2016
g19
F0.5
sg20
I17127
sg21
g22
((dp2017
I00
I17102
sI01
I25
stp2018
Rp2019
sg26
I2
sg27
F17128.0
sbs(g8
Vcontains(break)
p2020
tp2021
g0
(g15
g2
Ntp2022
Rp2023
(dp2024
g19
F0.5
sg20
I17127
sg21
g22
((dp2025
I00
I17034
sI01
I93
stp2026
Rp2027
sg26
I2
sg27
F17128.0
sbs(g9
Vcontains(best)
p2028
tp2029
g0
(g15
g2
Ntp2030
Rp2031
(dp2032
g19
F0.5
sg20
I57665
sg21
g22
((dp2033
I00
I57651
sI01
I14
stp2034
Rp2035
sg26
I2
sg27
F57666.0
sbs(g8
Vcontains(lucki)
p2036
tp2037
g0
(g15
g2
Ntp2038
Rp2039
(dp2040
g19
F0.5
sg20
I17127
sg21
g22
((dp2041
I00
I17127
stp2042
Rp2043
sg26
I2
sg27
F17128.0
sbs(g10
Vcontains(unnecessarili)
p2044
tp2045
g0
(g15
g2
Ntp2046
Rp2047
(dp2048
g19
F0.5
sg20
I94852
sg21
g22
((dp2049
I00
I94851
sI01
I1
stp2050
Rp2051
sg26
I2
sg27
F94853.0
sbs(g8
Vcontains(highli)
p2052
tp2053
g0
(g15
g2
Ntp2054
Rp2055
(dp2056
g19
F0.5
sg20
I17127
sg21
g22
((dp2057
I00
I17117
sI01
I10
stp2058
Rp2059
sg26
I2
sg27
F17128.0
sbs(g8
Vcontains(incent)
p2060
tp2061
g0
(g15
g2
Ntp2062
Rp2063
(dp2064
g19
F0.5
sg20
I17127
sg21
g22
((dp2065
I00
I17110
sI01
I17
stp2066
Rp2067
sg26
I2
sg27
F17128.0
sbs(g9
Vcontains(miss)
p2068
tp2069
g0
(g15
g2
Ntp2070
Rp2071
(dp2072
g19
F0.5
sg20
I57665
sg21
g22
((dp2073
I00
I57601
sI01
I64
stp2074
Rp2075
sg26
I2
sg27
F57666.0
sbs(g10
Vcontains(better)
p2076
tp2077
g0
(g15
g2
Ntp2078
Rp2079
(dp2080
g19
F0.5
sg20
I94852
sg21
g22
((dp2081
I00
I93378
sI01
I1474
stp2082
Rp2083
sg26
I2
sg27
F94853.0
sbs(g9
Vcontains(non)
p2084
tp2085
g0
(g15
g2
Ntp2086
Rp2087
(dp2088
g19
F0.5
sg20
I57665
sg21
g22
((dp2089
I00
I57532
sI01
I133
stp2090
Rp2091
sg26
I2
sg27
F57666.0
sbs(g9
Vcontains(healthi)
p2092
tp2093
g0
(g15
g2
Ntp2094
Rp2095
(dp2096
g19
F0.5
sg20
I57665
sg21
g22
((dp2097
I00
I57662
sI01
I3
stp2098
Rp2099
sg26
I2
sg27
F57666.0
sbs(g9
Vcontains(busi)
p2100
tp2101
g0
(g15
g2
Ntp2102
Rp2103
(dp2104
g19
F0.5
sg20
I57665
sg21
g22
((dp2105
I00
I56924
sI01
I741
stp2106
Rp2107
sg26
I2
sg27
F57666.0
sbs(g9
Vcontains(free)
p2108
tp2109
g0
(g15
g2
Ntp2110
Rp2111
(dp2112
g19
F0.5
sg20
I57665
sg21
g22
((dp2113
I00
I57653
sI01
I12
stp2114
Rp2115
sg26
I2
sg27
F57666.0
sbs(g9
Vcontains(strong)
p2116
tp2117
g0
(g15
g2
Ntp2118
Rp2119
(dp2120
g19
F0.5
sg20
I57665
sg21
g22
((dp2121
I00
I57656
sI01
I9
stp2122
Rp2123
sg26
I2
sg27
F57666.0
sbs(g9
Vcontains(expens)
p2124
tp2125
g0
(g15
g2
Ntp2126
Rp2127
(dp2128
g19
F0.5
sg20
I57665
sg21
g22
((dp2129
I00
I57629
sI01
I36
stp2130
Rp2131
sg26
I2
sg27
F57666.0
sbs(g10
Vcontains(unbeliev)
p2132
tp2133
g0
(g15
g2
Ntp2134
Rp2135
(dp2136
g19
F0.5
sg20
I94852
sg21
g22
((dp2137
I00
I94845
sI01
I7
stp2138
Rp2139
sg26
I2
sg27
F94853.0
sbs(g9
Vcontains(littl)
p2140
tp2141
g0
(g15
g2
Ntp2142
Rp2143
(dp2144
g19
F0.5
sg20
I57665
sg21
g22
((dp2145
I00
I57490
sI01
I175
stp2146
Rp2147
sg26
I2
sg27
F57666.0
sbs(g9
Vcontains(oper)
p2148
tp2149
g0
(g15
g2
Ntp2150
Rp2151
(dp2152
g19
F0.5
sg20
I57665
sg21
g22
((dp2153
I00
I57332
sI01
I333
stp2154
Rp2155
sg26
I2
sg27
F57666.0
sbs(g8
Vcontains(insur)
p2156
tp2157
g0
(g15
g2
Ntp2158
Rp2159
(dp2160
g19
F0.5
sg20
I17127
sg21
g22
((dp2161
I00
I17123
sI01
I4
stp2162
Rp2163
sg26
I2
sg27
F17128.0
sbs(g9
Vcontains(top)
p2164
tp2165
g0
(g15
g2
Ntp2166
Rp2167
(dp2168
g19
F0.5
sg20
I57665
sg21
g22
((dp2169
I00
I57647
sI01
I18
stp2170
Rp2171
sg26
I2
sg27
F57666.0
sbs(g10
Vcontains(perk)
p2172
tp2173
g0
(g15
g2
Ntp2174
Rp2175
(dp2176
g19
F0.5
sg20
I94852
sg21
g22
((dp2177
I00
I94682
sI01
I170
stp2178
Rp2179
sg26
I2
sg27
F94853.0
sbs(g9
Vcontains(grow)
p2180
tp2181
g0
(g15
g2
Ntp2182
Rp2183
(dp2184
g19
F0.5
sg20
I57665
sg21
g22
((dp2185
I00
I56651
sI01
I1014
stp2186
Rp2187
sg26
I2
sg27
F57666.0
sbs(g9
Vcontains(solv)
p2188
tp2189
g0
(g15
g2
Ntp2190
Rp2191
(dp2192
g19
F0.5
sg20
I57665
sg21
g22
((dp2193
I00
I57549
sI01
I116
stp2194
Rp2195
sg26
I2
sg27
F57666.0
sbs(g10
Vcontains(inconsist)
p2196
tp2197
g0
(g15
g2
Ntp2198
Rp2199
(dp2200
g19
F0.5
sg20
I94852
sg21
g22
((dp2201
I00
I94837
sI01
I15
stp2202
Rp2203
sg26
I2
sg27
F94853.0
sbs(g8
Vcontains(wonder)
p2204
tp2205
g0
(g15
g2
Ntp2206
Rp2207
(dp2208
g19
F0.5
sg20
I17127
sg21
g22
((dp2209
I00
I17123
sI01
I4
stp2210
Rp2211
sg26
I2
sg27
F17128.0
sbs(g9
Vcontains(empti)
p2212
tp2213
g0
(g15
g2
Ntp2214
Rp2215
(dp2216
g19
F0.5
sg20
I57665
sg21
g22
((dp2217
I00
I57658
sI01
I7
stp2218
Rp2219
sg26
I2
sg27
F57666.0
sbs(g8
Vcontains(disturb)
p2220
tp2221
g0
(g15
g2
Ntp2222
Rp2223
(dp2224
g19
F0.5
sg20
I17127
sg21
g22
((dp2225
I00
I17122
sI01
I5
stp2226
Rp2227
sg26
I2
sg27
F17128.0
sbs(g10
Vcontains(proud)
p2228
tp2229
g0
(g15
g2
Ntp2230
Rp2231
(dp2232
g19
F0.5
sg20
I94852
sg21
g22
((dp2233
I00
I94722
sI01
I130
stp2234
Rp2235
sg26
I2
sg27
F94853.0
sbs(g8
Vcontains(uncomfort)
p2236
tp2237
g0
(g15
g2
Ntp2238
Rp2239
(dp2240
g19
F0.5
sg20
I17127
sg21
g22
((dp2241
I00
I17103
sI01
I24
stp2242
Rp2243
sg26
I2
sg27
F17128.0
sbs(g8
Vcontains(badli)
p2244
tp2245
g0
(g15
g2
Ntp2246
Rp2247
(dp2248
g19
F0.5
sg20
I17127
sg21
g22
((dp2249
I00
I17109
sI01
I18
stp2250
Rp2251
sg26
I2
sg27
F17128.0
sbs(g10
Vcontains(miss)
p2252
tp2253
g0
(g15
g2
Ntp2254
Rp2255
(dp2256
g19
F0.5
sg20
I94852
sg21
g22
((dp2257
I00
I94775
sI01
I77
stp2258
Rp2259
sg26
I2
sg27
F94853.0
sbs(g9
Vcontains(idea)
p2260
tp2261
g0
(g15
g2
Ntp2262
Rp2263
(dp2264
g19
F0.5
sg20
I57665
sg21
g22
((dp2265
I00
I57575
sI01
I90
stp2266
Rp2267
sg26
I2
sg27
F57666.0
sbs(g10
Vcontains(sure)
p2268
tp2269
g0
(g15
g2
Ntp2270
Rp2271
(dp2272
g19
F0.5
sg20
I94852
sg21
g22
((dp2273
I00
I93741
sI01
I1111
stp2274
Rp2275
sg26
I2
sg27
F94853.0
sbs(g9
Vcontains(fresh)
p2276
tp2277
g0
(g15
g2
Ntp2278
Rp2279
(dp2280
g19
F0.5
sg20
I57665
sg21
g22
((dp2281
I00
I57659
sI01
I6
stp2282
Rp2283
sg26
I2
sg27
F57666.0
sbs(g8
Vcontains(sure)
p2284
tp2285
g0
(g15
g2
Ntp2286
Rp2287
(dp2288
g19
F0.5
sg20
I17127
sg21
g22
((dp2289
I00
I17123
sI01
I4
stp2290
Rp2291
sg26
I2
sg27
F17128.0
sbs(g9
Vcontains(simpl)
p2292
tp2293
g0
(g15
g2
Ntp2294
Rp2295
(dp2296
g19
F0.5
sg20
I57665
sg21
g22
((dp2297
I00
I57617
sI01
I48
stp2298
Rp2299
sg26
I2
sg27
F57666.0
sbs(g8
Vcontains(unhappi)
p2300
tp2301
g0
(g15
g2
Ntp2302
Rp2303
(dp2304
g19
F0.5
sg20
I17127
sg21
g22
((dp2305
I00
I17088
sI01
I39
stp2306
Rp2307
sg26
I2
sg27
F17128.0
sbs(g8
Vcontains(top)
p2308
tp2309
g0
(g15
g2
Ntp2310
Rp2311
(dp2312
g19
F0.5
sg20
I17127
sg21
g22
((dp2313
I00
I17116
sI01
I11
stp2314
Rp2315
sg26
I2
sg27
F17128.0
sbs(g8
Vcontains(enjoy)
p2316
tp2317
g0
(g15
g2
Ntp2318
Rp2319
(dp2320
g19
F0.5
sg20
I17127
sg21
g22
((dp2321
I00
I17106
sI01
I21
stp2322
Rp2323
sg26
I2
sg27
F17128.0
sbs(g9
Vcontains(love)
p2324
tp2325
g0
(g15
g2
Ntp2326
Rp2327
(dp2328
g19
F0.5
sg20
I57665
sg21
g22
((dp2329
I00
I57651
sI01
I14
stp2330
Rp2331
sg26
I2
sg27
F57666.0
sbs(g10
Vcontains(abl)
p2332
tp2333
g0
(g15
g2
Ntp2334
Rp2335
(dp2336
g19
F0.5
sg20
I94852
sg21
g22
((dp2337
I00
I93266
sI01
I1586
stp2338
Rp2339
sg26
I2
sg27
F94853.0
sbs(g9
Vcontains(product)
p2340
tp2341
g0
(g15
g2
Ntp2342
Rp2343
(dp2344
g19
F0.5
sg20
I57665
sg21
g22
((dp2345
I00
I57030
sI01
I635
stp2346
Rp2347
sg26
I2
sg27
F57666.0
sbs(g9
Vcontains(less)
p2348
tp2349
g0
(g15
g2
Ntp2350
Rp2351
(dp2352
g19
F0.5
sg20
I57665
sg21
g22
((dp2353
I00
I57562
sI01
I103
stp2354
Rp2355
sg26
I2
sg27
F57666.0
sbs(g9
Vcontains(friendli)
p2356
tp2357
g0
(g15
g2
Ntp2358
Rp2359
(dp2360
g19
F0.5
sg20
I57665
sg21
g22
((dp2361
I00
I57632
sI01
I33
stp2362
Rp2363
sg26
I2
sg27
F57666.0
sbs(g8
Vcontains(compens)
p2364
tp2365
g0
(g15
g2
Ntp2366
Rp2367
(dp2368
g19
F0.5
sg20
I17127
sg21
g22
((dp2369
I00
I17029
sI01
I98
stp2370
Rp2371
sg26
I2
sg27
F17128.0
sbs(g9
Vcontains(experienc)
p2372
tp2373
g0
(g15
g2
Ntp2374
Rp2375
(dp2376
g19
F0.5
sg20
I57665
sg21
g22
((dp2377
I00
I57659
sI01
I6
stp2378
Rp2379
sg26
I2
sg27
F57666.0
sbs(g8
Vcontains(non)
p2380
tp2381
g0
(g15
g2
Ntp2382
Rp2383
(dp2384
g19
F0.5
sg20
I17127
sg21
g22
((dp2385
I00
I17092
sI01
I35
stp2386
Rp2387
sg26
I2
sg27
F17128.0
sbs(g9
Vcontains(suck)
p2388
tp2389
g0
(g15
g2
Ntp2390
Rp2391
(dp2392
g19
F0.5
sg20
I57665
sg21
g22
((dp2393
I00
I57637
sI01
I28
stp2394
Rp2395
sg26
I2
sg27
F57666.0
sbs(g8
Vcontains(attract)
p2396
tp2397
g0
(g15
g2
Ntp2398
Rp2399
(dp2400
g19
F0.5
sg20
I17127
sg21
g22
((dp2401
I00
I17123
sI01
I4
stp2402
Rp2403
sg26
I2
sg27
F17128.0
sbs(g8
Vcontains(mental)
p2404
tp2405
g0
(g15
g2
Ntp2406
Rp2407
(dp2408
g19
F0.5
sg20
I17127
sg21
g22
((dp2409
I00
I17085
sI01
I42
stp2410
Rp2411
sg26
I2
sg27
F17128.0
sbs(g9
Vcontains(unfair)
p2412
tp2413
g0
(g15
g2
Ntp2414
Rp2415
(dp2416
g19
F0.5
sg20
I57665
sg21
g22
((dp2417
I00
I57656
sI01
I9
stp2418
Rp2419
sg26
I2
sg27
F57666.0
sbs(g10
Vcontains(discount)
p2420
tp2421
g0
(g15
g2
Ntp2422
Rp2423
(dp2424
g19
F0.5
sg20
I94852
sg21
g22
((dp2425
I00
I94774
sI01
I78
stp2426
Rp2427
sg26
I2
sg27
F94853.0
sbs(g10
Vcontains(skill)
p2428
tp2429
g0
(g15
g2
Ntp2430
Rp2431
(dp2432
g19
F0.5
sg20
I94852
sg21
g22
((dp2433
I00
I93034
sI01
I1818
stp2434
Rp2435
sg26
I2
sg27
F94853.0
sbs(g10
Vcontains(irrat)
p2436
tp2437
g0
(g15
g2
Ntp2438
Rp2439
(dp2440
g19
F0.5
sg20
I94852
sg21
g22
((dp2441
I00
I94852
stp2442
Rp2443
sg26
I1
sg27
F94852.5
sbs(g9
Vcontains(better)
p2444
tp2445
g0
(g15
g2
Ntp2446
Rp2447
(dp2448
g19
F0.5
sg20
I57665
sg21
g22
((dp2449
I00
I57640
sI01
I25
stp2450
Rp2451
sg26
I2
sg27
F57666.0
sbs(g10
Vcontains(solv)
p2452
tp2453
g0
(g15
g2
Ntp2454
Rp2455
(dp2456
g19
F0.5
sg20
I94852
sg21
g22
((dp2457
I00
I94699
sI01
I153
stp2458
Rp2459
sg26
I2
sg27
F94853.0
sbs(g8
Vcontains(grow)
p2460
tp2461
g0
(g15
g2
Ntp2462
Rp2463
(dp2464
g19
F0.5
sg20
I17127
sg21
g22
((dp2465
I00
I17061
sI01
I66
stp2466
Rp2467
sg26
I2
sg27
F17128.0
sbs(g8
Vcontains(good)
p2468
tp2469
g0
(g15
g2
Ntp2470
Rp2471
(dp2472
g19
F0.5
sg20
I17127
sg21
g22
((dp2473
I00
I17105
sI01
I22
stp2474
Rp2475
sg26
I2
sg27
F17128.0
sbs(g8
Vcontains(will)
p2476
tp2477
g0
(g15
g2
Ntp2478
Rp2479
(dp2480
g19
F0.5
sg20
I17127
sg21
g22
((dp2481
I00
I17123
sI01
I4
stp2482
Rp2483
sg26
I2
sg27
F17128.0
sbs(g8
Vcontains(brutal)
p2484
tp2485
g0
(g15
g2
Ntp2486
Rp2487
(dp2488
g19
F0.5
sg20
I17127
sg21
g22
((dp2489
I00
I17116
sI01
I11
stp2490
Rp2491
sg26
I2
sg27
F17128.0
sbs(g9
Vcontains(small)
p2492
tp2493
g0
(g15
g2
Ntp2494
Rp2495
(dp2496
g19
F0.5
sg20
I57665
sg21
g22
((dp2497
I00
I57614
sI01
I51
stp2498
Rp2499
sg26
I2
sg27
F57666.0
sbs(g10
Vcontains(peac)
p2500
tp2501
g0
(g15
g2
Ntp2502
Rp2503
(dp2504
g19
F0.5
sg20
I94852
sg21
g22
((dp2505
I00
I94822
sI01
I30
stp2506
Rp2507
sg26
I2
sg27
F94853.0
sbs(g8
Vcontains(unpleas)
p2508
tp2509
g0
(g15
g2
Ntp2510
Rp2511
(dp2512
g19
F0.5
sg20
I17127
sg21
g22
((dp2513
I00
I17114
sI01
I13
stp2514
Rp2515
sg26
I2
sg27
F17128.0
sbs(g10
Vcontains(frustrat)
p2516
tp2517
g0
(g15
g2
Ntp2518
Rp2519
(dp2520
g19
F0.5
sg20
I94852
sg21
g22
((dp2521
I00
I94843
sI01
I9
stp2522
Rp2523
sg26
I2
sg27
F94853.0
sbs(g10
Vcontains(excel)
p2524
tp2525
g0
(g15
g2
Ntp2526
Rp2527
(dp2528
g19
F0.5
sg20
I94852
sg21
g22
((dp2529
I00
I93113
sI01
I1739
stp2530
Rp2531
sg26
I2
sg27
F94853.0
sbs(g9
Vcontains(respect)
p2532
tp2533
g0
(g15
g2
Ntp2534
Rp2535
(dp2536
g19
F0.5
sg20
I57665
sg21
g22
((dp2537
I00
I57523
sI01
I142
stp2538
Rp2539
sg26
I2
sg27
F57666.0
sbs(g8
Vcontains(scope)
p2540
tp2541
g0
(g15
g2
Ntp2542
Rp2543
(dp2544
g19
F0.5
sg20
I17127
sg21
g22
((dp2545
I00
I17109
sI01
I18
stp2546
Rp2547
sg26
I2
sg27
F17128.0
sbs(g8
Vcontains(succeed)
p2548
tp2549
g0
(g15
g2
Ntp2550
Rp2551
(dp2552
g19
F0.5
sg20
I17127
sg21
g22
((dp2553
I00
I17120
sI01
I7
stp2554
Rp2555
sg26
I2
sg27
F17128.0
sbs(g8
Vcontains(slave)
p2556
tp2557
g0
(g15
g2
Ntp2558
Rp2559
(dp2560
g19
F0.5
sg20
I17127
sg21
g22
((dp2561
I00
I17116
sI01
I11
stp2562
Rp2563
sg26
I2
sg27
F17128.0
sbs(g9
Vcontains(wise)
p2564
tp2565
g0
(g15
g2
Ntp2566
Rp2567
(dp2568
g19
F0.5
sg20
I57665
sg21
g22
((dp2569
I00
I57658
sI01
I7
stp2570
Rp2571
sg26
I2
sg27
F57666.0
sbs(g8
Vcontains(complaint)
p2572
tp2573
g0
(g15
g2
Ntp2574
Rp2575
(dp2576
g19
F0.5
sg20
I17127
sg21
g22
((dp2577
I00
I17078
sI01
I49
stp2578
Rp2579
sg26
I2
sg27
F17128.0
sbs(g10
Vcontains(cant)
p2580
tp2581
g0
(g15
g2
Ntp2582
Rp2583
(dp2584
g19
F0.5
sg20
I94852
sg21
g22
((dp2585
I00
I94803
sI01
I49
stp2586
Rp2587
sg26
I2
sg27
F94853.0
sbs(g9
Vcontains(opportun)
p2588
tp2589
g0
(g15
g2
Ntp2590
Rp2591
(dp2592
g19
F0.5
sg20
I57665
sg21
g22
((dp2593
I00
I55240
sI01
I2425
stp2594
Rp2595
sg26
I2
sg27
F57666.0
sbs(g9
Vcontains(smile)
p2596
tp2597
g0
(g15
g2
Ntp2598
Rp2599
(dp2600
g19
F0.5
sg20
I57665
sg21
g22
((dp2601
I00
I57655
sI01
I10
stp2602
Rp2603
sg26
I2
sg27
F57666.0
sbs(g8
Vcontains(satisfact)
p2604
tp2605
g0
(g15
g2
Ntp2606
Rp2607
(dp2608
g19
F0.5
sg20
I17127
sg21
g22
((dp2609
I00
I17115
sI01
I12
stp2610
Rp2611
sg26
I2
sg27
F17128.0
sbs(g8
Vcontains(least)
p2612
tp2613
g0
(g15
g2
Ntp2614
Rp2615
(dp2616
g19
F0.5
sg20
I17127
sg21
g22
((dp2617
I00
I16943
sI01
I184
stp2618
Rp2619
sg26
I2
sg27
F17128.0
sbs(g10
Vcontains(problem)
p2620
tp2621
g0
(g15
g2
Ntp2622
Rp2623
(dp2624
g19
F0.5
sg20
I94852
sg21
g22
((dp2625
I00
I94445
sI01
I407
stp2626
Rp2627
sg26
I2
sg27
F94853.0
sbs(g9
Vcontains(end)
p2628
tp2629
g0
(g15
g2
Ntp2630
Rp2631
(dp2632
g19
F0.5
sg20
I57665
sg21
g22
((dp2633
I00
I57302
sI01
I363
stp2634
Rp2635
sg26
I2
sg27
F57666.0
sbs(g9
Vcontains(impati)
p2636
tp2637
g0
(g15
g2
Ntp2638
Rp2639
(dp2640
g19
F0.5
sg20
I57665
sg21
g22
((dp2641
I00
I57665
stp2642
Rp2643
sg26
I2
sg27
F57666.0
sbs(g9
Vcontains(includ)
p2644
tp2645
g0
(g15
g2
Ntp2646
Rp2647
(dp2648
g19
F0.5
sg20
I57665
sg21
g22
((dp2649
I00
I57339
sI01
I326
stp2650
Rp2651
sg26
I2
sg27
F57666.0
sbs(g10
Vcontains(hardest)
p2652
tp2653
g0
(g15
g2
Ntp2654
Rp2655
(dp2656
g19
F0.5
sg20
I94852
sg21
g22
((dp2657
I00
I93482
sI01
I1370
stp2658
Rp2659
sg26
I2
sg27
F94853.0
sbs(g8
Vcontains(unpredict)
p2660
tp2661
g0
(g15
g2
Ntp2662
Rp2663
(dp2664
g19
F0.5
sg20
I17127
sg21
g22
((dp2665
I00
I17115
sI01
I12
stp2666
Rp2667
sg26
I2
sg27
F17128.0
sbs(g9
Vcontains(safeti)
p2668
tp2669
g0
(g15
g2
Ntp2670
Rp2671
(dp2672
g19
F0.5
sg20
I57665
sg21
g22
((dp2673
I00
I57599
sI01
I66
stp2674
Rp2675
sg26
I2
sg27
F57666.0
sbs(g9
Vcontains(forc)
p2676
tp2677
g0
(g15
g2
Ntp2678
Rp2679
(dp2680
g19
F0.5
sg20
I57665
sg21
g22
((dp2681
I00
I57598
sI01
I67
stp2682
Rp2683
sg26
I2
sg27
F57666.0
sbs(g8
Vcontains(encourag)
p2684
tp2685
g0
(g15
g2
Ntp2686
Rp2687
(dp2688
g19
F0.5
sg20
I17127
sg21
g22
((dp2689
I00
I17087
sI01
I40
stp2690
Rp2691
sg26
I2
sg27
F17128.0
sbs(g9
Vcontains(lack)
p2692
tp2693
g0
(g15
g2
Ntp2694
Rp2695
(dp2696
g19
F0.5
sg20
I57665
sg21
g22
((dp2697
I00
I57338
sI01
I327
stp2698
Rp2699
sg26
I2
sg27
F57666.0
sbs(g9
Vcontains(irrat)
p2700
tp2701
g0
(g15
g2
Ntp2702
Rp2703
(dp2704
g19
F0.5
sg20
I57665
sg21
g22
((dp2705
I00
I57665
stp2706
Rp2707
sg26
I1
sg27
F57665.5
sbs(g8
Vcontains(leav)
p2708
tp2709
g0
(g15
g2
Ntp2710
Rp2711
(dp2712
g19
F0.5
sg20
I17127
sg21
g22
((dp2713
I00
I16989
sI01
I138
stp2714
Rp2715
sg26
I2
sg27
F17128.0
sbs(g9
Vcontains(hike)
p2716
tp2717
g0
(g15
g2
Ntp2718
Rp2719
(dp2720
g19
F0.5
sg20
I57665
sg21
g22
((dp2721
I00
I57596
sI01
I69
stp2722
Rp2723
sg26
I2
sg27
F57666.0
sbs(g8
Vcontains(offer)
p2724
tp2725
g0
(g15
g2
Ntp2726
Rp2727
(dp2728
g19
F0.5
sg20
I17127
sg21
g22
((dp2729
I00
I17079
sI01
I48
stp2730
Rp2731
sg26
I2
sg27
F17128.0
sbs(g8
Vcontains(greatli)
p2732
tp2733
g0
(g15
g2
Ntp2734
Rp2735
(dp2736
g19
F0.5
sg20
I17127
sg21
g22
((dp2737
I00
I17126
sI01
I1
stp2738
Rp2739
sg26
I2
sg27
F17128.0
sbs(g8
Vcontains(short)
p2740
tp2741
g0
(g15
g2
Ntp2742
Rp2743
(dp2744
g19
F0.5
sg20
I17127
sg21
g22
((dp2745
I00
I17104
sI01
I23
stp2746
Rp2747
sg26
I2
sg27
F17128.0
sbs(g8
Vcontains(weak)
p2748
tp2749
g0
(g15
g2
Ntp2750
Rp2751
(dp2752
g19
F0.5
sg20
I17127
sg21
g22
((dp2753
I00
I17104
sI01
I23
stp2754
Rp2755
sg26
I2
sg27
F17128.0
sbs(g8
Vcontains(peac)
p2756
tp2757
g0
(g15
g2
Ntp2758
Rp2759
(dp2760
g19
F0.5
sg20
I17127
sg21
g22
((dp2761
I00
I17124
sI01
I3
stp2762
Rp2763
sg26
I2
sg27
F17128.0
sbs(g10
Vcontains(complaint)
p2764
tp2765
g0
(g15
g2
Ntp2766
Rp2767
(dp2768
g19
F0.5
sg20
I94852
sg21
g22
((dp2769
I00
I94819
sI01
I33
stp2770
Rp2771
sg26
I2
sg27
F94853.0
sbs(g8
Vcontains(corpor)
p2772
tp2773
g0
(g15
g2
Ntp2774
Rp2775
(dp2776
g19
F0.5
sg20
I17127
sg21
g22
((dp2777
I00
I17085
sI01
I42
stp2778
Rp2779
sg26
I2
sg27
F17128.0
sbs(g10
Vcontains(cannot)
p2780
tp2781
g0
(g15
g2
Ntp2782
Rp2783
(dp2784
g19
F0.5
sg20
I94852
sg21
g22
((dp2785
I00
I94807
sI01
I45
stp2786
Rp2787
sg26
I2
sg27
F94853.0
sbs(g10
Vcontains(like)
p2788
tp2789
g0
(g15
g2
Ntp2790
Rp2791
(dp2792
g19
F0.5
sg20
I94852
sg21
g22
((dp2793
I00
I93065
sI01
I1787
stp2794
Rp2795
sg26
I2
sg27
F94853.0
sbs(g9
Vcontains(easi)
p2796
tp2797
g0
(g15
g2
Ntp2798
Rp2799
(dp2800
g19
F0.5
sg20
I57665
sg21
g22
((dp2801
I00
I57638
sI01
I27
stp2802
Rp2803
sg26
I2
sg27
F57666.0
sbs(g10
Vcontains(luck)
p2804
tp2805
g0
(g15
g2
Ntp2806
Rp2807
(dp2808
g19
F0.5
sg20
I94852
sg21
g22
((dp2809
I00
I94805
sI01
I47
stp2810
Rp2811
sg26
I2
sg27
F94853.0
sbs(g9
Vcontains(allow)
p2812
tp2813
g0
(g15
g2
Ntp2814
Rp2815
(dp2816
g19
F0.5
sg20
I57665
sg21
g22
((dp2817
I00
I57323
sI01
I342
stp2818
Rp2819
sg26
I2
sg27
F57666.0
sbs(g10
Vcontains(initi)
p2820
tp2821
g0
(g15
g2
Ntp2822
Rp2823
(dp2824
g19
F0.5
sg20
I94852
sg21
g22
((dp2825
I00
I94736
sI01
I116
stp2826
Rp2827
sg26
I2
sg27
F94853.0
sbs(g10
Vcontains(unorgan)
p2828
tp2829
g0
(g15
g2
Ntp2830
Rp2831
(dp2832
g19
F0.5
sg20
I94852
sg21
g22
((dp2833
I00
I94833
sI01
I19
stp2834
Rp2835
sg26
I2
sg27
F94853.0
sbs(g8
Vcontains(take)
p2836
tp2837
g0
(g15
g2
Ntp2838
Rp2839
(dp2840
g19
F0.5
sg20
I17127
sg21
g22
((dp2841
I00
I16950
sI01
I177
stp2842
Rp2843
sg26
I2
sg27
F17128.0
sbs(g10
Vcontains(less)
p2844
tp2845
g0
(g15
g2
Ntp2846
Rp2847
(dp2848
g19
F0.5
sg20
I94852
sg21
g22
((dp2849
I00
I94626
sI01
I226
stp2850
Rp2851
sg26
I2
sg27
F94853.0
sbs(g10
Vcontains(angri)
p2852
tp2853
g0
(g15
g2
Ntp2854
Rp2855
(dp2856
g19
F0.5
sg20
I94852
sg21
g22
((dp2857
I00
I94847
sI01
I5
stp2858
Rp2859
sg26
I2
sg27
F94853.0
sbs(g9
Vcontains(slave)
p2860
tp2861
g0
(g15
g2
Ntp2862
Rp2863
(dp2864
g19
F0.5
sg20
I57665
sg21
g22
((dp2865
I00
I57649
sI01
I16
stp2866
Rp2867
sg26
I2
sg27
F57666.0
sbs(g10
Vcontains(fail)
p2868
tp2869
g0
(g15
g2
Ntp2870
Rp2871
(dp2872
g19
F0.5
sg20
I94852
sg21
g22
((dp2873
I00
I94849
sI01
I3
stp2874
Rp2875
sg26
I2
sg27
F94853.0
sbs(g8
Vcontains(miser)
p2876
tp2877
g0
(g15
g2
Ntp2878
Rp2879
(dp2880
g19
F0.5
sg20
I17127
sg21
g22
((dp2881
I00
I17094
sI01
I33
stp2882
Rp2883
sg26
I2
sg27
F17128.0
sbs(g9
Vcontains(tire)
p2884
tp2885
g0
(g15
g2
Ntp2886
Rp2887
(dp2888
g19
F0.5
sg20
I57665
sg21
g22
((dp2889
I00
I57646
sI01
I19
stp2890
Rp2891
sg26
I2
sg27
F57666.0
sbs(g8
Vcontains(sincer)
p2892
tp2893
g0
(g15
g2
Ntp2894
Rp2895
(dp2896
g19
F0.5
sg20
I17127
sg21
g22
((dp2897
I00
I17126
sI01
I1
stp2898
Rp2899
sg26
I2
sg27
F17128.0
sbs(g8
Vcontains(proud)
p2900
tp2901
g0
(g15
g2
Ntp2902
Rp2903
(dp2904
g19
F0.5
sg20
I17127
sg21
g22
((dp2905
I00
I17127
stp2906
Rp2907
sg26
I2
sg27
F17128.0
sbs(g10
Vcontains(hardli)
p2908
tp2909
g0
(g15
g2
Ntp2910
Rp2911
(dp2912
g19
F0.5
sg20
I94852
sg21
g22
((dp2913
I00
I94843
sI01
I9
stp2914
Rp2915
sg26
I2
sg27
F94853.0
sbs(g8
Vcontains(small)
p2916
tp2917
g0
(g15
g2
Ntp2918
Rp2919
(dp2920
g19
F0.5
sg20
I17127
sg21
g22
((dp2921
I00
I16939
sI01
I188
stp2922
Rp2923
sg26
I2
sg27
F17128.0
sbs(g10
Vcontains(wrong)
p2924
tp2925
g0
(g15
g2
Ntp2926
Rp2927
(dp2928
g19
F0.5
sg20
I94852
sg21
g22
((dp2929
I00
I94835
sI01
I17
stp2930
Rp2931
sg26
I2
sg27
F94853.0
sbs(g9
Vcontains(complic)
p2932
tp2933
g0
(g15
g2
Ntp2934
Rp2935
(dp2936
g19
F0.5
sg20
I57665
sg21
g22
((dp2937
I00
I57658
sI01
I7
stp2938
Rp2939
sg26
I2
sg27
F57666.0
sbs(g10
Vcontains(environ)
p2940
tp2941
g0
(g15
g2
Ntp2942
Rp2943
(dp2944
g19
F0.5
sg20
I94852
sg21
g22
((dp2945
I00
I90546
sI01
I4306
stp2946
Rp2947
sg26
I2
sg27
F94853.0
sbs(g10
Vcontains(exhaust)
p2948
tp2949
g0
(g15
g2
Ntp2950
Rp2951
(dp2952
g19
F0.5
sg20
I94852
sg21
g22
((dp2953
I00
I94851
sI01
I1
stp2954
Rp2955
sg26
I2
sg27
F94853.0
sbs(g10
Vcontains(perform)
p2956
tp2957
g0
(g15
g2
Ntp2958
Rp2959
(dp2960
g19
F0.5
sg20
I94852
sg21
g22
((dp2961
I00
I94418
sI01
I434
stp2962
Rp2963
sg26
I2
sg27
F94853.0
sbs(g10
Vcontains(unnecessari)
p2964
tp2965
g0
(g15
g2
Ntp2966
Rp2967
(dp2968
g19
F0.5
sg20
I94852
sg21
g22
((dp2969
I00
I94849
sI01
I3
stp2970
Rp2971
sg26
I2
sg27
F94853.0
sbs(g8
Vcontains(cant)
p2972
tp2973
g0
(g15
g2
Ntp2974
Rp2975
(dp2976
g19
F0.5
sg20
I17127
sg21
g22
((dp2977
I00
I17114
sI01
I13
stp2978
Rp2979
sg26
I2
sg27
F17128.0
sbs(g9
Vcontains(rude)
p2980
tp2981
g0
(g15
g2
Ntp2982
Rp2983
(dp2984
g19
F0.5
sg20
I57665
sg21
g22
((dp2985
I00
I57659
sI01
I6
stp2986
Rp2987
sg26
I2
sg27
F57666.0
sbs(g10
Vcontains(free)
p2988
tp2989
g0
(g15
g2
Ntp2990
Rp2991
(dp2992
g19
F0.5
sg20
I94852
sg21
g22
((dp2993
I00
I93834
sI01
I1018
stp2994
Rp2995
sg26
I2
sg27
F94853.0
sbs(g9
Vcontains(apprais)
p2996
tp2997
g0
(g15
g2
Ntp2998
Rp2999
(dp3000
g19
F0.5
sg20
I57665
sg21
g22
((dp3001
I00
I57646
sI01
I19
stp3002
Rp3003
sg26
I2
sg27
F57666.0
sbs(g10
Vcontains(illeg)
p3004
tp3005
g0
(g15
g2
Ntp3006
Rp3007
(dp3008
g19
F0.5
sg20
I94852
sg21
g22
((dp3009
I00
I94852
stp3010
Rp3011
sg26
I2
sg27
F94853.0
sbs(g9
Vcontains(mani)
p3012
tp3013
g0
(g15
g2
Ntp3014
Rp3015
(dp3016
g19
F0.5
sg20
I57665
sg21
g22
((dp3017
I00
I57563
sI01
I102
stp3018
Rp3019
sg26
I2
sg27
F57666.0
sbs(g9
Vcontains(cannot)
p3020
tp3021
g0
(g15
g2
Ntp3022
Rp3023
(dp3024
g19
F0.5
sg20
I57665
sg21
g22
((dp3025
I00
I57629
sI01
I36
stp3026
Rp3027
sg26
I2
sg27
F57666.0
sbs(g9
Vcontains(rough)
p3028
tp3029
g0
(g15
g2
Ntp3030
Rp3031
(dp3032
g19
F0.5
sg20
I57665
sg21
g22
((dp3033
I00
I57660
sI01
I5
stp3034
Rp3035
sg26
I2
sg27
F57666.0
sbs(g9
Vcontains(like)
p3036
tp3037
g0
(g15
g2
Ntp3038
Rp3039
(dp3040
g19
F0.5
sg20
I57665
sg21
g22
((dp3041
I00
I56531
sI01
I1134
stp3042
Rp3043
sg26
I2
sg27
F57666.0
sbs(g10
Vcontains(oper)
p3044
tp3045
g0
(g15
g2
Ntp3046
Rp3047
(dp3048
g19
F0.5
sg20
I94852
sg21
g22
((dp3049
I00
I94479
sI01
I373
stp3050
Rp3051
sg26
I2
sg27
F94853.0
sbs(g10
Vcontains(help)
p3052
tp3053
g0
(g15
g2
Ntp3054
Rp3055
(dp3056
g19
F0.5
sg20
I94852
sg21
g22
((dp3057
I00
I92214
sI01
I2638
stp3058
Rp3059
sg26
I2
sg27
F94853.0
sbs(g8
Vcontains(tediou)
p3060
tp3061
g0
(g15
g2
Ntp3062
Rp3063
(dp3064
g19
F0.5
sg20
I17127
sg21
g22
((dp3065
I00
I17084
sI01
I43
stp3066
Rp3067
sg26
I2
sg27
F17128.0
sbs(g9
Vcontains(compens)
p3068
tp3069
g0
(g15
g2
Ntp3070
Rp3071
(dp3072
g19
F0.5
sg20
I57665
sg21
g22
((dp3073
I00
I57320
sI01
I345
stp3074
Rp3075
sg26
I2
sg27
F57666.0
sbs(g9
Vcontains(unorgan)
p3076
tp3077
g0
(g15
g2
Ntp3078
Rp3079
(dp3080
g19
F0.5
sg20
I57665
sg21
g22
((dp3081
I00
I57649
sI01
I16
stp3082
Rp3083
sg26
I2
sg27
F57666.0
sbs(g8
Vcontains(unbeliev)
p3084
tp3085
g0
(g15
g2
Ntp3086
Rp3087
(dp3088
g19
F0.5
sg20
I17127
sg21
g22
((dp3089
I00
I17117
sI01
I10
stp3090
Rp3091
sg26
I2
sg27
F17128.0
sbs(g10
Vcontains(quit)
p3092
tp3093
g0
(g15
g2
Ntp3094
Rp3095
(dp3096
g19
F0.5
sg20
I94852
sg21
g22
((dp3097
I00
I94650
sI01
I202
stp3098
Rp3099
sg26
I2
sg27
F94853.0
sbs(g8
Vcontains(minimum)
p3100
tp3101
g0
(g15
g2
Ntp3102
Rp3103
(dp3104
g19
F0.5
sg20
I17127
sg21
g22
((dp3105
I00
I17104
sI01
I23
stp3106
Rp3107
sg26
I2
sg27
F17128.0
sbs(g10
Vcontains(opportun)
p3108
tp3109
g0
(g15
g2
Ntp3110
Rp3111
(dp3112
g19
F0.5
sg20
I94852
sg21
g22
((dp3113
I00
I92133
sI01
I2719
stp3114
Rp3115
sg26
I2
sg27
F94853.0
sbs(g8
Vcontains(awesom)
p3116
tp3117
g0
(g15
g2
Ntp3118
Rp3119
(dp3120
g19
F0.5
sg20
I17127
sg21
g22
((dp3121
I00
I17127
stp3122
Rp3123
sg26
I2
sg27
F17128.0
sbs(g9
Vcontains(lucki)
p3124
tp3125
g0
(g15
g2
Ntp3126
Rp3127
(dp3128
g19
F0.5
sg20
I57665
sg21
g22
((dp3129
I00
I57656
sI01
I9
stp3130
Rp3131
sg26
I2
sg27
F57666.0
sbs(g8
Vcontains(love)
p3132
tp3133
g0
(g15
g2
Ntp3134
Rp3135
(dp3136
g19
F0.5
sg20
I17127
sg21
g22
((dp3137
I00
I17113
sI01
I14
stp3138
Rp3139
sg26
I2
sg27
F17128.0
sbs(g8
Vcontains(start)
p3140
tp3141
g0
(g15
g2
Ntp3142
Rp3143
(dp3144
g19
F0.5
sg20
I17127
sg21
g22
((dp3145
I00
I16842
sI01
I285
stp3146
Rp3147
sg26
I2
sg27
F17128.0
sbs(g8
Vcontains(relax)
p3148
tp3149
g0
(g15
g2
Ntp3150
Rp3151
(dp3152
g19
F0.5
sg20
I17127
sg21
g22
((dp3153
I00
I17116
sI01
I11
stp3154
Rp3155
sg26
I2
sg27
F17128.0
sbs(g10
Vcontains(includ)
p3156
tp3157
g0
(g15
g2
Ntp3158
Rp3159
(dp3160
g19
F0.5
sg20
I94852
sg21
g22
((dp3161
I00
I94659
sI01
I193
stp3162
Rp3163
sg26
I2
sg27
F94853.0
sbs(g10
Vcontains(fals)
p3164
tp3165
g0
(g15
g2
Ntp3166
Rp3167
(dp3168
g19
F0.5
sg20
I94852
sg21
g22
((dp3169
I00
I94851
sI01
I1
stp3170
Rp3171
sg26
I2
sg27
F94853.0
sbs(g10
Vcontains(con)
p3172
tp3173
g0
(g15
g2
Ntp3174
Rp3175
(dp3176
g19
F0.5
sg20
I94852
sg21
g22
((dp3177
I00
I94721
sI01
I131
stp3178
Rp3179
sg26
I2
sg27
F94853.0
sbs(g8
Vcontains(discount)
p3180
tp3181
g0
(g15
g2
Ntp3182
Rp3183
(dp3184
g19
F0.5
sg20
I17127
sg21
g22
((dp3185
I00
I17119
sI01
I8
stp3186
Rp3187
sg26
I2
sg27
F17128.0
sbs(g8
Vcontains(unfriendli)
p3188
tp3189
g0
(g15
g2
Ntp3190
Rp3191
(dp3192
g19
F0.5
sg20
I17127
sg21
g22
((dp3193
I00
I17125
sI01
I2
stp3194
Rp3195
sg26
I2
sg27
F17128.0
sbs(g10
Vcontains(fake)
p3196
tp3197
g0
(g15
g2
Ntp3198
Rp3199
(dp3200
g19
F0.5
sg20
I94852
sg21
g22
((dp3201
I00
I94852
stp3202
Rp3203
sg26
I2
sg27
F94853.0
sbs(g8
Vcontains(gain)
p3204
tp3205
g0
(g15
g2
Ntp3206
Rp3207
(dp3208
g19
F0.5
sg20
I17127
sg21
g22
((dp3209
I00
I17098
sI01
I29
stp3210
Rp3211
sg26
I2
sg27
F17128.0
sbs(g10
Vcontains(focu)
p3212
tp3213
g0
(g15
g2
Ntp3214
Rp3215
(dp3216
g19
F0.5
sg20
I94852
sg21
g22
((dp3217
I00
I94693
sI01
I159
stp3218
Rp3219
sg26
I2
sg27
F94853.0
sbs(g8
Vcontains(recommend)
p3220
tp3221
g0
(g15
g2
Ntp3222
Rp3223
(dp3224
g19
F0.5
sg20
I17127
sg21
g22
((dp3225
I00
I17097
sI01
I30
stp3226
Rp3227
sg26
I2
sg27
F17128.0
sbs(g8
Vcontains(late)
p3228
tp3229
g0
(g15
g2
Ntp3230
Rp3231
(dp3232
g19
F0.5
sg20
I17127
sg21
g22
((dp3233
I00
I16932
sI01
I195
stp3234
Rp3235
sg26
I2
sg27
F17128.0
sbs(g8
Vcontains(ridicul)
p3236
tp3237
g0
(g15
g2
Ntp3238
Rp3239
(dp3240
g19
F0.5
sg20
I17127
sg21
g22
((dp3241
I00
I17092
sI01
I35
stp3242
Rp3243
sg26
I2
sg27
F17128.0
sbs(g8
Vcontains(struggl)
p3244
tp3245
g0
(g15
g2
Ntp3246
Rp3247
(dp3248
g19
F0.5
sg20
I17127
sg21
g22
((dp3249
I00
I17117
sI01
I10
stp3250
Rp3251
sg26
I2
sg27
F17128.0
sbs(g8
Vcontains(abil)
p3252
tp3253
g0
(g15
g2
Ntp3254
Rp3255
(dp3256
g19
F0.5
sg20
I17127
sg21
g22
((dp3257
I00
I17092
sI01
I35
stp3258
Rp3259
sg26
I2
sg27
F17128.0
sbs(g9
Vcontains(comfort)
p3260
tp3261
g0
(g15
g2
Ntp3262
Rp3263
(dp3264
g19
F0.5
sg20
I57665
sg21
g22
((dp3265
I00
I57645
sI01
I20
stp3266
Rp3267
sg26
I2
sg27
F57666.0
sbs(g10
Vcontains(compens)
p3268
tp3269
g0
(g15
g2
Ntp3270
Rp3271
(dp3272
g19
F0.5
sg20
I94852
sg21
g22
((dp3273
I00
I94467
sI01
I385
stp3274
Rp3275
sg26
I2
sg27
F94853.0
sbs(g9
Vcontains(gave)
p3276
tp3277
g0
(g15
g2
Ntp3278
Rp3279
(dp3280
g19
F0.5
sg20
I57665
sg21
g22
((dp3281
I00
I57472
sI01
I193
stp3282
Rp3283
sg26
I2
sg27
F57666.0
sbs(g10
Vcontains(fault)
p3284
tp3285
g0
(g15
g2
Ntp3286
Rp3287
(dp3288
g19
F0.5
sg20
I94852
sg21
g22
((dp3289
I00
I94847
sI01
I5
stp3290
Rp3291
sg26
I2
sg27
F94853.0
sbs(g8
Vcontains(balanc)
p3292
tp3293
g0
(g15
g2
Ntp3294
Rp3295
(dp3296
g19
F0.5
sg20
I17127
sg21
g22
((dp3297
I00
I16750
sI01
I377
stp3298
Rp3299
sg26
I2
sg27
F17128.0
sbs(g9
Vcontains(get)
p3300
tp3301
g0
(g15
g2
Ntp3302
Rp3303
(dp3304
g19
F0.5
sg20
I57665
sg21
g22
((dp3305
I00
I55846
sI01
I1819
stp3306
Rp3307
sg26
I2
sg27
F57666.0
sbs(g8
Vcontains(stress)
p3308
tp3309
g0
(g15
g2
Ntp3310
Rp3311
(dp3312
g19
F0.5
sg20
I17127
sg21
g22
((dp3313
I00
I17053
sI01
I74
stp3314
Rp3315
sg26
I2
sg27
F17128.0
sbs(g10
Vcontains(enjoy)
p3316
tp3317
g0
(g15
g2
Ntp3318
Rp3319
(dp3320
g19
F0.5
sg20
I94852
sg21
g22
((dp3321
I00
I87394
sI01
I7458
stp3322
Rp3323
sg26
I2
sg27
F94853.0
sbs(g9
Vcontains(bright)
p3324
tp3325
g0
(g15
g2
Ntp3326
Rp3327
(dp3328
g19
F0.5
sg20
I57665
sg21
g22
((dp3329
I00
I57665
stp3330
Rp3331
sg26
I2
sg27
F57666.0
sbs(g8
Vcontains(depend)
p3332
tp3333
g0
(g15
g2
Ntp3334
Rp3335
(dp3336
g19
F0.5
sg20
I17127
sg21
g22
((dp3337
I00
I17033
sI01
I94
stp3338
Rp3339
sg26
I2
sg27
F17128.0
sbs(g10
Vcontains(joy)
p3340
tp3341
g0
(g15
g2
Ntp3342
Rp3343
(dp3344
g19
F0.5
sg20
I94852
sg21
g22
((dp3345
I00
I94770
sI01
I82
stp3346
Rp3347
sg26
I2
sg27
F94853.0
sbs(g8
Vcontains(crazi)
p3348
tp3349
g0
(g15
g2
Ntp3350
Rp3351
(dp3352
g19
F0.5
sg20
I17127
sg21
g22
((dp3353
I00
I17046
sI01
I81
stp3354
Rp3355
sg26
I2
sg27
F17128.0
sbs(g9
Vcontains(slowli)
p3356
tp3357
g0
(g15
g2
Ntp3358
Rp3359
(dp3360
g19
F0.5
sg20
I57665
sg21
g22
((dp3361
I00
I57665
stp3362
Rp3363
sg26
I2
sg27
F57666.0
sbs(g8
Vcontains(support)
p3364
tp3365
g0
(g15
g2
Ntp3366
Rp3367
(dp3368
g19
F0.5
sg20
I17127
sg21
g22
((dp3369
I00
I17012
sI01
I115
stp3370
Rp3371
sg26
I2
sg27
F17128.0
sbs(g10
Vcontains(unfairli)
p3372
tp3373
g0
(g15
g2
Ntp3374
Rp3375
(dp3376
g19
F0.5
sg20
I94852
sg21
g22
((dp3377
I00
I94852
stp3378
Rp3379
sg26
I2
sg27
F94853.0
sbs(g8
Vcontains(unfairli)
p3380
tp3381
g0
(g15
g2
Ntp3382
Rp3383
(dp3384
g19
F0.5
sg20
I17127
sg21
g22
((dp3385
I00
I17116
sI01
I11
stp3386
Rp3387
sg26
I2
sg27
F17128.0
sbs(g9
Vcontains(weak)
p3388
tp3389
g0
(g15
g2
Ntp3390
Rp3391
(dp3392
g19
F0.5
sg20
I57665
sg21
g22
((dp3393
I00
I57654
sI01
I11
stp3394
Rp3395
sg26
I2
sg27
F57666.0
sbs(g9
Vcontains(bad)
p3396
tp3397
g0
(g15
g2
Ntp3398
Rp3399
(dp3400
g19
F0.5
sg20
I57665
sg21
g22
((dp3401
I00
I57593
sI01
I72
stp3402
Rp3403
sg26
I2
sg27
F57666.0
sbs(g8
Vcontains(hire)
p3404
tp3405
g0
(g15
g2
Ntp3406
Rp3407
(dp3408
g19
F0.5
sg20
I17127
sg21
g22
((dp3409
I00
I17076
sI01
I51
stp3410
Rp3411
sg26
I2
sg27
F17128.0
sbs(g8
Vcontains(get)
p3412
tp3413
g0
(g15
g2
Ntp3414
Rp3415
(dp3416
g19
F0.5
sg20
I17127
sg21
g22
((dp3417
I00
I16267
sI01
I860
stp3418
Rp3419
sg26
I2
sg27
F17128.0
sbs(g8
Vcontains(shift)
p3420
tp3421
g0
(g15
g2
Ntp3422
Rp3423
(dp3424
g19
F0.5
sg20
I17127
sg21
g22
((dp3425
I00
I16797
sI01
I330
stp3426
Rp3427
sg26
I2
sg27
F17128.0
sbs(g8
Vcontains(miss)
p3428
tp3429
g0
(g15
g2
Ntp3430
Rp3431
(dp3432
g19
F0.5
sg20
I17127
sg21
g22
((dp3433
I00
I17063
sI01
I64
stp3434
Rp3435
sg26
I2
sg27
F17128.0
sbs(g9
Vcontains(focu)
p3436
tp3437
g0
(g15
g2
Ntp3438
Rp3439
(dp3440
g19
F0.5
sg20
I57665
sg21
g22
((dp3441
I00
I57556
sI01
I109
stp3442
Rp3443
sg26
I2
sg27
F57666.0
sbs(g9
Vcontains(perform)
p3444
tp3445
g0
(g15
g2
Ntp3446
Rp3447
(dp3448
g19
F0.5
sg20
I57665
sg21
g22
((dp3449
I00
I57328
sI01
I337
stp3450
Rp3451
sg26
I2
sg27
F57666.0
sbs(g10
Vcontains(tough)
p3452
tp3453
g0
(g15
g2
Ntp3454
Rp3455
(dp3456
g19
F0.5
sg20
I94852
sg21
g22
((dp3457
I00
I94816
sI01
I36
stp3458
Rp3459
sg26
I2
sg27
F94853.0
sbs(g9
Vcontains(interest)
p3460
tp3461
g0
(g15
g2
Ntp3462
Rp3463
(dp3464
g19
F0.5
sg20
I57665
sg21
g22
((dp3465
I00
I57588
sI01
I77
stp3466
Rp3467
sg26
I2
sg27
F57666.0
sbs(g10
Vcontains(enhanc)
p3468
tp3469
g0
(g15
g2
Ntp3470
Rp3471
(dp3472
g19
F0.5
sg20
I94852
sg21
g22
((dp3473
I00
I94700
sI01
I152
stp3474
Rp3475
sg26
I2
sg27
F94853.0
sbs(g8
Vcontains(forc)
p3476
tp3477
g0
(g15
g2
Ntp3478
Rp3479
(dp3480
g19
F0.5
sg20
I17127
sg21
g22
((dp3481
I00
I17039
sI01
I88
stp3482
Rp3483
sg26
I2
sg27
F17128.0
sbs(g10
Vcontains(mani)
p3484
tp3485
g0
(g15
g2
Ntp3486
Rp3487
(dp3488
g19
F0.5
sg20
I94852
sg21
g22
((dp3489
I00
I91359
sI01
I3493
stp3490
Rp3491
sg26
I2
sg27
F94853.0
sbs(g10
Vcontains(understand)
p3492
tp3493
g0
(g15
g2
Ntp3494
Rp3495
(dp3496
g19
F0.5
sg20
I94852
sg21
g22
((dp3497
I00
I94501
sI01
I351
stp3498
Rp3499
sg26
I2
sg27
F94853.0
sbs(g10
Vcontains(mentor)
p3500
tp3501
g0
(g15
g2
Ntp3502
Rp3503
(dp3504
g19
F0.5
sg20
I94852
sg21
g22
((dp3505
I00
I94725
sI01
I127
stp3506
Rp3507
sg26
I2
sg27
F94853.0
sbs(g8
Vcontains(slow)
p3508
tp3509
g0
(g15
g2
Ntp3510
Rp3511
(dp3512
g19
F0.5
sg20
I17127
sg21
g22
((dp3513
I00
I16842
sI01
I285
stp3514
Rp3515
sg26
I2
sg27
F17128.0
sbs(g10
Vcontains(safeti)
p3516
tp3517
g0
(g15
g2
Ntp3518
Rp3519
(dp3520
g19
F0.5
sg20
I94852
sg21
g22
((dp3521
I00
I94740
sI01
I112
stp3522
Rp3523
sg26
I2
sg27
F94853.0
sbs(g10
Vcontains(bright)
p3524
tp3525
g0
(g15
g2
Ntp3526
Rp3527
(dp3528
g19
F0.5
sg20
I94852
sg21
g22
((dp3529
I00
I94806
sI01
I46
stp3530
Rp3531
sg26
I2
sg27
F94853.0
sbs(g10
Vcontains(end)
p3532
tp3533
g0
(g15
g2
Ntp3534
Rp3535
(dp3536
g19
F0.5
sg20
I94852
sg21
g22
((dp3537
I00
I94437
sI01
I415
stp3538
Rp3539
sg26
I2
sg27
F94853.0
sbs(g8
Vcontains(terribl)
p3540
tp3541
g0
(g15
g2
Ntp3542
Rp3543
(dp3544
g19
F0.5
sg20
I17127
sg21
g22
((dp3545
I00
I16930
sI01
I197
stp3546
Rp3547
sg26
I2
sg27
F17128.0
sbs(g10
Vcontains(forc)
p3548
tp3549
g0
(g15
g2
Ntp3550
Rp3551
(dp3552
g19
F0.5
sg20
I94852
sg21
g22
((dp3553
I00
I94776
sI01
I76
stp3554
Rp3555
sg26
I2
sg27
F94853.0
sbs(g10
Vcontains(imposs)
p3556
tp3557
g0
(g15
g2
Ntp3558
Rp3559
(dp3560
g19
F0.5
sg20
I94852
sg21
g22
((dp3561
I00
I94846
sI01
I6
stp3562
Rp3563
sg26
I2
sg27
F94853.0
sbs(g9
Vcontains(will)
p3564
tp3565
g0
(g15
g2
Ntp3566
Rp3567
(dp3568
g19
F0.5
sg20
I57665
sg21
g22
((dp3569
I00
I57617
sI01
I48
stp3570
Rp3571
sg26
I2
sg27
F57666.0
sbs(g10
Vcontains(unpleas)
p3572
tp3573
g0
(g15
g2
Ntp3574
Rp3575
(dp3576
g19
F0.5
sg20
I94852
sg21
g22
((dp3577
I00
I94852
stp3578
Rp3579
sg26
I2
sg27
F94853.0
sbs(g9
Vcontains(requir)
p3580
tp3581
g0
(g15
g2
Ntp3582
Rp3583
(dp3584
g19
F0.5
sg20
I57665
sg21
g22
((dp3585
I00
I57246
sI01
I419
stp3586
Rp3587
sg26
I2
sg27
F57666.0
sbs(g10
Vcontains(mundan)
p3588
tp3589
g0
(g15
g2
Ntp3590
Rp3591
(dp3592
g19
F0.5
sg20
I94852
sg21
g22
((dp3593
I00
I94851
sI01
I1
stp3594
Rp3595
sg26
I2
sg27
F94853.0
sbs(g8
Vcontains(unless)
p3596
tp3597
g0
(g15
g2
Ntp3598
Rp3599
(dp3600
g19
F0.5
sg20
I17127
sg21
g22
((dp3601
I00
I17081
sI01
I46
stp3602
Rp3603
sg26
I2
sg27
F17128.0
sbs(g9
Vcontains(satisfactori)
p3604
tp3605
g0
(g15
g2
Ntp3606
Rp3607
(dp3608
g19
F0.5
sg20
I57665
sg21
g22
((dp3609
I00
I57650
sI01
I15
stp3610
Rp3611
sg26
I2
sg27
F57666.0
sbs(g9
Vcontains(scope)
p3612
tp3613
g0
(g15
g2
Ntp3614
Rp3615
(dp3616
g19
F0.5
sg20
I57665
sg21
g22
((dp3617
I00
I57455
sI01
I210
stp3618
Rp3619
sg26
I2
sg27
F57666.0
sbs(g8
Vcontains(unorgan)
p3620
tp3621
g0
(g15
g2
Ntp3622
Rp3623
(dp3624
g19
F0.5
sg20
I17127
sg21
g22
((dp3625
I00
I17114
sI01
I13
stp3626
Rp3627
sg26
I2
sg27
F17128.0
sbs(g10
Vcontains(mad)
p3628
tp3629
g0
(g15
g2
Ntp3630
Rp3631
(dp3632
g19
F0.5
sg20
I94852
sg21
g22
((dp3633
I00
I94850
sI01
I2
stp3634
Rp3635
sg26
I2
sg27
F94853.0
sbs(g8
Vcontains(hardest)
p3636
tp3637
g0
(g15
g2
Ntp3638
Rp3639
(dp3640
g19
F0.5
sg20
I17127
sg21
g22
((dp3641
I00
I16719
sI01
I408
stp3642
Rp3643
sg26
I2
sg27
F17128.0
sbs(g8
Vcontains(transpar)
p3644
tp3645
g0
(g15
g2
Ntp3646
Rp3647
(dp3648
g19
F0.5
sg20
I17127
sg21
g22
((dp3649
I00
I17125
sI01
I2
stp3650
Rp3651
sg26
I2
sg27
F17128.0
sbs(g8
Vcontains(sorri)
p3652
tp3653
g0
(g15
g2
Ntp3654
Rp3655
(dp3656
g19
F0.5
sg20
I17127
sg21
g22
((dp3657
I00
I17103
sI01
I24
stp3658
Rp3659
sg26
I2
sg27
F17128.0
sbs(g9
Vcontains(worst)
p3660
tp3661
g0
(g15
g2
Ntp3662
Rp3663
(dp3664
g19
F0.5
sg20
I57665
sg21
g22
((dp3665
I00
I57643
sI01
I22
stp3666
Rp3667
sg26
I2
sg27
F57666.0
sbs(g8
Vcontains(easi)
p3668
tp3669
g0
(g15
g2
Ntp3670
Rp3671
(dp3672
g19
F0.5
sg20
I17127
sg21
g22
((dp3673
I00
I17120
sI01
I7
stp3674
Rp3675
sg26
I2
sg27
F17128.0
sbs(g10
Vcontains(effect)
p3676
tp3677
g0
(g15
g2
Ntp3678
Rp3679
(dp3680
g19
F0.5
sg20
I94852
sg21
g22
((dp3681
I00
I94428
sI01
I424
stp3682
Rp3683
sg26
I2
sg27
F94853.0
sbs(g8
Vcontains(success)
p3684
tp3685
g0
(g15
g2
Ntp3686
Rp3687
(dp3688
g19
F0.5
sg20
I17127
sg21
g22
((dp3689
I00
I17121
sI01
I6
stp3690
Rp3691
sg26
I2
sg27
F17128.0
sbs(g10
Vcontains(short)
p3692
tp3693
g0
(g15
g2
Ntp3694
Rp3695
(dp3696
g19
F0.5
sg20
I94852
sg21
g22
((dp3697
I00
I94692
sI01
I160
stp3698
Rp3699
sg26
I2
sg27
F94853.0
sbs(g10
Vcontains(expens)
p3700
tp3701
g0
(g15
g2
Ntp3702
Rp3703
(dp3704
g19
F0.5
sg20
I94852
sg21
g22
((dp3705
I00
I94840
sI01
I12
stp3706
Rp3707
sg26
I2
sg27
F94853.0
sbs(g10
Vcontains(product)
p3708
tp3709
g0
(g15
g2
Ntp3710
Rp3711
(dp3712
g19
F0.5
sg20
I94852
sg21
g22
((dp3713
I00
I93736
sI01
I1116
stp3714
Rp3715
sg26
I2
sg27
F94853.0
sbs(g8
Vcontains(hard)
p3716
tp3717
g0
(g15
g2
Ntp3718
Rp3719
(dp3720
g19
F0.5
sg20
I17127
sg21
g22
((dp3721
I00
I14640
sI01
I2487
stp3722
Rp3723
sg26
I2
sg27
F17128.0
sbs(g9
Vcontains(inconsist)
p3724
tp3725
g0
(g15
g2
Ntp3726
Rp3727
(dp3728
g19
F0.5
sg20
I57665
sg21
g22
((dp3729
I00
I57658
sI01
I7
stp3730
Rp3731
sg26
I2
sg27
F57666.0
sbs(g9
Vcontains(past)
p3732
tp3733
g0
(g15
g2
Ntp3734
Rp3735
(dp3736
g19
F0.5
sg20
I57665
sg21
g22
((dp3737
I00
I57612
sI01
I53
stp3738
Rp3739
sg26
I2
sg27
F57666.0
sbs(g9
Vcontains(overtim)
p3740
tp3741
g0
(g15
g2
Ntp3742
Rp3743
(dp3744
g19
F0.5
sg20
I57665
sg21
g22
((dp3745
I00
I57412
sI01
I253
stp3746
Rp3747
sg26
I2
sg27
F57666.0
sbs(g9
Vcontains(profession)
p3748
tp3749
g0
(g15
g2
Ntp3750
Rp3751
(dp3752
g19
F0.5
sg20
I57665
sg21
g22
((dp3753
I00
I57048
sI01
I617
stp3754
Rp3755
sg26
I2
sg27
F57666.0
sbs(g10
Vcontains(incred)
p3756
tp3757
g0
(g15
g2
Ntp3758
Rp3759
(dp3760
g19
F0.5
sg20
I94852
sg21
g22
((dp3761
I00
I94710
sI01
I142
stp3762
Rp3763
sg26
I2
sg27
F94853.0
sbs(g9
Vcontains(proud)
p3764
tp3765
g0
(g15
g2
Ntp3766
Rp3767
(dp3768
g19
F0.5
sg20
I57665
sg21
g22
((dp3769
I00
I57665
stp3770
Rp3771
sg26
I2
sg27
F57666.0
sbs(g8
Vcontains(greatest)
p3772
tp3773
g0
(g15
g2
Ntp3774
Rp3775
(dp3776
g19
F0.5
sg20
I17127
sg21
g22
((dp3777
I00
I17127
stp3778
Rp3779
sg26
I2
sg27
F17128.0
sbs(g9
Vcontains(import)
p3780
tp3781
g0
(g15
g2
Ntp3782
Rp3783
(dp3784
g19
F0.5
sg20
I57665
sg21
g22
((dp3785
I00
I57595
sI01
I70
stp3786
Rp3787
sg26
I2
sg27
F57666.0
sbs(g9
Vcontains(unfairli)
p3788
tp3789
g0
(g15
g2
Ntp3790
Rp3791
(dp3792
g19
F0.5
sg20
I57665
sg21
g22
((dp3793
I00
I57664
sI01
I1
stp3794
Rp3795
sg26
I2
sg27
F57666.0
sbs(g10
Vcontains(complic)
p3796
tp3797
g0
(g15
g2
Ntp3798
Rp3799
(dp3800
g19
F0.5
sg20
I94852
sg21
g22
((dp3801
I00
I94846
sI01
I6
stp3802
Rp3803
sg26
I2
sg27
F94853.0
sbs(g8
Vcontains(effect)
p3804
tp3805
g0
(g15
g2
Ntp3806
Rp3807
(dp3808
g19
F0.5
sg20
I17127
sg21
g22
((dp3809
I00
I17114
sI01
I13
stp3810
Rp3811
sg26
I2
sg27
F17128.0
sbs(g9
Vcontains(exhaust)
p3812
tp3813
g0
(g15
g2
Ntp3814
Rp3815
(dp3816
g19
F0.5
sg20
I57665
sg21
g22
((dp3817
I00
I57659
sI01
I6
stp3818
Rp3819
sg26
I2
sg27
F57666.0
sbs(g9
Vcontains(sure)
p3820
tp3821
g0
(g15
g2
Ntp3822
Rp3823
(dp3824
g19
F0.5
sg20
I57665
sg21
g22
((dp3825
I00
I57646
sI01
I19
stp3826
Rp3827
sg26
I2
sg27
F57666.0
sbs(g8
Vcontains(help)
p3828
tp3829
g0
(g15
g2
Ntp3830
Rp3831
(dp3832
g19
F0.5
sg20
I17127
sg21
g22
((dp3833
I00
I16828
sI01
I299
stp3834
Rp3835
sg26
I2
sg27
F17128.0
sbs(g10
Vcontains(satisfactori)
p3836
tp3837
g0
(g15
g2
Ntp3838
Rp3839
(dp3840
g19
F0.5
sg20
I94852
sg21
g22
((dp3841
I00
I94838
sI01
I14
stp3842
Rp3843
sg26
I2
sg27
F94853.0
sbs(g9
Vcontains(poor)
p3844
tp3845
g0
(g15
g2
Ntp3846
Rp3847
(dp3848
g19
F0.5
sg20
I57665
sg21
g22
((dp3849
I00
I57614
sI01
I51
stp3850
Rp3851
sg26
I2
sg27
F57666.0
sbs(g9
Vcontains(extrem)
p3852
tp3853
g0
(g15
g2
Ntp3854
Rp3855
(dp3856
g19
F0.5
sg20
I57665
sg21
g22
((dp3857
I00
I57611
sI01
I54
stp3858
Rp3859
sg26
I2
sg27
F57666.0
sbs(g10
Vcontains(depress)
p3860
tp3861
g0
(g15
g2
Ntp3862
Rp3863
(dp3864
g19
F0.5
sg20
I94852
sg21
g22
((dp3865
I00
I94851
sI01
I1
stp3866
Rp3867
sg26
I2
sg27
F94853.0
sbs(g10
Vcontains(worst)
p3868
tp3869
g0
(g15
g2
Ntp3870
Rp3871
(dp3872
g19
F0.5
sg20
I94852
sg21
g22
((dp3873
I00
I94847
sI01
I5
stp3874
Rp3875
sg26
I2
sg27
F94853.0
sbs(g8
Vcontains(irrat)
p3876
tp3877
g0
(g15
g2
Ntp3878
Rp3879
(dp3880
g19
F0.5
sg20
I17127
sg21
g22
((dp3881
I00
I17127
stp3882
Rp3883
sg26
I1
sg27
F17127.5
sbs(g8
Vcontains(exhaust)
p3884
tp3885
g0
(g15
g2
Ntp3886
Rp3887
(dp3888
g19
F0.5
sg20
I17127
sg21
g22
((dp3889
I00
I17082
sI01
I45
stp3890
Rp3891
sg26
I2
sg27
F17128.0
sbs(g10
Vcontains(love)
p3892
tp3893
g0
(g15
g2
Ntp3894
Rp3895
(dp3896
g19
F0.5
sg20
I94852
sg21
g22
((dp3897
I00
I92068
sI01
I2784
stp3898
Rp3899
sg26
I2
sg27
F94853.0
sbs(g8
Vcontains(wast)
p3900
tp3901
g0
(g15
g2
Ntp3902
Rp3903
(dp3904
g19
F0.5
sg20
I17127
sg21
g22
((dp3905
I00
I17083
sI01
I44
stp3906
Rp3907
sg26
I2
sg27
F17128.0
sbs(g9
Vcontains(harder)
p3908
tp3909
g0
(g15
g2
Ntp3910
Rp3911
(dp3912
g19
F0.5
sg20
I57665
sg21
g22
((dp3913
I00
I57651
sI01
I14
stp3914
Rp3915
sg26
I2
sg27
F57666.0
sbs(g9
Vcontains(short)
p3916
tp3917
g0
(g15
g2
Ntp3918
Rp3919
(dp3920
g19
F0.5
sg20
I57665
sg21
g22
((dp3921
I00
I57410
sI01
I255
stp3922
Rp3923
sg26
I2
sg27
F57666.0
sbs(g8
Vcontains(poorli)
p3924
tp3925
g0
(g15
g2
Ntp3926
Rp3927
(dp3928
g19
F0.5
sg20
I17127
sg21
g22
((dp3929
I00
I17071
sI01
I56
stp3930
Rp3931
sg26
I2
sg27
F17128.0
sbs(g9
Vcontains(fals)
p3932
tp3933
g0
(g15
g2
Ntp3934
Rp3935
(dp3936
g19
F0.5
sg20
I57665
sg21
g22
((dp3937
I00
I57664
sI01
I1
stp3938
Rp3939
sg26
I2
sg27
F57666.0
sbs(g8
Vcontains(nice)
p3940
tp3941
g0
(g15
g2
Ntp3942
Rp3943
(dp3944
g19
F0.5
sg20
I17127
sg21
g22
((dp3945
I00
I17121
sI01
I6
stp3946
Rp3947
sg26
I2
sg27
F17128.0
sbs(g9
Vcontains(brutal)
p3948
tp3949
g0
(g15
g2
Ntp3950
Rp3951
(dp3952
g19
F0.5
sg20
I57665
sg21
g22
((dp3953
I00
I57665
stp3954
Rp3955
sg26
I2
sg27
F57666.0
sbs(g10
Vcontains(disast)
p3956
tp3957
g0
(g15
g2
Ntp3958
Rp3959
(dp3960
g19
F0.5
sg20
I94852
sg21
g22
((dp3961
I00
I94841
sI01
I11
stp3962
Rp3963
sg26
I2
sg27
F94853.0
sbs(g10
Vcontains(stupid)
p3964
tp3965
g0
(g15
g2
Ntp3966
Rp3967
(dp3968
g19
F0.5
sg20
I94852
sg21
g22
((dp3969
I00
I94850
sI01
I2
stp3970
Rp3971
sg26
I2
sg27
F94853.0
sbs(g8
Vcontains(disast)
p3972
tp3973
g0
(g15
g2
Ntp3974
Rp3975
(dp3976
g19
F0.5
sg20
I17127
sg21
g22
((dp3977
I00
I17124
sI01
I3
stp3978
Rp3979
sg26
I2
sg27
F17128.0
sbs(g10
Vcontains(miser)
p3980
tp3981
g0
(g15
g2
Ntp3982
Rp3983
(dp3984
g19
F0.5
sg20
I94852
sg21
g22
((dp3985
I00
I94852
stp3986
Rp3987
sg26
I2
sg27
F94853.0
sbs(g10
Vcontains(suck)
p3988
tp3989
g0
(g15
g2
Ntp3990
Rp3991
(dp3992
g19
F0.5
sg20
I94852
sg21
g22
((dp3993
I00
I94823
sI01
I29
stp3994
Rp3995
sg26
I2
sg27
F94853.0
sbs(g9
Vcontains(insur)
p3996
tp3997
g0
(g15
g2
Ntp3998
Rp3999
(dp4000
g19
F0.5
sg20
I57665
sg21
g22
((dp4001
I00
I57606
sI01
I59
stp4002
Rp4003
sg26
I2
sg27
F57666.0
sbs(g10
Vcontains(disgust)
p4004
tp4005
g0
(g15
g2
Ntp4006
Rp4007
(dp4008
g19
F0.5
sg20
I94852
sg21
g22
((dp4009
I00
I94852
stp4010
Rp4011
sg26
I2
sg27
F94853.0
sbs(g9
Vcontains(discount)
p4012
tp4013
g0
(g15
g2
Ntp4014
Rp4015
(dp4016
g19
F0.5
sg20
I57665
sg21
g22
((dp4017
I00
I57638
sI01
I27
stp4018
Rp4019
sg26
I2
sg27
F57666.0
sbs(g8
Vcontains(great)
p4020
tp4021
g0
(g15
g2
Ntp4022
Rp4023
(dp4024
g19
F0.5
sg20
I17127
sg21
g22
((dp4025
I00
I17126
sI01
I1
stp4026
Rp4027
sg26
I2
sg27
F17128.0
sbs(g8
Vcontains(healthi)
p4028
tp4029
g0
(g15
g2
Ntp4030
Rp4031
(dp4032
g19
F0.5
sg20
I17127
sg21
g22
((dp4033
I00
I17127
stp4034
Rp4035
sg26
I2
sg27
F17128.0
sbs(g8
Vcontains(disappoint)
p4036
tp4037
g0
(g15
g2
Ntp4038
Rp4039
(dp4040
g19
F0.5
sg20
I17127
sg21
g22
((dp4041
I00
I17088
sI01
I39
stp4042
Rp4043
sg26
I2
sg27
F17128.0
sbs(g10
Vcontains(truli)
p4044
tp4045
g0
(g15
g2
Ntp4046
Rp4047
(dp4048
g19
F0.5
sg20
I94852
sg21
g22
((dp4049
I00
I94717
sI01
I135
stp4050
Rp4051
sg26
I2
sg27
F94853.0
sbs(g8
Vcontains(environ)
p4052
tp4053
g0
(g15
g2
Ntp4054
Rp4055
(dp4056
g19
F0.5
sg20
I17127
sg21
g22
((dp4057
I00
I16951
sI01
I176
stp4058
Rp4059
sg26
I2
sg27
F17128.0
sbs(g10
Vcontains(lot)
p4060
tp4061
g0
(g15
g2
Ntp4062
Rp4063
(dp4064
g19
F0.5
sg20
I94852
sg21
g22
((dp4065
I00
I92415
sI01
I2437
stp4066
Rp4067
sg26
I2
sg27
F94853.0
sbs(g10
Vcontains(honest)
p4068
tp4069
g0
(g15
g2
Ntp4070
Rp4071
(dp4072
g19
F0.5
sg20
I94852
sg21
g22
((dp4073
I00
I94781
sI01
I71
stp4074
Rp4075
sg26
I2
sg27
F94853.0
sbs(g10
Vcontains(extrem)
p4076
tp4077
g0
(g15
g2
Ntp4078
Rp4079
(dp4080
g19
F0.5
sg20
I94852
sg21
g22
((dp4081
I00
I94630
sI01
I222
stp4082
Rp4083
sg26
I2
sg27
F94853.0
sbs(g10
Vcontains(sick)
p4084
tp4085
g0
(g15
g2
Ntp4086
Rp4087
(dp4088
g19
F0.5
sg20
I94852
sg21
g22
((dp4089
I00
I94838
sI01
I14
stp4090
Rp4091
sg26
I2
sg27
F94853.0
sbs(g8
Vcontains(extrem)
p4092
tp4093
g0
(g15
g2
Ntp4094
Rp4095
(dp4096
g19
F0.5
sg20
I17127
sg21
g22
((dp4097
I00
I16914
sI01
I213
stp4098
Rp4099
sg26
I2
sg27
F17128.0
sbs(g9
Vcontains(sad)
p4100
tp4101
g0
(g15
g2
Ntp4102
Rp4103
(dp4104
g19
F0.5
sg20
I57665
sg21
g22
((dp4105
I00
I57661
sI01
I4
stp4106
Rp4107
sg26
I2
sg27
F57666.0
sbs(g8
Vcontains(understand)
p4108
tp4109
g0
(g15
g2
Ntp4110
Rp4111
(dp4112
g19
F0.5
sg20
I17127
sg21
g22
((dp4113
I00
I17058
sI01
I69
stp4114
Rp4115
sg26
I2
sg27
F17128.0
sbs(g8
Vcontains(challeng)
p4116
tp4117
g0
(g15
g2
Ntp4118
Rp4119
(dp4120
g19
F0.5
sg20
I17127
sg21
g22
((dp4121
I00
I17038
sI01
I89
stp4122
Rp4123
sg26
I2
sg27
F17128.0
sbs(g9
Vcontains(inexperienc)
p4124
tp4125
g0
(g15
g2
Ntp4126
Rp4127
(dp4128
g19
F0.5
sg20
I57665
sg21
g22
((dp4129
I00
I57655
sI01
I10
stp4130
Rp4131
sg26
I2
sg27
F57666.0
sbs(g9
Vcontains(troubl)
p4132
tp4133
g0
(g15
g2
Ntp4134
Rp4135
(dp4136
g19
F0.5
sg20
I57665
sg21
g22
((dp4137
I00
I57650
sI01
I15
stp4138
Rp4139
sg26
I2
sg27
F57666.0
sbs(g10
Vcontains(harder)
p4140
tp4141
g0
(g15
g2
Ntp4142
Rp4143
(dp4144
g19
F0.5
sg20
I94852
sg21
g22
((dp4145
I00
I94832
sI01
I20
stp4146
Rp4147
sg26
I2
sg27
F94853.0
sbs(g8
Vcontains(suitabl)
p4148
tp4149
g0
(g15
g2
Ntp4150
Rp4151
(dp4152
g19
F0.5
sg20
I17127
sg21
g22
((dp4153
I00
I17127
stp4154
Rp4155
sg26
I2
sg27
F17128.0
sbs(g8
Vcontains(rough)
p4156
tp4157
g0
(g15
g2
Ntp4158
Rp4159
(dp4160
g19
F0.5
sg20
I17127
sg21
g22
((dp4161
I00
I17103
sI01
I24
stp4162
Rp4163
sg26
I2
sg27
F17128.0
sbs(g9
Vcontains(miser)
p4164
tp4165
g0
(g15
g2
Ntp4166
Rp4167
(dp4168
g19
F0.5
sg20
I57665
sg21
g22
((dp4169
I00
I57663
sI01
I2
stp4170
Rp4171
sg26
I2
sg27
F57666.0
sbs(g9
Vcontains(stupid)
p4172
tp4173
g0
(g15
g2
Ntp4174
Rp4175
(dp4176
g19
F0.5
sg20
I57665
sg21
g22
((dp4177
I00
I57661
sI01
I4
stp4178
Rp4179
sg26
I2
sg27
F57666.0
sbs(g10
Vcontains(shi)
p4180
tp4181
g0
(g15
g2
Ntp4182
Rp4183
(dp4184
g19
F0.5
sg20
I94852
sg21
g22
((dp4185
I00
I94851
sI01
I1
stp4186
Rp4187
sg26
I2
sg27
F94853.0
sbs(g10
Vcontains(easi)
p4188
tp4189
g0
(g15
g2
Ntp4190
Rp4191
(dp4192
g19
F0.5
sg20
I94852
sg21
g22
((dp4193
I00
I93462
sI01
I1390
stp4194
Rp4195
sg26
I2
sg27
F94853.0
sbs(g9
Vcontains(lazi)
p4196
tp4197
g0
(g15
g2
Ntp4198
Rp4199
(dp4200
g19
F0.5
sg20
I57665
sg21
g22
((dp4201
I00
I57659
sI01
I6
stp4202
Rp4203
sg26
I2
sg27
F57666.0
sbs(g10
Vcontains(overtim)
p4204
tp4205
g0
(g15
g2
Ntp4206
Rp4207
(dp4208
g19
F0.5
sg20
I94852
sg21
g22
((dp4209
I00
I94696
sI01
I156
stp4210
Rp4211
sg26
I2
sg27
F94853.0
sbs(g10
Vcontains(slowli)
p4212
tp4213
g0
(g15
g2
Ntp4214
Rp4215
(dp4216
g19
F0.5
sg20
I94852
sg21
g22
((dp4217
I00
I94851
sI01
I1
stp4218
Rp4219
sg26
I2
sg27
F94853.0
sbs(g8
Vcontains(provid)
p4220
tp4221
g0
(g15
g2
Ntp4222
Rp4223
(dp4224
g19
F0.5
sg20
I17127
sg21
g22
((dp4225
I00
I17027
sI01
I100
stp4226
Rp4227
sg26
I2
sg27
F17128.0
sbs(g10
Vcontains(longer)
p4228
tp4229
g0
(g15
g2
Ntp4230
Rp4231
(dp4232
g19
F0.5
sg20
I94852
sg21
g22
((dp4233
I00
I94798
sI01
I54
stp4234
Rp4235
sg26
I2
sg27
F94853.0
sbs(g9
Vcontains(badli)
p4236
tp4237
g0
(g15
g2
Ntp4238
Rp4239
(dp4240
g19
F0.5
sg20
I57665
sg21
g22
((dp4241
I00
I57664
sI01
I1
stp4242
Rp4243
sg26
I2
sg27
F57666.0
sbs(g10
Vcontains(import)
p4244
tp4245
g0
(g15
g2
Ntp4246
Rp4247
(dp4248
g19
F0.5
sg20
I94852
sg21
g22
((dp4249
I00
I94314
sI01
I538
stp4250
Rp4251
sg26
I2
sg27
F94853.0
sbs(g9
Vcontains(disturb)
p4252
tp4253
g0
(g15
g2
Ntp4254
Rp4255
(dp4256
g19
F0.5
sg20
I57665
sg21
g22
((dp4257
I00
I57658
sI01
I7
stp4258
Rp4259
sg26
I2
sg27
F57666.0
sbs(g10
Vcontains(develop)
p4260
tp4261
g0
(g15
g2
Ntp4262
Rp4263
(dp4264
g19
F0.5
sg20
I94852
sg21
g22
((dp4265
I00
I93978
sI01
I874
stp4266
Rp4267
sg26
I2
sg27
F94853.0
sbs(g8
Vcontains(happi)
p4268
tp4269
g0
(g15
g2
Ntp4270
Rp4271
(dp4272
g19
F0.5
sg20
I17127
sg21
g22
((dp4273
I00
I17124
sI01
I3
stp4274
Rp4275
sg26
I2
sg27
F17128.0
sbs(g10
Vcontains(tire)
p4276
tp4277
g0
(g15
g2
Ntp4278
Rp4279
(dp4280
g19
F0.5
sg20
I94852
sg21
g22
((dp4281
I00
I94838
sI01
I14
stp4282
Rp4283
sg26
I2
sg27
F94853.0
sbs(g10
Vcontains(break)
p4284
tp4285
g0
(g15
g2
Ntp4286
Rp4287
(dp4288
g19
F0.5
sg20
I94852
sg21
g22
((dp4289
I00
I94555
sI01
I297
stp4290
Rp4291
sg26
I2
sg27
F94853.0
sbs(g9
Vcontains(enhanc)
p4292
tp4293
g0
(g15
g2
Ntp4294
Rp4295
(dp4296
g19
F0.5
sg20
I57665
sg21
g22
((dp4297
I00
I57487
sI01
I178
stp4298
Rp4299
sg26
I2
sg27
F57666.0
sbs(g10
Vcontains(grow)
p4300
tp4301
g0
(g15
g2
Ntp4302
Rp4303
(dp4304
g19
F0.5
sg20
I94852
sg21
g22
((dp4305
I00
I94180
sI01
I672
stp4306
Rp4307
sg26
I2
sg27
F94853.0
sbs(g10
Vcontains(workload)
p4308
tp4309
g0
(g15
g2
Ntp4310
Rp4311
(dp4312
g19
F0.5
sg20
I94852
sg21
g22
((dp4313
I00
I94787
sI01
I65
stp4314
Rp4315
sg26
I2
sg27
F94853.0
sbs(g10
Vcontains(troubl)
p4316
tp4317
g0
(g15
g2
Ntp4318
Rp4319
(dp4320
g19
F0.5
sg20
I94852
sg21
g22
((dp4321
I00
I94829
sI01
I23
stp4322
Rp4323
sg26
I2
sg27
F94853.0
sbs(g9
Vcontains(dirti)
p4324
tp4325
g0
(g15
g2
Ntp4326
Rp4327
(dp4328
g19
F0.5
sg20
I57665
sg21
g22
((dp4329
I00
I57664
sI01
I1
stp4330
Rp4331
sg26
I2
sg27
F57666.0
sbs(g8
Vcontains(littl)
p4332
tp4333
g0
(g15
g2
Ntp4334
Rp4335
(dp4336
g19
F0.5
sg20
I17127
sg21
g22
((dp4337
I00
I16469
sI01
I658
stp4338
Rp4339
sg26
I2
sg27
F17128.0
sbs(g9
Vcontains(luck)
p4340
tp4341
g0
(g15
g2
Ntp4342
Rp4343
(dp4344
g19
F0.5
sg20
I57665
sg21
g22
((dp4345
I00
I57655
sI01
I10
stp4346
Rp4347
sg26
I2
sg27
F57666.0
sbs(g8
Vcontains(bad)
p4348
tp4349
g0
(g15
g2
Ntp4350
Rp4351
(dp4352
g19
F0.5
sg20
I17127
sg21
g22
((dp4353
I00
I16304
sI01
I823
stp4354
Rp4355
sg26
I2
sg27
F17128.0
sbs(g8
Vcontains(impress)
p4356
tp4357
g0
(g15
g2
Ntp4358
Rp4359
(dp4360
g19
F0.5
sg20
I17127
sg21
g22
((dp4361
I00
I17123
sI01
I4
stp4362
Rp4363
sg26
I2
sg27
F17128.0
sbs(g8
Vcontains(enhanc)
p4364
tp4365
g0
(g15
g2
Ntp4366
Rp4367
(dp4368
g19
F0.5
sg20
I17127
sg21
g22
((dp4369
I00
I17124
sI01
I3
stp4370
Rp4371
sg26
I2
sg27
F17128.0
sbs(g8
Vcontains(lack)
p4372
tp4373
g0
(g15
g2
Ntp4374
Rp4375
(dp4376
g19
F0.5
sg20
I17127
sg21
g22
((dp4377
I00
I17044
sI01
I83
stp4378
Rp4379
sg26
I2
sg27
F17128.0
sbs(g10
Vcontains(slave)
p4380
tp4381
g0
(g15
g2
Ntp4382
Rp4383
(dp4384
g19
F0.5
sg20
I94852
sg21
g22
((dp4385
I00
I94842
sI01
I10
stp4386
Rp4387
sg26
I2
sg27
F94853.0
sbs(g10
Vcontains(weak)
p4388
tp4389
g0
(g15
g2
Ntp4390
Rp4391
(dp4392
g19
F0.5
sg20
I94852
sg21
g22
((dp4393
I00
I94846
sI01
I6
stp4394
Rp4395
sg26
I2
sg27
F94853.0
sbs(g9
Vcontains(disast)
p4396
tp4397
g0
(g15
g2
Ntp4398
Rp4399
(dp4400
g19
F0.5
sg20
I57665
sg21
g22
((dp4401
I00
I57657
sI01
I8
stp4402
Rp4403
sg26
I2
sg27
F57666.0
sbs(g10
Vcontains(lazi)
p4404
tp4405
g0
(g15
g2
Ntp4406
Rp4407
(dp4408
g19
F0.5
sg20
I94852
sg21
g22
((dp4409
I00
I94836
sI01
I16
stp4410
Rp4411
sg26
I2
sg27
F94853.0
sbs(g8
Vcontains(poor)
p4412
tp4413
g0
(g15
g2
Ntp4414
Rp4415
(dp4416
g19
F0.5
sg20
I17127
sg21
g22
((dp4417
I00
I16709
sI01
I418
stp4418
Rp4419
sg26
I2
sg27
F17128.0
sbs(g9
Vcontains(crazi)
p4420
tp4421
g0
(g15
g2
Ntp4422
Rp4423
(dp4424
g19
F0.5
sg20
I57665
sg21
g22
((dp4425
I00
I57653
sI01
I12
stp4426
Rp4427
sg26
I2
sg27
F57666.0
sbs(g8
Vcontains(patienc)
p4428
tp4429
g0
(g15
g2
Ntp4430
Rp4431
(dp4432
g19
F0.5
sg20
I17127
sg21
g22
((dp4433
I00
I17116
sI01
I11
stp4434
Rp4435
sg26
I2
sg27
F17128.0
sbs(g9
Vcontains(disgust)
p4436
tp4437
g0
(g15
g2
Ntp4438
Rp4439
(dp4440
g19
F0.5
sg20
I57665
sg21
g22
((dp4441
I00
I57665
stp4442
Rp4443
sg26
I2
sg27
F57666.0
sbs(g9
Vcontains(imposs)
p4444
tp4445
g0
(g15
g2
Ntp4446
Rp4447
(dp4448
g19
F0.5
sg20
I57665
sg21
g22
((dp4449
I00
I57651
sI01
I14
stp4450
Rp4451
sg26
I2
sg27
F57666.0
sbs(g10
Vcontains(will)
p4452
tp4453
g0
(g15
g2
Ntp4454
Rp4455
(dp4456
g19
F0.5
sg20
I94852
sg21
g22
((dp4457
I00
I94170
sI01
I682
stp4458
Rp4459
sg26
I2
sg27
F94853.0
sbs(g8
Vcontains(repetit)
p4460
tp4461
g0
(g15
g2
Ntp4462
Rp4463
(dp4464
g19
F0.5
sg20
I17127
sg21
g22
((dp4465
I00
I17037
sI01
I90
stp4466
Rp4467
sg26
I2
sg27
F17128.0
sbs(g10
Vcontains(ill)
p4468
tp4469
g0
(g15
g2
Ntp4470
Rp4471
(dp4472
g19
F0.5
sg20
I94852
sg21
g22
((dp4473
I00
I94851
sI01
I1
stp4474
Rp4475
sg26
I2
sg27
F94853.0
sbs(g10
Vcontains(horribl)
p4476
tp4477
g0
(g15
g2
Ntp4478
Rp4479
(dp4480
g19
F0.5
sg20
I94852
sg21
g22
((dp4481
I00
I94848
sI01
I4
stp4482
Rp4483
sg26
I2
sg27
F94853.0
sbs(g9
Vcontains(mundan)
p4484
tp4485
g0
(g15
g2
Ntp4486
Rp4487
(dp4488
g19
F0.5
sg20
I57665
sg21
g22
((dp4489
I00
I57661
sI01
I4
stp4490
Rp4491
sg26
I2
sg27
F57666.0
sbs(g8
Vcontains(broken)
p4492
tp4493
g0
(g15
g2
Ntp4494
Rp4495
(dp4496
g19
F0.5
sg20
I17127
sg21
g22
((dp4497
I00
I17096
sI01
I31
stp4498
Rp4499
sg26
I2
sg27
F17128.0
sbs(g10
Vcontains(rude)
p4500
tp4501
g0
(g15
g2
Ntp4502
Rp4503
(dp4504
g19
F0.5
sg20
I94852
sg21
g22
((dp4505
I00
I94842
sI01
I10
stp4506
Rp4507
sg26
I2
sg27
F94853.0
sbs(g8
Vcontains(experienc)
p4508
tp4509
g0
(g15
g2
Ntp4510
Rp4511
(dp4512
g19
F0.5
sg20
I17127
sg21
g22
((dp4513
I00
I17121
sI01
I6
stp4514
Rp4515
sg26
I2
sg27
F17128.0
sbs(g9
Vcontains(workload)
p4516
tp4517
g0
(g15
g2
Ntp4518
Rp4519
(dp4520
g19
F0.5
sg20
I57665
sg21
g22
((dp4521
I00
I57618
sI01
I47
stp4522
Rp4523
sg26
I2
sg27
F57666.0
sbs(g8
Vcontains(apprais)
p4524
tp4525
g0
(g15
g2
Ntp4526
Rp4527
(dp4528
g19
F0.5
sg20
I17127
sg21
g22
((dp4529
I00
I17103
sI01
I24
stp4530
Rp4531
sg26
I2
sg27
F17128.0
sbs(g9
Vcontains(help)
p4532
tp4533
g0
(g15
g2
Ntp4534
Rp4535
(dp4536
g19
F0.5
sg20
I57665
sg21
g22
((dp4537
I00
I56035
sI01
I1630
stp4538
Rp4539
sg26
I2
sg27
F57666.0
sbs(g8
Vcontains(inexperienc)
p4540
tp4541
g0
(g15
g2
Ntp4542
Rp4543
(dp4544
g19
F0.5
sg20
I17127
sg21
g22
((dp4545
I00
I17113
sI01
I14
stp4546
Rp4547
sg26
I2
sg27
F17128.0
sbs(g8
Vcontains(fairli)
p4548
tp4549
g0
(g15
g2
Ntp4550
Rp4551
(dp4552
g19
F0.5
sg20
I17127
sg21
g22
((dp4553
I00
I17120
sI01
I7
stp4554
Rp4555
sg26
I2
sg27
F17128.0
sbs(g10
Vcontains(inexperienc)
p4556
tp4557
g0
(g15
g2
Ntp4558
Rp4559
(dp4560
g19
F0.5
sg20
I94852
sg21
g22
((dp4561
I00
I94846
sI01
I6
stp4562
Rp4563
sg26
I2
sg27
F94853.0
sbs(g8
Vcontains(smile)
p4564
tp4565
g0
(g15
g2
Ntp4566
Rp4567
(dp4568
g19
F0.5
sg20
I17127
sg21
g22
((dp4569
I00
I17118
sI01
I9
stp4570
Rp4571
sg26
I2
sg27
F17128.0
sbs(g9
Vcontains(crisi)
p4572
tp4573
g0
(g15
g2
Ntp4574
Rp4575
(dp4576
g19
F0.5
sg20
I57665
sg21
g22
((dp4577
I00
I57658
sI01
I7
stp4578
Rp4579
sg26
I2
sg27
F57666.0
sbs(g10
Vcontains(patienc)
p4580
tp4581
g0
(g15
g2
Ntp4582
Rp4583
(dp4584
g19
F0.5
sg20
I94852
sg21
g22
((dp4585
I00
I94810
sI01
I42
stp4586
Rp4587
sg26
I2
sg27
F94853.0
sbs(g9
Vcontains(quit)
p4588
tp4589
g0
(g15
g2
Ntp4590
Rp4591
(dp4592
g19
F0.5
sg20
I57665
sg21
g22
((dp4593
I00
I57490
sI01
I175
stp4594
Rp4595
sg26
I2
sg27
F57666.0
sbs(g9
Vcontains(lot)
p4596
tp4597
g0
(g15
g2
Ntp4598
Rp4599
(dp4600
g19
F0.5
sg20
I57665
sg21
g22
((dp4601
I00
I54483
sI01
I3182
stp4602
Rp4603
sg26
I2
sg27
F57666.0
sbs(g10
Vcontains(ignor)
p4604
tp4605
g0
(g15
g2
Ntp4606
Rp4607
(dp4608
g19
F0.5
sg20
I94852
sg21
g22
((dp4609
I00
I94843
sI01
I9
stp4610
Rp4611
sg26
I2
sg27
F94853.0
sbs(g8
Vcontains(unfair)
p4612
tp4613
g0
(g15
g2
Ntp4614
Rp4615
(dp4616
g19
F0.5
sg20
I17127
sg21
g22
((dp4617
I00
I17069
sI01
I58
stp4618
Rp4619
sg26
I2
sg27
F17128.0
sbs(g9
Vcontains(unfortun)
p4620
tp4621
g0
(g15
g2
Ntp4622
Rp4623
(dp4624
g19
F0.5
sg20
I57665
sg21
g22
((dp4625
I00
I57647
sI01
I18
stp4626
Rp4627
sg26
I2
sg27
F57666.0
sbs(g10
Vcontains(bad)
p4628
tp4629
g0
(g15
g2
Ntp4630
Rp4631
(dp4632
g19
F0.5
sg20
I94852
sg21
g22
((dp4633
I00
I94789
sI01
I63
stp4634
Rp4635
sg26
I2
sg27
F94853.0
sbs(g9
Vcontains(incred)
p4636
tp4637
g0
(g15
g2
Ntp4638
Rp4639
(dp4640
g19
F0.5
sg20
I57665
sg21
g22
((dp4641
I00
I57663
sI01
I2
stp4642
Rp4643
sg26
I2
sg27
F57666.0
sbs(g10
Vcontains(excess)
p4644
tp4645
g0
(g15
g2
Ntp4646
Rp4647
(dp4648
g19
F0.5
sg20
I94852
sg21
g22
((dp4649
I00
I94850
sI01
I2
stp4650
Rp4651
sg26
I2
sg27
F94853.0
sbs(g9
Vcontains(impress)
p4652
tp4653
g0
(g15
g2
Ntp4654
Rp4655
(dp4656
g19
F0.5
sg20
I57665
sg21
g22
((dp4657
I00
I57656
sI01
I9
stp4658
Rp4659
sg26
I2
sg27
F57666.0
sbs(g9
Vcontains(con)
p4660
tp4661
g0
(g15
g2
Ntp4662
Rp4663
(dp4664
g19
F0.5
sg20
I57665
sg21
g22
((dp4665
I00
I57582
sI01
I83
stp4666
Rp4667
sg26
I2
sg27
F57666.0
sbs(g10
Vcontains(low)
p4668
tp4669
g0
(g15
g2
Ntp4670
Rp4671
(dp4672
g19
F0.5
sg20
I94852
sg21
g22
((dp4673
I00
I94754
sI01
I98
stp4674
Rp4675
sg26
I2
sg27
F94853.0
sbs(g8
Vcontains(execut)
p4676
tp4677
g0
(g15
g2
Ntp4678
Rp4679
(dp4680
g19
F0.5
sg20
I17127
sg21
g22
((dp4681
I00
I17071
sI01
I56
stp4682
Rp4683
sg26
I2
sg27
F17128.0
sbs(g8
Vcontains(teamwork)
p4684
tp4685
g0
(g15
g2
Ntp4686
Rp4687
(dp4688
g19
F0.5
sg20
I17127
sg21
g22
((dp4689
I00
I17121
sI01
I6
stp4690
Rp4691
sg26
I2
sg27
F17128.0
sbs(g10
Vcontains(badli)
p4692
tp4693
g0
(g15
g2
Ntp4694
Rp4695
(dp4696
g19
F0.5
sg20
I94852
sg21
g22
((dp4697
I00
I94852
stp4698
Rp4699
sg26
I2
sg27
F94853.0
sbs(g8
Vcontains(noth)
p4700
tp4701
g0
(g15
g2
Ntp4702
Rp4703
(dp4704
g19
F0.5
sg20
I17127
sg21
g22
((dp4705
I00
I16964
sI01
I163
stp4706
Rp4707
sg26
I2
sg27
F17128.0
sbs(g8
Vcontains(unfortun)
p4708
tp4709
g0
(g15
g2
Ntp4710
Rp4711
(dp4712
g19
F0.5
sg20
I17127
sg21
g22
((dp4713
I00
I17008
sI01
I119
stp4714
Rp4715
sg26
I2
sg27
F17128.0
sbs(g10
Vcontains(pressur)
p4716
tp4717
g0
(g15
g2
Ntp4718
Rp4719
(dp4720
g19
F0.5
sg20
I94852
sg21
g22
((dp4721
I00
I94032
sI01
I820
stp4722
Rp4723
sg26
I2
sg27
F94853.0
sbs(g8
Vcontains(okay)
p4724
tp4725
g0
(g15
g2
Ntp4726
Rp4727
(dp4728
g19
F0.5
sg20
I17127
sg21
g22
((dp4729
I00
I17127
stp4730
Rp4731
sg26
I2
sg27
F17128.0
sbs(g8
Vcontains(heartless)
p4732
tp4733
g0
(g15
g2
Ntp4734
Rp4735
(dp4736
g19
F0.5
sg20
I17127
sg21
g22
((dp4737
I00
I17126
sI01
I1
stp4738
Rp4739
sg26
I2
sg27
F17128.0
sbs(g9
Vcontains(bore)
p4740
tp4741
g0
(g15
g2
Ntp4742
Rp4743
(dp4744
g19
F0.5
sg20
I57665
sg21
g22
((dp4745
I00
I57660
sI01
I5
stp4746
Rp4747
sg26
I2
sg27
F57666.0
sbs(g9
Vcontains(depress)
p4748
tp4749
g0
(g15
g2
Ntp4750
Rp4751
(dp4752
g19
F0.5
sg20
I57665
sg21
g22
((dp4753
I00
I57663
sI01
I2
stp4754
Rp4755
sg26
I2
sg27
F57666.0
sbs(g8
Vcontains(limit)
p4756
tp4757
g0
(g15
g2
Ntp4758
Rp4759
(dp4760
g19
F0.5
sg20
I17127
sg21
g22
((dp4761
I00
I17103
sI01
I24
stp4762
Rp4763
sg26
I2
sg27
F17128.0
sbs(g9
Vcontains(kind)
p4764
tp4765
g0
(g15
g2
Ntp4766
Rp4767
(dp4768
g19
F0.5
sg20
I57665
sg21
g22
((dp4769
I00
I57625
sI01
I40
stp4770
Rp4771
sg26
I2
sg27
F57666.0
sbs(g8
Vcontains(tough)
p4772
tp4773
g0
(g15
g2
Ntp4774
Rp4775
(dp4776
g19
F0.5
sg20
I17127
sg21
g22
((dp4777
I00
I16919
sI01
I208
stp4778
Rp4779
sg26
I2
sg27
F17128.0
sbs(g9
Vcontains(motiv)
p4780
tp4781
g0
(g15
g2
Ntp4782
Rp4783
(dp4784
g19
F0.5
sg20
I57665
sg21
g22
((dp4785
I00
I57307
sI01
I358
stp4786
Rp4787
sg26
I2
sg27
F57666.0
sbs(g10
Vcontains(incent)
p4788
tp4789
g0
(g15
g2
Ntp4790
Rp4791
(dp4792
g19
F0.5
sg20
I94852
sg21
g22
((dp4793
I00
I94753
sI01
I99
stp4794
Rp4795
sg26
I2
sg27
F94853.0
sbs(g8
Vcontains(pro)
p4796
tp4797
g0
(g15
g2
Ntp4798
Rp4799
(dp4800
g19
F0.5
sg20
I17127
sg21
g22
((dp4801
I00
I17111
sI01
I16
stp4802
Rp4803
sg26
I2
sg27
F17128.0
sbs(g10
Vcontains(honestli)
p4804
tp4805
g0
(g15
g2
Ntp4806
Rp4807
(dp4808
g19
F0.5
sg20
I94852
sg21
g22
((dp4809
I00
I94783
sI01
I69
stp4810
Rp4811
sg26
I2
sg27
F94853.0
sbs(g9
Vcontains(frustrat)
p4812
tp4813
g0
(g15
g2
Ntp4814
Rp4815
(dp4816
g19
F0.5
sg20
I57665
sg21
g22
((dp4817
I00
I57652
sI01
I13
stp4818
Rp4819
sg26
I2
sg27
F57666.0
sbs(g8
Vcontains(confus)
p4820
tp4821
g0
(g15
g2
Ntp4822
Rp4823
(dp4824
g19
F0.5
sg20
I17127
sg21
g22
((dp4825
I00
I17095
sI01
I32
stp4826
Rp4827
sg26
I2
sg27
F17128.0
sbs(g8
Vcontains(useless)
p4828
tp4829
g0
(g15
g2
Ntp4830
Rp4831
(dp4832
g19
F0.5
sg20
I17127
sg21
g22
((dp4833
I00
I17114
sI01
I13
stp4834
Rp4835
sg26
I2
sg27
F17128.0
sbs(g9
Vcontains(ethic)
p4836
tp4837
g0
(g15
g2
Ntp4838
Rp4839
(dp4840
g19
F0.5
sg20
I57665
sg21
g22
((dp4841
I00
I57444
sI01
I221
stp4842
Rp4843
sg26
I2
sg27
F57666.0
sbs(g8
Vcontains(low)
p4844
tp4845
g0
(g15
g2
Ntp4846
Rp4847
(dp4848
g19
F0.5
sg20
I17127
sg21
g22
((dp4849
I00
I17093
sI01
I34
stp4850
Rp4851
sg26
I2
sg27
F17128.0
sbs(g10
Vcontains(kind)
p4852
tp4853
g0
(g15
g2
Ntp4854
Rp4855
(dp4856
g19
F0.5
sg20
I94852
sg21
g22
((dp4857
I00
I94367
sI01
I485
stp4858
Rp4859
sg26
I2
sg27
F94853.0
sbs(g10
Vcontains(take)
p4860
tp4861
g0
(g15
g2
Ntp4862
Rp4863
(dp4864
g19
F0.5
sg20
I94852
sg21
g22
((dp4865
I00
I94198
sI01
I654
stp4866
Rp4867
sg26
I2
sg27
F94853.0
sbs(g10
Vcontains(awesom)
p4868
tp4869
g0
(g15
g2
Ntp4870
Rp4871
(dp4872
g19
F0.5
sg20
I94852
sg21
g22
((dp4873
I00
I93986
sI01
I866
stp4874
Rp4875
sg26
I2
sg27
F94853.0
sbs(g8
Vcontains(maintain)
p4876
tp4877
g0
(g15
g2
Ntp4878
Rp4879
(dp4880
g19
F0.5
sg20
I17127
sg21
g22
((dp4881
I00
I17069
sI01
I58
stp4882
Rp4883
sg26
I2
sg27
F17128.0
sbs(g10
Vcontains(unfair)
p4884
tp4885
g0
(g15
g2
Ntp4886
Rp4887
(dp4888
g19
F0.5
sg20
I94852
sg21
g22
((dp4889
I00
I94850
sI01
I2
stp4890
Rp4891
sg26
I2
sg27
F94853.0
sbs(g10
Vcontains(insur)
p4892
tp4893
g0
(g15
g2
Ntp4894
Rp4895
(dp4896
g19
F0.5
sg20
I94852
sg21
g22
((dp4897
I00
I94777
sI01
I75
stp4898
Rp4899
sg26
I2
sg27
F94853.0
sbs(g9
Vcontains(joy)
p4900
tp4901
g0
(g15
g2
Ntp4902
Rp4903
(dp4904
g19
F0.5
sg20
I57665
sg21
g22
((dp4905
I00
I57653
sI01
I12
stp4906
Rp4907
sg26
I2
sg27
F57666.0
sbs(g9
Vcontains(never)
p4908
tp4909
g0
(g15
g2
Ntp4910
Rp4911
(dp4912
g19
F0.5
sg20
I57665
sg21
g22
((dp4913
I00
I57241
sI01
I424
stp4914
Rp4915
sg26
I2
sg27
F57666.0
sbs(g10
Vcontains(right)
p4916
tp4917
g0
(g15
g2
Ntp4918
Rp4919
(dp4920
g19
F0.5
sg20
I94852
sg21
g22
((dp4921
I00
I94180
sI01
I672
stp4922
Rp4923
sg26
I2
sg27
F94853.0
sbs(g8
Vcontains(angri)
p4924
tp4925
g0
(g15
g2
Ntp4926
Rp4927
(dp4928
g19
F0.5
sg20
I17127
sg21
g22
((dp4929
I00
I17071
sI01
I56
stp4930
Rp4931
sg26
I2
sg27
F17128.0
sbs(g9
Vcontains(well)
p4932
tp4933
g0
(g15
g2
Ntp4934
Rp4935
(dp4936
g19
F0.5
sg20
I57665
sg21
g22
((dp4937
I00
I56086
sI01
I1579
stp4938
Rp4939
sg26
I2
sg27
F57666.0
sbs(g10
Vcontains(simpl)
p4940
tp4941
g0
(g15
g2
Ntp4942
Rp4943
(dp4944
g19
F0.5
sg20
I94852
sg21
g22
((dp4945
I00
I94813
sI01
I39
stp4946
Rp4947
sg26
I2
sg27
F94853.0
sbs(g9
Vcontains(uncomfort)
p4948
tp4949
g0
(g15
g2
Ntp4950
Rp4951
(dp4952
g19
F0.5
sg20
I57665
sg21
g22
((dp4953
I00
I57664
sI01
I1
stp4954
Rp4955
sg26
I2
sg27
F57666.0
sbs(g8
Vcontains(horribl)
p4956
tp4957
g0
(g15
g2
Ntp4958
Rp4959
(dp4960
g19
F0.5
sg20
I17127
sg21
g22
((dp4961
I00
I16903
sI01
I224
stp4962
Rp4963
sg26
I2
sg27
F17128.0
sbs(g8
Vcontains(fall)
p4964
tp4965
g0
(g15
g2
Ntp4966
Rp4967
(dp4968
g19
F0.5
sg20
I17127
sg21
g22
((dp4969
I00
I17105
sI01
I22
stp4970
Rp4971
sg26
I2
sg27
F17128.0
sbs(g9
Vcontains(honest)
p4972
tp4973
g0
(g15
g2
Ntp4974
Rp4975
(dp4976
g19
F0.5
sg20
I57665
sg21
g22
((dp4977
I00
I57665
stp4978
Rp4979
sg26
I2
sg27
F57666.0
sbs(g9
Vcontains(ambiti)
p4980
tp4981
g0
(g15
g2
Ntp4982
Rp4983
(dp4984
g19
F0.5
sg20
I57665
sg21
g22
((dp4985
I00
I57664
sI01
I1
stp4986
Rp4987
sg26
I2
sg27
F57666.0
sbs(g10
Vcontains(innov)
p4988
tp4989
g0
(g15
g2
Ntp4990
Rp4991
(dp4992
g19
F0.5
sg20
I94852
sg21
g22
((dp4993
I00
I94625
sI01
I227
stp4994
Rp4995
sg26
I2
sg27
F94853.0
sbs(g10
Vcontains(ridicul)
p4996
tp4997
g0
(g15
g2
Ntp4998
Rp4999
(dp5000
g19
F0.5
sg20
I94852
sg21
g22
((dp5001
I00
I94847
sI01
I5
stp5002
Rp5003
sg26
I2
sg27
F94853.0
sbs(g8
Vcontains(focu)
p5004
tp5005
g0
(g15
g2
Ntp5006
Rp5007
(dp5008
g19
F0.5
sg20
I17127
sg21
g22
((dp5009
I00
I17096
sI01
I31
stp5010
Rp5011
sg26
I2
sg27
F17128.0
sbs(g9
Vcontains(mentor)
p5012
tp5013
g0
(g15
g2
Ntp5014
Rp5015
(dp5016
g19
F0.5
sg20
I57665
sg21
g22
((dp5017
I00
I57534
sI01
I131
stp5018
Rp5019
sg26
I2
sg27
F57666.0
sbs(g10
Vcontains(fair)
p5020
tp5021
g0
(g15
g2
Ntp5022
Rp5023
(dp5024
g19
F0.5
sg20
I94852
sg21
g22
((dp5025
I00
I94563
sI01
I289
stp5026
Rp5027
sg26
I2
sg27
F94853.0
sbs(g8
Vcontains(worst)
p5028
tp5029
g0
(g15
g2
Ntp5030
Rp5031
(dp5032
g19
F0.5
sg20
I17127
sg21
g22
((dp5033
I00
I16851
sI01
I276
stp5034
Rp5035
sg26
I2
sg27
F17128.0
sbs(g8
Vcontains(stabl)
p5036
tp5037
g0
(g15
g2
Ntp5038
Rp5039
(dp5040
g19
F0.5
sg20
I17127
sg21
g22
((dp5041
I00
I17123
sI01
I4
stp5042
Rp5043
sg26
I2
sg27
F17128.0
sbs(g10
Vcontains(afraid)
p5044
tp5045
g0
(g15
g2
Ntp5046
Rp5047
(dp5048
g19
F0.5
sg20
I94852
sg21
g22
((dp5049
I00
I94848
sI01
I4
stp5050
Rp5051
sg26
I2
sg27
F94853.0
sbs(g8
Vcontains(unabl)
p5052
tp5053
g0
(g15
g2
Ntp5054
Rp5055
(dp5056
g19
F0.5
sg20
I17127
sg21
g22
((dp5057
I00
I17072
sI01
I55
stp5058
Rp5059
sg26
I2
sg27
F17128.0
sbs(g10
Vcontains(stabl)
p5060
tp5061
g0
(g15
g2
Ntp5062
Rp5063
(dp5064
g19
F0.5
sg20
I94852
sg21
g22
((dp5065
I00
I94820
sI01
I32
stp5066
Rp5067
sg26
I2
sg27
F94853.0
sbs(g9
Vcontains(unless)
p5068
tp5069
g0
(g15
g2
Ntp5070
Rp5071
(dp5072
g19
F0.5
sg20
I57665
sg21
g22
((dp5073
I00
I57527
sI01
I138
stp5074
Rp5075
sg26
I2
sg27
F57666.0
sbs(g9
Vcontains(maintain)
p5076
tp5077
g0
(g15
g2
Ntp5078
Rp5079
(dp5080
g19
F0.5
sg20
I57665
sg21
g22
((dp5081
I00
I57440
sI01
I225
stp5082
Rp5083
sg26
I2
sg27
F57666.0
sbs(g8
Vcontains(includ)
p5084
tp5085
g0
(g15
g2
Ntp5086
Rp5087
(dp5088
g19
F0.5
sg20
I17127
sg21
g22
((dp5089
I00
I16921
sI01
I206
stp5090
Rp5091
sg26
I2
sg27
F17128.0
sbs(g9
Vcontains(ignor)
p5092
tp5093
g0
(g15
g2
Ntp5094
Rp5095
(dp5096
g19
F0.5
sg20
I57665
sg21
g22
((dp5097
I00
I57651
sI01
I14
stp5098
Rp5099
sg26
I2
sg27
F57666.0
sbs(g10
Vcontains(nice)
p5100
tp5101
g0
(g15
g2
Ntp5102
Rp5103
(dp5104
g19
F0.5
sg20
I94852
sg21
g22
((dp5105
I00
I91908
sI01
I2944
stp5106
Rp5107
sg26
I2
sg27
F94853.0
sbs(g9
Vcontains(skill)
p5108
tp5109
g0
(g15
g2
Ntp5110
Rp5111
(dp5112
g19
F0.5
sg20
I57665
sg21
g22
((dp5113
I00
I55312
sI01
I2353
stp5114
Rp5115
sg26
I2
sg27
F57666.0
sbs(g9
Vcontains(neg)
p5116
tp5117
g0
(g15
g2
Ntp5118
Rp5119
(dp5120
g19
F0.5
sg20
I57665
sg21
g22
((dp5121
I00
I57646
sI01
I19
stp5122
Rp5123
sg26
I2
sg27
F57666.0
sbs(g10
Vcontains(profession)
p5124
tp5125
g0
(g15
g2
Ntp5126
Rp5127
(dp5128
g19
F0.5
sg20
I94852
sg21
g22
((dp5129
I00
I93830
sI01
I1022
stp5130
Rp5131
sg26
I2
sg27
F94853.0
sbs(g10
Vcontains(fairli)
p5132
tp5133
g0
(g15
g2
Ntp5134
Rp5135
(dp5136
g19
F0.5
sg20
I94852
sg21
g22
((dp5137
I00
I94721
sI01
I131
stp5138
Rp5139
sg26
I2
sg27
F94853.0
sbs(g9
Vcontains(longer)
p5140
tp5141
g0
(g15
g2
Ntp5142
Rp5143
(dp5144
g19
F0.5
sg20
I57665
sg21
g22
((dp5145
I00
I57599
sI01
I66
stp5146
Rp5147
sg26
I2
sg27
F57666.0
sbs(g9
Vcontains(provid)
p5148
tp5149
g0
(g15
g2
Ntp5150
Rp5151
(dp5152
g19
F0.5
sg20
I57665
sg21
g22
((dp5153
I00
I56379
sI01
I1286
stp5154
Rp5155
sg26
I2
sg27
F57666.0
sbs(g8
Vcontains(weird)
p5156
tp5157
g0
(g15
g2
Ntp5158
Rp5159
(dp5160
g19
F0.5
sg20
I17127
sg21
g22
((dp5161
I00
I17111
sI01
I16
stp5162
Rp5163
sg26
I2
sg27
F17128.0
sbs(g8
Vcontains(serious)
p5164
tp5165
g0
(g15
g2
Ntp5166
Rp5167
(dp5168
g19
F0.5
sg20
I17127
sg21
g22
((dp5169
I00
I17073
sI01
I54
stp5170
Rp5171
sg26
I2
sg27
F17128.0
sbs(g8
Vcontains(best)
p5172
tp5173
g0
(g15
g2
Ntp5174
Rp5175
(dp5176
g19
F0.5
sg20
I17127
sg21
g22
((dp5177
I00
I17127
stp5178
Rp5179
sg26
I2
sg27
F17128.0
sbs(g9
Vcontains(poorli)
p5180
tp5181
g0
(g15
g2
Ntp5182
Rp5183
(dp5184
g19
F0.5
sg20
I57665
sg21
g22
((dp5185
I00
I57661
sI01
I4
stp5186
Rp5187
sg26
I2
sg27
F57666.0
sbs(g10
Vcontains(talent)
p5188
tp5189
g0
(g15
g2
Ntp5190
Rp5191
(dp5192
g19
F0.5
sg20
I94852
sg21
g22
((dp5193
I00
I94412
sI01
I440
stp5194
Rp5195
sg26
I2
sg27
F94853.0
sbs(g10
Vcontains(slow)
p5196
tp5197
g0
(g15
g2
Ntp5198
Rp5199
(dp5200
g19
F0.5
sg20
I94852
sg21
g22
((dp5201
I00
I94811
sI01
I41
stp5202
Rp5203
sg26
I2
sg27
F94853.0
sbs(g9
Vcontains(okay)
p5204
tp5205
g0
(g15
g2
Ntp5206
Rp5207
(dp5208
g19
F0.5
sg20
I57665
sg21
g22
((dp5209
I00
I57661
sI01
I4
stp5210
Rp5211
sg26
I2
sg27
F57666.0
sbs(g10
Vcontains(motiv)
p5212
tp5213
g0
(g15
g2
Ntp5214
Rp5215
(dp5216
g19
F0.5
sg20
I94852
sg21
g22
((dp5217
I00
I94555
sI01
I297
stp5218
Rp5219
sg26
I2
sg27
F94853.0
sbs(g9
Vcontains(ridicul)
p5220
tp5221
g0
(g15
g2
Ntp5222
Rp5223
(dp5224
g19
F0.5
sg20
I57665
sg21
g22
((dp5225
I00
I57662
sI01
I3
stp5226
Rp5227
sg26
I2
sg27
F57666.0
sbs(g8
Vcontains(lot)
p5228
tp5229
g0
(g15
g2
Ntp5230
Rp5231
(dp5232
g19
F0.5
sg20
I17127
sg21
g22
((dp5233
I00
I16809
sI01
I318
stp5234
Rp5235
sg26
I2
sg27
F17128.0
sbs(g10
Vcontains(succeed)
p5236
tp5237
g0
(g15
g2
Ntp5238
Rp5239
(dp5240
g19
F0.5
sg20
I94852
sg21
g22
((dp5241
I00
I94792
sI01
I60
stp5242
Rp5243
sg26
I2
sg27
F94853.0
sbs(g8
Vcontains(initi)
p5244
tp5245
g0
(g15
g2
Ntp5246
Rp5247
(dp5248
g19
F0.5
sg20
I17127
sg21
g22
((dp5249
I00
I17118
sI01
I9
stp5250
Rp5251
sg26
I2
sg27
F17128.0
sbs(g10
Vcontains(bore)
p5252
tp5253
g0
(g15
g2
Ntp5254
Rp5255
(dp5256
g19
F0.5
sg20
I94852
sg21
g22
((dp5257
I00
I94812
sI01
I40
stp5258
Rp5259
sg26
I2
sg27
F94853.0
sbs(g10
Vcontains(flexibl)
p5260
tp5261
g0
(g15
g2
Ntp5262
Rp5263
(dp5264
g19
F0.5
sg20
I94852
sg21
g22
((dp5265
I00
I94127
sI01
I725
stp5266
Rp5267
sg26
I2
sg27
F94853.0
sbs(g8
Vcontains(mani)
p5268
tp5269
g0
(g15
g2
Ntp5270
Rp5271
(dp5272
g19
F0.5
sg20
I17127
sg21
g22
((dp5273
I00
I17107
sI01
I20
stp5274
Rp5275
sg26
I2
sg27
F17128.0
sbs(g10
Vcontains(tight)
p5276
tp5277
g0
(g15
g2
Ntp5278
Rp5279
(dp5280
g19
F0.5
sg20
I94852
sg21
g22
((dp5281
I00
I94828
sI01
I24
stp5282
Rp5283
sg26
I2
sg27
F94853.0
sbs(g10
Vcontains(unless)
p5284
tp5285
g0
(g15
g2
Ntp5286
Rp5287
(dp5288
g19
F0.5
sg20
I94852
sg21
g22
((dp5289
I00
I94716
sI01
I136
stp5290
Rp5291
sg26
I2
sg27
F94853.0
sbs(g10
Vcontains(serious)
p5292
tp5293
g0
(g15
g2
Ntp5294
Rp5295
(dp5296
g19
F0.5
sg20
I94852
sg21
g22
((dp5297
I00
I94846
sI01
I6
stp5298
Rp5299
sg26
I2
sg27
F94853.0
sbs(g10
Vcontains(good)
p5300
tp5301
g0
(g15
g2
Ntp5302
Rp5303
(dp5304
g19
F0.5
sg20
I94852
sg21
g22
((dp5305
I00
I77556
sI01
I17296
stp5306
Rp5307
sg26
I2
sg27
F94853.0
sbs(g8
Vcontains(fantast)
p5308
tp5309
g0
(g15
g2
Ntp5310
Rp5311
(dp5312
g19
F0.5
sg20
I17127
sg21
g22
((dp5313
I00
I17127
stp5314
Rp5315
sg26
I2
sg27
F17128.0
sbs(g10
Vcontains(appreci)
p5316
tp5317
g0
(g15
g2
Ntp5318
Rp5319
(dp5320
g19
F0.5
sg20
I94852
sg21
g22
((dp5321
I00
I94565
sI01
I287
stp5322
Rp5323
sg26
I2
sg27
F94853.0
sbs(g9
Vcontains(awesom)
p5324
tp5325
g0
(g15
g2
Ntp5326
Rp5327
(dp5328
g19
F0.5
sg20
I57665
sg21
g22
((dp5329
I00
I57665
stp5330
Rp5331
sg26
I2
sg27
F57666.0
sbs(g10
Vcontains(never)
p5332
tp5333
g0
(g15
g2
Ntp5334
Rp5335
(dp5336
g19
F0.5
sg20
I94852
sg21
g22
((dp5337
I00
I94420
sI01
I432
stp5338
Rp5339
sg26
I2
sg27
F94853.0
sbs(g9
Vcontains(sick)
p5340
tp5341
g0
(g15
g2
Ntp5342
Rp5343
(dp5344
g19
F0.5
sg20
I57665
sg21
g22
((dp5345
I00
I57660
sI01
I5
stp5346
Rp5347
sg26
I2
sg27
F57666.0
sbs(g9
Vcontains(depend)
p5348
tp5349
g0
(g15
g2
Ntp5350
Rp5351
(dp5352
g19
F0.5
sg20
I57665
sg21
g22
((dp5353
I00
I57293
sI01
I372
stp5354
Rp5355
sg26
I2
sg27
F57666.0
sbs(g8
Vcontains(last)
p5356
tp5357
g0
(g15
g2
Ntp5358
Rp5359
(dp5360
g19
F0.5
sg20
I17127
sg21
g22
((dp5361
I00
I17095
sI01
I32
stp5362
Rp5363
sg26
I2
sg27
F17128.0
sbs(g10
Vcontains(noth)
p5364
tp5365
g0
(g15
g2
Ntp5366
Rp5367
(dp5368
g19
F0.5
sg20
I94852
sg21
g22
((dp5369
I00
I94625
sI01
I227
stp5370
Rp5371
sg26
I2
sg27
F94853.0
sbs(g10
Vcontains(realli)
p5372
tp5373
g0
(g15
g2
Ntp5374
Rp5375
(dp5376
g19
F0.5
sg20
I94852
sg21
g22
((dp5377
I00
I91759
sI01
I3093
stp5378
Rp5379
sg26
I2
sg27
F94853.0
sbs(g10
Vcontains(okay)
p5380
tp5381
g0
(g15
g2
Ntp5382
Rp5383
(dp5384
g19
F0.5
sg20
I94852
sg21
g22
((dp5385
I00
I94575
sI01
I277
stp5386
Rp5387
sg26
I2
sg27
F94853.0
sbs(g8
Vcontains(like)
p5388
tp5389
g0
(g15
g2
Ntp5390
Rp5391
(dp5392
g19
F0.5
sg20
I17127
sg21
g22
((dp5393
I00
I16800
sI01
I327
stp5394
Rp5395
sg26
I2
sg27
F17128.0
sbs(g8
Vcontains(problem)
p5396
tp5397
g0
(g15
g2
Ntp5398
Rp5399
(dp5400
g19
F0.5
sg20
I17127
sg21
g22
((dp5401
I00
I17018
sI01
I109
stp5402
Rp5403
sg26
I2
sg27
F17128.0
sbs(g8
Vcontains(mundan)
p5404
tp5405
g0
(g15
g2
Ntp5406
Rp5407
(dp5408
g19
F0.5
sg20
I17127
sg21
g22
((dp5409
I00
I17119
sI01
I8
stp5410
Rp5411
sg26
I2
sg27
F17128.0
sbs(g9
Vcontains(critic)
p5412
tp5413
g0
(g15
g2
Ntp5414
Rp5415
(dp5416
g19
F0.5
sg20
I57665
sg21
g22
((dp5417
I00
I57592
sI01
I73
stp5418
Rp5419
sg26
I2
sg27
F57666.0
sbs(g8
Vcontains(award)
p5420
tp5421
g0
(g15
g2
Ntp5422
Rp5423
(dp5424
g19
F0.5
sg20
I17127
sg21
g22
((dp5425
I00
I17126
sI01
I1
stp5426
Rp5427
sg26
I2
sg27
F17128.0
sbs(g8
Vcontains(neg)
p5428
tp5429
g0
(g15
g2
Ntp5430
Rp5431
(dp5432
g19
F0.5
sg20
I17127
sg21
g22
((dp5433
I00
I17016
sI01
I111
stp5434
Rp5435
sg26
I2
sg27
F17128.0
sbs(g9
Vcontains(tight)
p5436
tp5437
g0
(g15
g2
Ntp5438
Rp5439
(dp5440
g19
F0.5
sg20
I57665
sg21
g22
((dp5441
I00
I57643
sI01
I22
stp5442
Rp5443
sg26
I2
sg27
F57666.0
sbs(g8
Vcontains(tri)
p5444
tp5445
g0
(g15
g2
Ntp5446
Rp5447
(dp5448
g19
F0.5
sg20
I17127
sg21
g22
((dp5449
I00
I16975
sI01
I152
stp5450
Rp5451
sg26
I2
sg27
F17128.0
sbs(g10
Vcontains(terribl)
p5452
tp5453
g0
(g15
g2
Ntp5454
Rp5455
(dp5456
g19
F0.5
sg20
I94852
sg21
g22
((dp5457
I00
I94850
sI01
I2
stp5458
Rp5459
sg26
I2
sg27
F94853.0
sbs(g8
Vcontains(honestli)
p5460
tp5461
g0
(g15
g2
Ntp5462
Rp5463
(dp5464
g19
F0.5
sg20
I17127
sg21
g22
((dp5465
I00
I17114
sI01
I13
stp5466
Rp5467
sg26
I2
sg27
F17128.0
sbs(g8
Vcontains(angrili)
p5468
tp5469
g0
(g15
g2
Ntp5470
Rp5471
(dp5472
g19
F0.5
sg20
I17127
sg21
g22
((dp5473
I00
I17127
stp5474
Rp5475
sg26
I1
sg27
F17127.5
sbs(g9
Vcontains(warn)
p5476
tp5477
g0
(g15
g2
Ntp5478
Rp5479
(dp5480
g19
F0.5
sg20
I57665
sg21
g22
((dp5481
I00
I57657
sI01
I8
stp5482
Rp5483
sg26
I2
sg27
F57666.0
sbs(g10
Vcontains(sadli)
p5484
tp5485
g0
(g15
g2
Ntp5486
Rp5487
(dp5488
g19
F0.5
sg20
I94852
sg21
g22
((dp5489
I00
I94847
sI01
I5
stp5490
Rp5491
sg26
I2
sg27
F94853.0
sbs(g8
Vcontains(consist)
p5492
tp5493
g0
(g15
g2
Ntp5494
Rp5495
(dp5496
g19
F0.5
sg20
I17127
sg21
g22
((dp5497
I00
I16894
sI01
I233
stp5498
Rp5499
sg26
I2
sg27
F17128.0
sbs(g10
Vcontains(maintain)
p5500
tp5501
g0
(g15
g2
Ntp5502
Rp5503
(dp5504
g19
F0.5
sg20
I94852
sg21
g22
((dp5505
I00
I94490
sI01
I362
stp5506
Rp5507
sg26
I2
sg27
F94853.0
sbs(g9
Vcontains(activ)
p5508
tp5509
g0
(g15
g2
Ntp5510
Rp5511
(dp5512
g19
F0.5
sg20
I57665
sg21
g22
((dp5513
I00
I57462
sI01
I203
stp5514
Rp5515
sg26
I2
sg27
F57666.0
sbs(g8
Vcontains(product)
p5516
tp5517
g0
(g15
g2
Ntp5518
Rp5519
(dp5520
g19
F0.5
sg20
I17127
sg21
g22
((dp5521
I00
I16952
sI01
I175
stp5522
Rp5523
sg26
I2
sg27
F17128.0
sbs(g8
Vcontains(redund)
p5524
tp5525
g0
(g15
g2
Ntp5526
Rp5527
(dp5528
g19
F0.5
sg20
I17127
sg21
g22
((dp5529
I00
I17116
sI01
I11
stp5530
Rp5531
sg26
I2
sg27
F17128.0
sbs(g10
Vcontains(impress)
p5532
tp5533
g0
(g15
g2
Ntp5534
Rp5535
(dp5536
g19
F0.5
sg20
I94852
sg21
g22
((dp5537
I00
I94673
sI01
I179
stp5538
Rp5539
sg26
I2
sg27
F94853.0
sbs(g9
Vcontains(low)
p5540
tp5541
g0
(g15
g2
Ntp5542
Rp5543
(dp5544
g19
F0.5
sg20
I57665
sg21
g22
((dp5545
I00
I57380
sI01
I285
stp5546
Rp5547
sg26
I2
sg27
F57666.0
sbs(g10
Vcontains(spirit)
p5548
tp5549
g0
(g15
g2
Ntp5550
Rp5551
(dp5552
g19
F0.5
sg20
I94852
sg21
g22
((dp5553
I00
I94791
sI01
I61
stp5554
Rp5555
sg26
I2
sg27
F94853.0
sbs(g9
Vcontains(brilliant)
p5556
tp5557
g0
(g15
g2
Ntp5558
Rp5559
(dp5560
g19
F0.5
sg20
I57665
sg21
g22
((dp5561
I00
I57665
stp5562
Rp5563
sg26
I2
sg27
F57666.0
sbs(g10
Vcontains(neg)
p5564
tp5565
g0
(g15
g2
Ntp5566
Rp5567
(dp5568
g19
F0.5
sg20
I94852
sg21
g22
((dp5569
I00
I94833
sI01
I19
stp5570
Rp5571
sg26
I2
sg27
F94853.0
sbs(g8
Vcontains(posit)
p5572
tp5573
g0
(g15
g2
Ntp5574
Rp5575
(dp5576
g19
F0.5
sg20
I17127
sg21
g22
((dp5577
I00
I16978
sI01
I149
stp5578
Rp5579
sg26
I2
sg27
F17128.0
sbs(g8
Vcontains(past)
p5580
tp5581
g0
(g15
g2
Ntp5582
Rp5583
(dp5584
g19
F0.5
sg20
I17127
sg21
g22
((dp5585
I00
I16948
sI01
I179
stp5586
Rp5587
sg26
I2
sg27
F17128.0
sbs(g10
Vcontains(sorri)
p5588
tp5589
g0
(g15
g2
Ntp5590
Rp5591
(dp5592
g19
F0.5
sg20
I94852
sg21
g22
((dp5593
I00
I94852
stp5594
Rp5595
sg26
I2
sg27
F94853.0
sbs(g8
Vcontains(inconsist)
p5596
tp5597
g0
(g15
g2
Ntp5598
Rp5599
(dp5600
g19
F0.5
sg20
I17127
sg21
g22
((dp5601
I00
I17116
sI01
I11
stp5602
Rp5603
sg26
I2
sg27
F17128.0
sbs(g9
Vcontains(truli)
p5604
tp5605
g0
(g15
g2
Ntp5606
Rp5607
(dp5608
g19
F0.5
sg20
I57665
sg21
g22
((dp5609
I00
I57469
sI01
I196
stp5610
Rp5611
sg26
I2
sg27
F57666.0
sbs(g10
Vcontains(huge)
p5612
tp5613
g0
(g15
g2
Ntp5614
Rp5615
(dp5616
g19
F0.5
sg20
I94852
sg21
g22
((dp5617
I00
I94472
sI01
I380
stp5618
Rp5619
sg26
I2
sg27
F94853.0
sbs(g9
Vcontains(effect)
p5620
tp5621
g0
(g15
g2
Ntp5622
Rp5623
(dp5624
g19
F0.5
sg20
I57665
sg21
g22
((dp5625
I00
I57641
sI01
I24
stp5626
Rp5627
sg26
I2
sg27
F57666.0
sbs(g9
Vcontains(happi)
p5628
tp5629
g0
(g15
g2
Ntp5630
Rp5631
(dp5632
g19
F0.5
sg20
I57665
sg21
g22
((dp5633
I00
I57665
stp5634
Rp5635
sg26
I2
sg27
F57666.0
sbs(g10
Vcontains(tri)
p5636
tp5637
g0
(g15
g2
Ntp5638
Rp5639
(dp5640
g19
F0.5
sg20
I94852
sg21
g22
((dp5641
I00
I94450
sI01
I402
stp5642
Rp5643
sg26
I2
sg27
F94853.0
sbs(g8
Vcontains(fun)
p5644
tp5645
g0
(g15
g2
Ntp5646
Rp5647
(dp5648
g19
F0.5
sg20
I17127
sg21
g22
((dp5649
I00
I17108
sI01
I19
stp5650
Rp5651
sg26
I2
sg27
F17128.0
sbs(g8
Vcontains(depress)
p5652
tp5653
g0
(g15
g2
Ntp5654
Rp5655
(dp5656
g19
F0.5
sg20
I17127
sg21
g22
((dp5657
I00
I17116
sI01
I11
stp5658
Rp5659
sg26
I2
sg27
F17128.0
sbs(g8
Vcontains(bore)
p5660
tp5661
g0
(g15
g2
Ntp5662
Rp5663
(dp5664
g19
F0.5
sg20
I17127
sg21
g22
((dp5665
I00
I16991
sI01
I136
stp5666
Rp5667
sg26
I2
sg27
F17128.0
sbs(g8
Vcontains(difficult)
p5668
tp5669
g0
(g15
g2
Ntp5670
Rp5671
(dp5672
g19
F0.5
sg20
I17127
sg21
g22
((dp5673
I00
I16263
sI01
I864
stp5674
Rp5675
sg26
I2
sg27
F17128.0
sbs(g10
Vcontains(consist)
p5676
tp5677
g0
(g15
g2
Ntp5678
Rp5679
(dp5680
g19
F0.5
sg20
I94852
sg21
g22
((dp5681
I00
I94559
sI01
I293
stp5682
Rp5683
sg26
I2
sg27
F94853.0
sbs(g8
Vcontains(welcom)
p5684
tp5685
g0
(g15
g2
Ntp5686
Rp5687
(dp5688
g19
F0.5
sg20
I17127
sg21
g22
((dp5689
I00
I17120
sI01
I7
stp5690
Rp5691
sg26
I2
sg27
F17128.0
sbs(g8
Vcontains(wise)
p5692
tp5693
g0
(g15
g2
Ntp5694
Rp5695
(dp5696
g19
F0.5
sg20
I17127
sg21
g22
((dp5697
I00
I17124
sI01
I3
stp5698
Rp5699
sg26
I2
sg27
F17128.0
sbs(g10
Vcontains(warn)
p5700
tp5701
g0
(g15
g2
Ntp5702
Rp5703
(dp5704
g19
F0.5
sg20
I94852
sg21
g22
((dp5705
I00
I94840
sI01
I12
stp5706
Rp5707
sg26
I2
sg27
F94853.0
sbs(g10
Vcontains(greatest)
p5708
tp5709
g0
(g15
g2
Ntp5710
Rp5711
(dp5712
g19
F0.5
sg20
I94852
sg21
g22
((dp5713
I00
I94730
sI01
I122
stp5714
Rp5715
sg26
I2
sg27
F94853.0
sbs(g9
Vcontains(shi)
p5716
tp5717
g0
(g15
g2
Ntp5718
Rp5719
(dp5720
g19
F0.5
sg20
I57665
sg21
g22
((dp5721
I00
I57665
stp5722
Rp5723
sg26
I2
sg27
F57666.0
sbs(g9
Vcontains(great)
p5724
tp5725
g0
(g15
g2
Ntp5726
Rp5727
(dp5728
g19
F0.5
sg20
I57665
sg21
g22
((dp5729
I00
I57629
sI01
I36
stp5730
Rp5731
sg26
I2
sg27
F57666.0
sbs(g9
Vcontains(good)
p5732
tp5733
g0
(g15
g2
Ntp5734
Rp5735
(dp5736
g19
F0.5
sg20
I57665
sg21
g22
((dp5737
I00
I57547
sI01
I118
stp5738
Rp5739
sg26
I2
sg27
F57666.0
sbs(g10
Vcontains(highli)
p5740
tp5741
g0
(g15
g2
Ntp5742
Rp5743
(dp5744
g19
F0.5
sg20
I94852
sg21
g22
((dp5745
I00
I94188
sI01
I664
stp5746
Rp5747
sg26
I2
sg27
F94853.0
sbs(g8
Vcontains(harsh)
p5748
tp5749
g0
(g15
g2
Ntp5750
Rp5751
(dp5752
g19
F0.5
sg20
I17127
sg21
g22
((dp5753
I00
I17103
sI01
I24
stp5754
Rp5755
sg26
I2
sg27
F17128.0
sbs(g8
Vcontains(perk)
p5756
tp5757
g0
(g15
g2
Ntp5758
Rp5759
(dp5760
g19
F0.5
sg20
I17127
sg21
g22
((dp5761
I00
I17118
sI01
I9
stp5762
Rp5763
sg26
I2
sg27
F17128.0
sbs(g10
Vcontains(brilliant)
p5764
tp5765
g0
(g15
g2
Ntp5766
Rp5767
(dp5768
g19
F0.5
sg20
I94852
sg21
g22
((dp5769
I00
I94712
sI01
I140
stp5770
Rp5771
sg26
I2
sg27
F94853.0
sbs(g10
Vcontains(uncomfort)
p5772
tp5773
g0
(g15
g2
Ntp5774
Rp5775
(dp5776
g19
F0.5
sg20
I94852
sg21
g22
((dp5777
I00
I94851
sI01
I1
stp5778
Rp5779
sg26
I2
sg27
F94853.0
sbs(g10
Vcontains(disturb)
p5780
tp5781
g0
(g15
g2
Ntp5782
Rp5783
(dp5784
g19
F0.5
sg20
I94852
sg21
g22
((dp5785
I00
I94851
sI01
I1
stp5786
Rp5787
sg26
I2
sg27
F94853.0
sbs(g9
Vcontains(limit)
p5788
tp5789
g0
(g15
g2
Ntp5790
Rp5791
(dp5792
g19
F0.5
sg20
I57665
sg21
g22
((dp5793
I00
I57482
sI01
I183
stp5794
Rp5795
sg26
I2
sg27
F57666.0
sbs(g9
Vcontains(friend)
p5796
tp5797
g0
(g15
g2
Ntp5798
Rp5799
(dp5800
g19
F0.5
sg20
I57665
sg21
g22
((dp5801
I00
I57564
sI01
I101
stp5802
Rp5803
sg26
I2
sg27
F57666.0
sbs(g8
Vcontains(fair)
p5804
tp5805
g0
(g15
g2
Ntp5806
Rp5807
(dp5808
g19
F0.5
sg20
I17127
sg21
g22
((dp5809
I00
I17125
sI01
I2
stp5810
Rp5811
sg26
I2
sg27
F17128.0
sbs(g8
Vcontains(harass)
p5812
tp5813
g0
(g15
g2
Ntp5814
Rp5815
(dp5816
g19
F0.5
sg20
I17127
sg21
g22
((dp5817
I00
I17124
sI01
I3
stp5818
Rp5819
sg26
I2
sg27
F17128.0
sbs(g8
Vcontains(toughest)
p5820
tp5821
g0
(g15
g2
Ntp5822
Rp5823
(dp5824
g19
F0.5
sg20
I17127
sg21
g22
((dp5825
I00
I17120
sI01
I7
stp5826
Rp5827
sg26
I2
sg27
F17128.0
sbs(g9
Vcontains(innov)
p5828
tp5829
g0
(g15
g2
Ntp5830
Rp5831
(dp5832
g19
F0.5
sg20
I57665
sg21
g22
((dp5833
I00
I57614
sI01
I51
stp5834
Rp5835
sg26
I2
sg27
F57666.0
sbs(g8
Vcontains(mad)
p5836
tp5837
g0
(g15
g2
Ntp5838
Rp5839
(dp5840
g19
F0.5
sg20
I17127
sg21
g22
((dp5841
I00
I17102
sI01
I25
stp5842
Rp5843
sg26
I2
sg27
F17128.0
sbs(g8
Vcontains(opportun)
p5844
tp5845
g0
(g15
g2
Ntp5846
Rp5847
(dp5848
g19
F0.5
sg20
I17127
sg21
g22
((dp5849
I00
I16958
sI01
I169
stp5850
Rp5851
sg26
I2
sg27
F17128.0
sbs(g10
Vcontains(toughest)
p5852
tp5853
g0
(g15
g2
Ntp5854
Rp5855
(dp5856
g19
F0.5
sg20
I94852
sg21
g22
((dp5857
I00
I94835
sI01
I17
stp5858
Rp5859
sg26
I2
sg27
F94853.0
sbs(g10
Vcontains(heartless)
p5860
tp5861
g0
(g15
g2
Ntp5862
Rp5863
(dp5864
g19
F0.5
sg20
I94852
sg21
g22
((dp5865
I00
I94852
stp5866
Rp5867
sg26
I2
sg27
F94853.0
sbs(g10
Vcontains(broken)
p5868
tp5869
g0
(g15
g2
Ntp5870
Rp5871
(dp5872
g19
F0.5
sg20
I94852
sg21
g22
((dp5873
I00
I94852
stp5874
Rp5875
sg26
I2
sg27
F94853.0
sbs(g10
Vcontains(busi)
p5876
tp5877
g0
(g15
g2
Ntp5878
Rp5879
(dp5880
g19
F0.5
sg20
I94852
sg21
g22
((dp5881
I00
I93502
sI01
I1350
stp5882
Rp5883
sg26
I2
sg27
F94853.0
sbs(g9
Vcontains(ill)
p5884
tp5885
g0
(g15
g2
Ntp5886
Rp5887
(dp5888
g19
F0.5
sg20
I57665
sg21
g22
((dp5889
I00
I57659
sI01
I6
stp5890
Rp5891
sg26
I2
sg27
F57666.0
sbs(g9
Vcontains(struggl)
p5892
tp5893
g0
(g15
g2
Ntp5894
Rp5895
(dp5896
g19
F0.5
sg20
I57665
sg21
g22
((dp5897
I00
I57624
sI01
I41
stp5898
Rp5899
sg26
I2
sg27
F57666.0
sbs(g10
Vcontains(past)
p5900
tp5901
g0
(g15
g2
Ntp5902
Rp5903
(dp5904
g19
F0.5
sg20
I94852
sg21
g22
((dp5905
I00
I94750
sI01
I102
stp5906
Rp5907
sg26
I2
sg27
F94853.0
sbs(g8
Vcontains(mind)
p5908
tp5909
g0
(g15
g2
Ntp5910
Rp5911
(dp5912
g19
F0.5
sg20
I17127
sg21
g22
((dp5913
I00
I17092
sI01
I35
stp5914
Rp5915
sg26
I2
sg27
F17128.0
sbs(g9
Vcontains(stabl)
p5916
tp5917
g0
(g15
g2
Ntp5918
Rp5919
(dp5920
g19
F0.5
sg20
I57665
sg21
g22
((dp5921
I00
I57637
sI01
I28
stp5922
Rp5923
sg26
I2
sg27
F57666.0
sbs(g10
Vcontains(support)
p5924
tp5925
g0
(g15
g2
Ntp5926
Rp5927
(dp5928
g19
F0.5
sg20
I94852
sg21
g22
((dp5929
I00
I92908
sI01
I1944
stp5930
Rp5931
sg26
I2
sg27
F94853.0
sbs(g10
Vcontains(suitabl)
p5932
tp5933
g0
(g15
g2
Ntp5934
Rp5935
(dp5936
g19
F0.5
sg20
I94852
sg21
g22
((dp5937
I00
I94818
sI01
I34
stp5938
Rp5939
sg26
I2
sg27
F94853.0
sbs(g10
Vcontains(crazi)
p5940
tp5941
g0
(g15
g2
Ntp5942
Rp5943
(dp5944
g19
F0.5
sg20
I94852
sg21
g22
((dp5945
I00
I94849
sI01
I3
stp5946
Rp5947
sg26
I2
sg27
F94853.0
sbs(g10
Vcontains(recommend)
p5948
tp5949
g0
(g15
g2
Ntp5950
Rp5951
(dp5952
g19
F0.5
sg20
I94852
sg21
g22
((dp5953
I00
I94650
sI01
I202
stp5954
Rp5955
sg26
I2
sg27
F94853.0
sbs(g10
Vcontains(critic)
p5956
tp5957
g0
(g15
g2
Ntp5958
Rp5959
(dp5960
g19
F0.5
sg20
I94852
sg21
g22
((dp5961
I00
I94794
sI01
I58
stp5962
Rp5963
sg26
I2
sg27
F94853.0
sbs(g9
Vcontains(sadli)
p5964
tp5965
g0
(g15
g2
Ntp5966
Rp5967
(dp5968
g19
F0.5
sg20
I57665
sg21
g22
((dp5969
I00
I57665
stp5970
Rp5971
sg26
I2
sg27
F57666.0
sbs(g10
Vcontains(disadvantag)
p5972
tp5973
g0
(g15
g2
Ntp5974
Rp5975
(dp5976
g19
F0.5
sg20
I94852
sg21
g22
((dp5977
I00
I94849
sI01
I3
stp5978
Rp5979
sg26
I2
sg27
F94853.0
sbs(g10
Vcontains(minimum)
p5980
tp5981
g0
(g15
g2
Ntp5982
Rp5983
(dp5984
g19
F0.5
sg20
I94852
sg21
g22
((dp5985
I00
I94808
sI01
I44
stp5986
Rp5987
sg26
I2
sg27
F94853.0
sbs(g10
Vcontains(provid)
p5988
tp5989
g0
(g15
g2
Ntp5990
Rp5991
(dp5992
g19
F0.5
sg20
I94852
sg21
g22
((dp5993
I00
I93064
sI01
I1788
stp5994
Rp5995
sg26
I2
sg27
F94853.0
sbs(g8
Vcontains(slowli)
p5996
tp5997
g0
(g15
g2
Ntp5998
Rp5999
(dp6000
g19
F0.5
sg20
I17127
sg21
g22
((dp6001
I00
I17102
sI01
I25
stp6002
Rp6003
sg26
I2
sg27
F17128.0
sbs(g10
Vcontains(freedom)
p6004
tp6005
g0
(g15
g2
Ntp6006
Rp6007
(dp6008
g19
F0.5
sg20
I94852
sg21
g22
((dp6009
I00
I94740
sI01
I112
stp6010
Rp6011
sg26
I2
sg27
F94853.0
sbs(g10
Vcontains(relax)
p6012
tp6013
g0
(g15
g2
Ntp6014
Rp6015
(dp6016
g19
F0.5
sg20
I94852
sg21
g22
((dp6017
I00
I94790
sI01
I62
stp6018
Rp6019
sg26
I2
sg27
F94853.0
sbs(g10
Vcontains(friend)
p6020
tp6021
g0
(g15
g2
Ntp6022
Rp6023
(dp6024
g19
F0.5
sg20
I94852
sg21
g22
((dp6025
I00
I94468
sI01
I384
stp6026
Rp6027
sg26
I2
sg27
F94853.0
sbs(g8
Vcontains(lose)
p6028
tp6029
g0
(g15
g2
Ntp6030
Rp6031
(dp6032
g19
F0.5
sg20
I17127
sg21
g22
((dp6033
I00
I17122
sI01
I5
stp6034
Rp6035
sg26
I2
sg27
F17128.0
sbs(g8
Vcontains(mentor)
p6036
tp6037
g0
(g15
g2
Ntp6038
Rp6039
(dp6040
g19
F0.5
sg20
I17127
sg21
g22
((dp6041
I00
I17121
sI01
I6
stp6042
Rp6043
sg26
I2
sg27
F17128.0
sbs(g8
Vcontains(pleasur)
p6044
tp6045
g0
(g15
g2
Ntp6046
Rp6047
(dp6048
g19
F0.5
sg20
I17127
sg21
g22
((dp6049
I00
I17125
sI01
I2
stp6050
Rp6051
sg26
I2
sg27
F17128.0
sbs(g8
Vcontains(hardli)
p6052
tp6053
g0
(g15
g2
Ntp6054
Rp6055
(dp6056
g19
F0.5
sg20
I17127
sg21
g22
((dp6057
I00
I17075
sI01
I52
stp6058
Rp6059
sg26
I2
sg27
F17128.0
sbs(g9
Vcontains(succeed)
p6060
tp6061
g0
(g15
g2
Ntp6062
Rp6063
(dp6064
g19
F0.5
sg20
I57665
sg21
g22
((dp6065
I00
I57627
sI01
I38
stp6066
Rp6067
sg26
I2
sg27
F57666.0
sbs(g8
Vcontains(gave)
p6068
tp6069
g0
(g15
g2
Ntp6070
Rp6071
(dp6072
g19
F0.5
sg20
I17127
sg21
g22
((dp6073
I00
I17100
sI01
I27
stp6074
Rp6075
sg26
I2
sg27
F17128.0
sbs(g8
Vcontains(fresh)
p6076
tp6077
g0
(g15
g2
Ntp6078
Rp6079
(dp6080
g19
F0.5
sg20
I17127
sg21
g22
((dp6081
I00
I17123
sI01
I4
stp6082
Rp6083
sg26
I2
sg27
F17128.0
sbs(g8
Vcontains(cool)
p6084
tp6085
g0
(g15
g2
Ntp6086
Rp6087
(dp6088
g19
F0.5
sg20
I17127
sg21
g22
((dp6089
I00
I17126
sI01
I1
stp6090
Rp6091
sg26
I2
sg27
F17128.0
sbs(g8
Vcontains(hate)
p6092
tp6093
g0
(g15
g2
Ntp6094
Rp6095
(dp6096
g19
F0.5
sg20
I17127
sg21
g22
((dp6097
I00
I17030
sI01
I97
stp6098
Rp6099
sg26
I2
sg27
F17128.0
sbs(g9
Vcontains(perfect)
p6100
tp6101
g0
(g15
g2
Ntp6102
Rp6103
(dp6104
g19
F0.5
sg20
I57665
sg21
g22
((dp6105
I00
I57654
sI01
I11
stp6106
Rp6107
sg26
I2
sg27
F57666.0
sbs(g8
Vcontains(spirit)
p6108
tp6109
g0
(g15
g2
Ntp6110
Rp6111
(dp6112
g19
F0.5
sg20
I17127
sg21
g22
((dp6113
I00
I17125
sI01
I2
stp6114
Rp6115
sg26
I2
sg27
F17128.0
sbs(g8
Vcontains(failur)
p6116
tp6117
g0
(g15
g2
Ntp6118
Rp6119
(dp6120
g19
F0.5
sg20
I17127
sg21
g22
((dp6121
I00
I17100
sI01
I27
stp6122
Rp6123
sg26
I2
sg27
F17128.0
sbs(g10
Vcontains(shift)
p6124
tp6125
g0
(g15
g2
Ntp6126
Rp6127
(dp6128
g19
F0.5
sg20
I94852
sg21
g22
((dp6129
I00
I94130
sI01
I722
stp6130
Rp6131
sg26
I2
sg27
F94853.0
sbs(g10
Vcontains(failur)
p6132
tp6133
g0
(g15
g2
Ntp6134
Rp6135
(dp6136
g19
F0.5
sg20
I94852
sg21
g22
((dp6137
I00
I94850
sI01
I2
stp6138
Rp6139
sg26
I2
sg27
F94853.0
sbs(g9
Vcontains(patienc)
p6140
tp6141
g0
(g15
g2
Ntp6142
Rp6143
(dp6144
g19
F0.5
sg20
I57665
sg21
g22
((dp6145
I00
I57626
sI01
I39
stp6146
Rp6147
sg26
I2
sg27
F57666.0
sbs(g10
Vcontains(wish)
p6148
tp6149
g0
(g15
g2
Ntp6150
Rp6151
(dp6152
g19
F0.5
sg20
I94852
sg21
g22
((dp6153
I00
I94741
sI01
I111
stp6154
Rp6155
sg26
I2
sg27
F94853.0
sbs(g8
Vcontains(overtim)
p6156
tp6157
g0
(g15
g2
Ntp6158
Rp6159
(dp6160
g19
F0.5
sg20
I17127
sg21
g22
((dp6161
I00
I17051
sI01
I76
stp6162
Rp6163
sg26
I2
sg27
F17128.0
sbs(g9
Vcontains(recommend)
p6164
tp6165
g0
(g15
g2
Ntp6166
Rp6167
(dp6168
g19
F0.5
sg20
I57665
sg21
g22
((dp6169
I00
I57474
sI01
I191
stp6170
Rp6171
sg26
I2
sg27
F57666.0
sbs(g8
Vcontains(empti)
p6172
tp6173
g0
(g15
g2
Ntp6174
Rp6175
(dp6176
g19
F0.5
sg20
I17127
sg21
g22
((dp6177
I00
I17108
sI01
I19
stp6178
Rp6179
sg26
I2
sg27
F17128.0
sbs(g8
Vcontains(amaz)
p6180
tp6181
g0
(g15
g2
Ntp6182
Rp6183
(dp6184
g19
F0.5
sg20
I17127
sg21
g22
((dp6185
I00
I17127
stp6186
Rp6187
sg26
I2
sg27
F17128.0
sbs(g9
Vcontains(fast)
p6188
tp6189
g0
(g15
g2
Ntp6190
Rp6191
(dp6192
g19
F0.5
sg20
I57665
sg21
g22
((dp6193
I00
I57512
sI01
I153
stp6194
Rp6195
sg26
I2
sg27
F57666.0
sbs(g10
Vcontains(tediou)
p6196
tp6197
g0
(g15
g2
Ntp6198
Rp6199
(dp6200
g19
F0.5
sg20
I94852
sg21
g22
((dp6201
I00
I94852
stp6202
Rp6203
sg26
I2
sg27
F94853.0
sbs(g9
Vcontains(enthusiast)
p6204
tp6205
g0
(g15
g2
Ntp6206
Rp6207
(dp6208
g19
F0.5
sg20
I57665
sg21
g22
((dp6209
I00
I57660
sI01
I5
stp6210
Rp6211
sg26
I2
sg27
F57666.0
sbs(g10
Vcontains(dirti)
p6212
tp6213
g0
(g15
g2
Ntp6214
Rp6215
(dp6216
g19
F0.5
sg20
I94852
sg21
g22
((dp6217
I00
I94852
stp6218
Rp6219
sg26
I2
sg27
F94853.0
sbs(g8
Vcontains(lazi)
p6220
tp6221
g0
(g15
g2
Ntp6222
Rp6223
(dp6224
g19
F0.5
sg20
I17127
sg21
g22
((dp6225
I00
I17081
sI01
I46
stp6226
Rp6227
sg26
I2
sg27
F17128.0
sbs(g10
Vcontains(enthusiast)
p6228
tp6229
g0
(g15
g2
Ntp6230
Rp6231
(dp6232
g19
F0.5
sg20
I94852
sg21
g22
((dp6233
I00
I94810
sI01
I42
stp6234
Rp6235
sg26
I2
sg27
F94853.0
sbs(g8
Vcontains(decreas)
p6236
tp6237
g0
(g15
g2
Ntp6238
Rp6239
(dp6240
g19
F0.5
sg20
I17127
sg21
g22
((dp6241
I00
I17121
sI01
I6
stp6242
Rp6243
sg26
I2
sg27
F17128.0
sbs(g10
Vcontains(lose)
p6244
tp6245
g0
(g15
g2
Ntp6246
Rp6247
(dp6248
g19
F0.5
sg20
I94852
sg21
g22
((dp6249
I00
I94828
sI01
I24
stp6250
Rp6251
sg26
I2
sg27
F94853.0
sbs(g8
Vcontains(luck)
p6252
tp6253
g0
(g15
g2
Ntp6254
Rp6255
(dp6256
g19
F0.5
sg20
I17127
sg21
g22
((dp6257
I00
I17124
sI01
I3
stp6258
Rp6259
sg26
I2
sg27
F17128.0
sbs(g10
Vcontains(affect)
p6260
tp6261
g0
(g15
g2
Ntp6262
Rp6263
(dp6264
g19
F0.5
sg20
I94852
sg21
g22
((dp6265
I00
I94815
sI01
I37
stp6266
Rp6267
sg26
I2
sg27
F94853.0
sbs(g10
Vcontains(interest)
p6268
tp6269
g0
(g15
g2
Ntp6270
Rp6271
(dp6272
g19
F0.5
sg20
I94852
sg21
g22
((dp6273
I00
I94111
sI01
I741
stp6274
Rp6275
sg26
I2
sg27
F94853.0
sbs(g10
Vcontains(sad)
p6276
tp6277
g0
(g15
g2
Ntp6278
Rp6279
(dp6280
g19
F0.5
sg20
I94852
sg21
g22
((dp6281
I00
I94847
sI01
I5
stp6282
Rp6283
sg26
I2
sg27
F94853.0
sbs(g9
Vcontains(relax)
p6284
tp6285
g0
(g15
g2
Ntp6286
Rp6287
(dp6288
g19
F0.5
sg20
I57665
sg21
g22
((dp6289
I00
I57597
sI01
I68
stp6290
Rp6291
sg26
I2
sg27
F57666.0
sbs(g9
Vcontains(noth)
p6292
tp6293
g0
(g15
g2
Ntp6294
Rp6295
(dp6296
g19
F0.5
sg20
I57665
sg21
g22
((dp6297
I00
I57575
sI01
I90
stp6298
Rp6299
sg26
I2
sg27
F57666.0
sbs(g10
Vcontains(minim)
p6300
tp6301
g0
(g15
g2
Ntp6302
Rp6303
(dp6304
g19
F0.5
sg20
I94852
sg21
g22
((dp6305
I00
I94823
sI01
I29
stp6306
Rp6307
sg26
I2
sg27
F94853.0
sbs(g9
Vcontains(realli)
p6308
tp6309
g0
(g15
g2
Ntp6310
Rp6311
(dp6312
g19
F0.5
sg20
I57665
sg21
g22
((dp6313
I00
I57496
sI01
I169
stp6314
Rp6315
sg26
I2
sg27
F57666.0
sbs(g10
Vcontains(comfort)
p6316
tp6317
g0
(g15
g2
Ntp6318
Rp6319
(dp6320
g19
F0.5
sg20
I94852
sg21
g22
((dp6321
I00
I94581
sI01
I271
stp6322
Rp6323
sg26
I2
sg27
F94853.0
sbs(g9
Vcontains(execut)
p6324
tp6325
g0
(g15
g2
Ntp6326
Rp6327
(dp6328
g19
F0.5
sg20
I57665
sg21
g22
((dp6329
I00
I57212
sI01
I453
stp6330
Rp6331
sg26
I2
sg27
F57666.0
sbs(g8
Vcontains(troubl)
p6332
tp6333
g0
(g15
g2
Ntp6334
Rp6335
(dp6336
g19
F0.5
sg20
I17127
sg21
g22
((dp6337
I00
I17038
sI01
I89
stp6338
Rp6339
sg26
I2
sg27
F17128.0
sbs(g10
Vcontains(activ)
p6340
tp6341
g0
(g15
g2
Ntp6342
Rp6343
(dp6344
g19
F0.5
sg20
I94852
sg21
g22
((dp6345
I00
I94423
sI01
I429
stp6346
Rp6347
sg26
I2
sg27
F94853.0
sbs(g8
Vcontains(expens)
p6348
tp6349
g0
(g15
g2
Ntp6350
Rp6351
(dp6352
g19
F0.5
sg20
I17127
sg21
g22
((dp6353
I00
I17098
sI01
I29
stp6354
Rp6355
sg26
I2
sg27
F17128.0
sbs(g8
Vcontains(wrong)
p6356
tp6357
g0
(g15
g2
Ntp6358
Rp6359
(dp6360
g19
F0.5
sg20
I17127
sg21
g22
((dp6361
I00
I17004
sI01
I123
stp6362
Rp6363
sg26
I2
sg27
F17128.0
sbs(g10
Vcontains(happi)
p6364
tp6365
g0
(g15
g2
Ntp6366
Rp6367
(dp6368
g19
F0.5
sg20
I94852
sg21
g22
((dp6369
I00
I94083
sI01
I769
stp6370
Rp6371
sg26
I2
sg27
F94853.0
sbs(g8
Vcontains(kind)
p6372
tp6373
g0
(g15
g2
Ntp6374
Rp6375
(dp6376
g19
F0.5
sg20
I17127
sg21
g22
((dp6377
I00
I17115
sI01
I12
stp6378
Rp6379
sg26
I2
sg27
F17128.0
sbs(g10
Vcontains(apprais)
p6380
tp6381
g0
(g15
g2
Ntp6382
Rp6383
(dp6384
g19
F0.5
sg20
I94852
sg21
g22
((dp6385
I00
I94791
sI01
I61
stp6386
Rp6387
sg26
I2
sg27
F94853.0
sbs(g8
Vcontains(incred)
p6388
tp6389
g0
(g15
g2
Ntp6390
Rp6391
(dp6392
g19
F0.5
sg20
I17127
sg21
g22
((dp6393
I00
I17119
sI01
I8
stp6394
Rp6395
sg26
I2
sg27
F17128.0
sbs(g9
Vcontains(heartless)
p6396
tp6397
g0
(g15
g2
Ntp6398
Rp6399
(dp6400
g19
F0.5
sg20
I57665
sg21
g22
((dp6401
I00
I57660
sI01
I5
stp6402
Rp6403
sg26
I2
sg27
F57666.0
sbs(g9
Vcontains(mad)
p6404
tp6405
g0
(g15
g2
Ntp6406
Rp6407
(dp6408
g19
F0.5
sg20
I57665
sg21
g22
((dp6409
I00
I57665
stp6410
Rp6411
sg26
I2
sg27
F57666.0
sbs(g8
Vcontains(realli)
p6412
tp6413
g0
(g15
g2
Ntp6414
Rp6415
(dp6416
g19
F0.5
sg20
I17127
sg21
g22
((dp6417
I00
I16867
sI01
I260
stp6418
Rp6419
sg26
I2
sg27
F17128.0
sbs(g9
Vcontains(incent)
p6420
tp6421
g0
(g15
g2
Ntp6422
Rp6423
(dp6424
g19
F0.5
sg20
I57665
sg21
g22
((dp6425
I00
I57577
sI01
I88
stp6426
Rp6427
sg26
I2
sg27
F57666.0
sbs(g9
Vcontains(excess)
p6428
tp6429
g0
(g15
g2
Ntp6430
Rp6431
(dp6432
g19
F0.5
sg20
I57665
sg21
g22
((dp6433
I00
I57662
sI01
I3
stp6434
Rp6435
sg26
I2
sg27
F57666.0
sbs(g9
Vcontains(wish)
p6436
tp6437
g0
(g15
g2
Ntp6438
Rp6439
(dp6440
g19
F0.5
sg20
I57665
sg21
g22
((dp6441
I00
I57602
sI01
I63
stp6442
Rp6443
sg26
I2
sg27
F57666.0
sbs(g8
Vcontains(cannot)
p6444
tp6445
g0
(g15
g2
Ntp6446
Rp6447
(dp6448
g19
F0.5
sg20
I17127
sg21
g22
((dp6449
I00
I17117
sI01
I10
stp6450
Rp6451
sg26
I2
sg27
F17128.0
sbs(g10
Vcontains(ethic)
p6452
tp6453
g0
(g15
g2
Ntp6454
Rp6455
(dp6456
g19
F0.5
sg20
I94852
sg21
g22
((dp6457
I00
I94563
sI01
I289
stp6458
Rp6459
sg26
I2
sg27
F94853.0
sbs(g8
Vcontains(stupid)
p6460
tp6461
g0
(g15
g2
Ntp6462
Rp6463
(dp6464
g19
F0.5
sg20
I17127
sg21
g22
((dp6465
I00
I17107
sI01
I20
stp6466
Rp6467
sg26
I2
sg27
F17128.0
sbs(g8
Vcontains(complic)
p6468
tp6469
g0
(g15
g2
Ntp6470
Rp6471
(dp6472
g19
F0.5
sg20
I17127
sg21
g22
((dp6473
I00
I17079
sI01
I48
stp6474
Rp6475
sg26
I2
sg27
F17128.0
sbs(g9
Vcontains(slow)
p6476
tp6477
g0
(g15
g2
Ntp6478
Rp6479
(dp6480
g19
F0.5
sg20
I57665
sg21
g22
((dp6481
I00
I57640
sI01
I25
stp6482
Rp6483
sg26
I2
sg27
F57666.0
sbs(g9
Vcontains(sorri)
p6484
tp6485
g0
(g15
g2
Ntp6486
Rp6487
(dp6488
g19
F0.5
sg20
I57665
sg21
g22
((dp6489
I00
I57664
sI01
I1
stp6490
Rp6491
sg26
I2
sg27
F57666.0
sbs(g9
Vcontains(affect)
p6492
tp6493
g0
(g15
g2
Ntp6494
Rp6495
(dp6496
g19
F0.5
sg20
I57665
sg21
g22
((dp6497
I00
I57640
sI01
I25
stp6498
Rp6499
sg26
I2
sg27
F57666.0
sbs(g10
Vcontains(well)
p6500
tp6501
g0
(g15
g2
Ntp6502
Rp6503
(dp6504
g19
F0.5
sg20
I94852
sg21
g22
((dp6505
I00
I93544
sI01
I1308
stp6506
Rp6507
sg26
I2
sg27
F94853.0
sbs(g8
Vcontains(quit)
p6508
tp6509
g0
(g15
g2
Ntp6510
Rp6511
(dp6512
g19
F0.5
sg20
I17127
sg21
g22
((dp6513
I00
I17054
sI01
I73
stp6514
Rp6515
sg26
I2
sg27
F17128.0
sbs(g8
Vcontains(profession)
p6516
tp6517
g0
(g15
g2
Ntp6518
Rp6519
(dp6520
g19
F0.5
sg20
I17127
sg21
g22
((dp6521
I00
I17106
sI01
I21
stp6522
Rp6523
sg26
I2
sg27
F17128.0
sbs(g9
Vcontains(cool)
p6524
tp6525
g0
(g15
g2
Ntp6526
Rp6527
(dp6528
g19
F0.5
sg20
I57665
sg21
g22
((dp6529
I00
I57657
sI01
I8
stp6530
Rp6531
sg26
I2
sg27
F57666.0
sbs(g10
Vcontains(execut)
p6532
tp6533
g0
(g15
g2
Ntp6534
Rp6535
(dp6536
g19
F0.5
sg20
I94852
sg21
g22
((dp6537
I00
I94692
sI01
I160
stp6538
Rp6539
sg26
I2
sg27
F94853.0
sbs(g8
Vcontains(imposs)
p6540
tp6541
g0
(g15
g2
Ntp6542
Rp6543
(dp6544
g19
F0.5
sg20
I17127
sg21
g22
((dp6545
I00
I16974
sI01
I153
stp6546
Rp6547
sg26
I2
sg27
F17128.0
sbs(g9
Vcontains(huge)
p6548
tp6549
g0
(g15
g2
Ntp6550
Rp6551
(dp6552
g19
F0.5
sg20
I57665
sg21
g22
((dp6553
I00
I57648
sI01
I17
stp6554
Rp6555
sg26
I2
sg27
F57666.0
sbs(g9
Vcontains(develop)
p6556
tp6557
g0
(g15
g2
Ntp6558
Rp6559
(dp6560
g19
F0.5
sg20
I57665
sg21
g22
((dp6561
I00
I56706
sI01
I959
stp6562
Rp6563
sg26
I2
sg27
F57666.0
sbs(g8
Vcontains(smart)
p6564
tp6565
g0
(g15
g2
Ntp6566
Rp6567
(dp6568
g19
F0.5
sg20
I17127
sg21
g22
((dp6569
I00
I17126
sI01
I1
stp6570
Rp6571
sg26
I2
sg27
F17128.0
sbs(g10
Vcontains(unrealist)
p6572
tp6573
g0
(g15
g2
Ntp6574
Rp6575
(dp6576
g19
F0.5
sg20
I94852
sg21
g22
((dp6577
I00
I94850
sI01
I2
stp6578
Rp6579
sg26
I2
sg27
F94853.0
sbs(g8
Vcontains(sick)
p6580
tp6581
g0
(g15
g2
Ntp6582
Rp6583
(dp6584
g19
F0.5
sg20
I17127
sg21
g22
((dp6585
I00
I17023
sI01
I104
stp6586
Rp6587
sg26
I2
sg27
F17128.0
sbs(g10
Vcontains(wonder)
p6588
tp6589
g0
(g15
g2
Ntp6590
Rp6591
(dp6592
g19
F0.5
sg20
I94852
sg21
g22
((dp6593
I00
I94016
sI01
I836
stp6594
Rp6595
sg26
I2
sg27
F94853.0
sbs(g10
Vcontains(unhappi)
p6596
tp6597
g0
(g15
g2
Ntp6598
Rp6599
(dp6600
g19
F0.5
sg20
I94852
sg21
g22
((dp6601
I00
I94848
sI01
I4
stp6602
Rp6603
sg26
I2
sg27
F94853.0
sbs(g8
Vcontains(simpl)
p6604
tp6605
g0
(g15
g2
Ntp6606
Rp6607
(dp6608
g19
F0.5
sg20
I17127
sg21
g22
((dp6609
I00
I17116
sI01
I11
stp6610
Rp6611
sg26
I2
sg27
F17128.0
sbs(g9
Vcontains(broken)
p6612
tp6613
g0
(g15
g2
Ntp6614
Rp6615
(dp6616
g19
F0.5
sg20
I57665
sg21
g22
((dp6617
I00
I57662
sI01
I3
stp6618
Rp6619
sg26
I2
sg27
F57666.0
sbs(g8
Vcontains(unrealist)
p6620
tp6621
g0
(g15
g2
Ntp6622
Rp6623
(dp6624
g19
F0.5
sg20
I17127
sg21
g22
((dp6625
I00
I17065
sI01
I62
stp6626
Rp6627
sg26
I2
sg27
F17128.0
sbs(g9
Vcontains(afraid)
p6628
tp6629
g0
(g15
g2
Ntp6630
Rp6631
(dp6632
g19
F0.5
sg20
I57665
sg21
g22
((dp6633
I00
I57662
sI01
I3
stp6634
Rp6635
sg26
I2
sg27
F57666.0
sbs(g10
Vcontains(useless)
p6636
tp6637
g0
(g15
g2
Ntp6638
Rp6639
(dp6640
g19
F0.5
sg20
I94852
sg21
g22
((dp6641
I00
I94847
sI01
I5
stp6642
Rp6643
sg26
I2
sg27
F94853.0
sbs(g10
Vcontains(smile)
p6644
tp6645
g0
(g15
g2
Ntp6646
Rp6647
(dp6648
g19
F0.5
sg20
I94852
sg21
g22
((dp6649
I00
I94661
sI01
I191
stp6650
Rp6651
sg26
I2
sg27
F94853.0
sbs(g8
Vcontains(disgust)
p6652
tp6653
g0
(g15
g2
Ntp6654
Rp6655
(dp6656
g19
F0.5
sg20
I17127
sg21
g22
((dp6657
I00
I17123
sI01
I4
stp6658
Rp6659
sg26
I2
sg27
F17128.0
sbs(g10
Vcontains(difficult)
p6660
tp6661
g0
(g15
g2
Ntp6662
Rp6663
(dp6664
g19
F0.5
sg20
I94852
sg21
g22
((dp6665
I00
I94788
sI01
I64
stp6666
Rp6667
sg26
I2
sg27
F94853.0
sbs(g8
Vcontains(told)
p6668
tp6669
g0
(g15
g2
Ntp6670
Rp6671
(dp6672
g19
F0.5
sg20
I17127
sg21
g22
((dp6673
I00
I17093
sI01
I34
stp6674
Rp6675
sg26
I2
sg27
F17128.0
sbs(g9
Vcontains(nice)
p6676
tp6677
g0
(g15
g2
Ntp6678
Rp6679
(dp6680
g19
F0.5
sg20
I57665
sg21
g22
((dp6681
I00
I57649
sI01
I16
stp6682
Rp6683
sg26
I2
sg27
F57666.0
sbs(g10
Vcontains(improv)
p6684
tp6685
g0
(g15
g2
Ntp6686
Rp6687
(dp6688
g19
F0.5
sg20
I94852
sg21
g22
((dp6689
I00
I94506
sI01
I346
stp6690
Rp6691
sg26
I2
sg27
F94853.0
sbs(g9
Vcontains(tri)
p6692
tp6693
g0
(g15
g2
Ntp6694
Rp6695
(dp6696
g19
F0.5
sg20
I57665
sg21
g22
((dp6697
I00
I57401
sI01
I264
stp6698
Rp6699
sg26
I2
sg27
F57666.0
sbs(g8
Vcontains(allow)
p6700
tp6701
g0
(g15
g2
Ntp6702
Rp6703
(dp6704
g19
F0.5
sg20
I17127
sg21
g22
((dp6705
I00
I17089
sI01
I38
stp6706
Rp6707
sg26
I2
sg27
F17128.0
sbs(g10
Vcontains(get)
p6708
tp6709
g0
(g15
g2
Ntp6710
Rp6711
(dp6712
g19
F0.5
sg20
I94852
sg21
g22
((dp6713
I00
I91830
sI01
I3022
stp6714
Rp6715
sg26
I2
sg27
F94853.0
sbs(g10
Vcontains(harass)
p6716
tp6717
g0
(g15
g2
Ntp6718
Rp6719
(dp6720
g19
F0.5
sg20
I94852
sg21
g22
((dp6721
I00
I94841
sI01
I11
stp6722
Rp6723
sg26
I2
sg27
F94853.0
sbs(g10
Vcontains(heavili)
p6724
tp6725
g0
(g15
g2
Ntp6726
Rp6727
(dp6728
g19
F0.5
sg20
I94852
sg21
g22
((dp6729
I00
I94845
sI01
I7
stp6730
Rp6731
sg26
I2
sg27
F94853.0
sbs(g8
Vcontains(impati)
p6732
tp6733
g0
(g15
g2
Ntp6734
Rp6735
(dp6736
g19
F0.5
sg20
I17127
sg21
g22
((dp6737
I00
I17118
sI01
I9
stp6738
Rp6739
sg26
I2
sg27
F17128.0
sbs(g10
Vcontains(great)
p6740
tp6741
g0
(g15
g2
Ntp6742
Rp6743
(dp6744
g19
F0.5
sg20
I94852
sg21
g22
((dp6745
I00
I81236
sI01
I13616
stp6746
Rp6747
sg26
I2
sg27
F94853.0
sbs(g10
Vcontains(impati)
p6748
tp6749
g0
(g15
g2
Ntp6750
Rp6751
(dp6752
g19
F0.5
sg20
I94852
sg21
g22
((dp6753
I00
I94851
sI01
I1
stp6754
Rp6755
sg26
I2
sg27
F94853.0
sbs(g8
Vcontains(respect)
p6756
tp6757
g0
(g15
g2
Ntp6758
Rp6759
(dp6760
g19
F0.5
sg20
I17127
sg21
g22
((dp6761
I00
I17096
sI01
I31
stp6762
Rp6763
sg26
I2
sg27
F17128.0
sbs(g10
Vcontains(limit)
p6764
tp6765
g0
(g15
g2
Ntp6766
Rp6767
(dp6768
g19
F0.5
sg20
I94852
sg21
g22
((dp6769
I00
I94760
sI01
I92
stp6770
Rp6771
sg26
I2
sg27
F94853.0
sbs(g8
Vcontains(incompet)
p6772
tp6773
g0
(g15
g2
Ntp6774
Rp6775
(dp6776
g19
F0.5
sg20
I17127
sg21
g22
((dp6777
I00
I17108
sI01
I19
stp6778
Rp6779
sg26
I2
sg27
F17128.0
sbs(g8
Vcontains(dead)
p6780
tp6781
g0
(g15
g2
Ntp6782
Rp6783
(dp6784
g19
F0.5
sg20
I17127
sg21
g22
((dp6785
I00
I17096
sI01
I31
stp6786
Rp6787
sg26
I2
sg27
F17128.0
sbs(g8
Vcontains(innov)
p6788
tp6789
g0
(g15
g2
Ntp6790
Rp6791
(dp6792
g19
F0.5
sg20
I17127
sg21
g22
((dp6793
I00
I17110
sI01
I17
stp6794
Rp6795
sg26
I2
sg27
F17128.0
sbs(g10
Vcontains(perfect)
p6796
tp6797
g0
(g15
g2
Ntp6798
Rp6799
(dp6800
g19
F0.5
sg20
I94852
sg21
g22
((dp6801
I00
I94561
sI01
I291
stp6802
Rp6803
sg26
I2
sg27
F94853.0
sbs(g8
Vcontains(joy)
p6804
tp6805
g0
(g15
g2
Ntp6806
Rp6807
(dp6808
g19
F0.5
sg20
I17127
sg21
g22
((dp6809
I00
I17127
stp6810
Rp6811
sg26
I2
sg27
F17128.0
sbs(g10
Vcontains(fall)
p6812
tp6813
g0
(g15
g2
Ntp6814
Rp6815
(dp6816
g19
F0.5
sg20
I94852
sg21
g22
((dp6817
I00
I94797
sI01
I55
stp6818
Rp6819
sg26
I2
sg27
F94853.0
sbs(g8
Vcontains(excel)
p6820
tp6821
g0
(g15
g2
Ntp6822
Rp6823
(dp6824
g19
F0.5
sg20
I17127
sg21
g22
((dp6825
I00
I17112
sI01
I15
stp6826
Rp6827
sg26
I2
sg27
F17128.0
sbs(g8
Vcontains(competit)
p6828
tp6829
g0
(g15
g2
Ntp6830
Rp6831
(dp6832
g19
F0.5
sg20
I17127
sg21
g22
((dp6833
I00
I17094
sI01
I33
stp6834
Rp6835
sg26
I2
sg27
F17128.0
sbs(g8
Vcontains(satisfactori)
p6836
tp6837
g0
(g15
g2
Ntp6838
Rp6839
(dp6840
g19
F0.5
sg20
I17127
sg21
g22
((dp6841
I00
I17127
stp6842
Rp6843
sg26
I2
sg27
F17128.0
sbs(g8
Vcontains(ambiti)
p6844
tp6845
g0
(g15
g2
Ntp6846
Rp6847
(dp6848
g19
F0.5
sg20
I17127
sg21
g22
((dp6849
I00
I17127
stp6850
Rp6851
sg26
I2
sg27
F17128.0
sbs(g10
Vcontains(poorli)
p6852
tp6853
g0
(g15
g2
Ntp6854
Rp6855
(dp6856
g19
F0.5
sg20
I94852
sg21
g22
((dp6857
I00
I94845
sI01
I7
stp6858
Rp6859
sg26
I2
sg27
F94853.0
sbs(g9
Vcontains(flexibl)
p6860
tp6861
g0
(g15
g2
Ntp6862
Rp6863
(dp6864
g19
F0.5
sg20
I57665
sg21
g22
((dp6865
I00
I56479
sI01
I1186
stp6866
Rp6867
sg26
I2
sg27
F57666.0
sbs(g8
Vcontains(disadvantag)
p6868
tp6869
g0
(g15
g2
Ntp6870
Rp6871
(dp6872
g19
F0.5
sg20
I17127
sg21
g22
((dp6873
I00
I17125
sI01
I2
stp6874
Rp6875
sg26
I2
sg27
F17128.0
sbs(g8
Vcontains(heavili)
p6876
tp6877
g0
(g15
g2
Ntp6878
Rp6879
(dp6880
g19
F0.5
sg20
I17127
sg21
g22
((dp6881
I00
I17105
sI01
I22
stp6882
Rp6883
sg26
I2
sg27
F17128.0
sbs(g8
Vcontains(excess)
p6884
tp6885
g0
(g15
g2
Ntp6886
Rp6887
(dp6888
g19
F0.5
sg20
I17127
sg21
g22
((dp6889
I00
I17101
sI01
I26
stp6890
Rp6891
sg26
I2
sg27
F17128.0
sbs(g10
Vcontains(disappoint)
p6892
tp6893
g0
(g15
g2
Ntp6894
Rp6895
(dp6896
g19
F0.5
sg20
I94852
sg21
g22
((dp6897
I00
I94849
sI01
I3
stp6898
Rp6899
sg26
I2
sg27
F94853.0
sbs(g9
Vcontains(useless)
p6900
tp6901
g0
(g15
g2
Ntp6902
Rp6903
(dp6904
g19
F0.5
sg20
I57665
sg21
g22
((dp6905
I00
I57663
sI01
I2
stp6906
Rp6907
sg26
I2
sg27
F57666.0
sbs(g8
Vcontains(right)
p6908
tp6909
g0
(g15
g2
Ntp6910
Rp6911
(dp6912
g19
F0.5
sg20
I17127
sg21
g22
((dp6913
I00
I17118
sI01
I9
stp6914
Rp6915
sg26
I2
sg27
F17128.0
sbs(g9
Vcontains(suitabl)
p6916
tp6917
g0
(g15
g2
Ntp6918
Rp6919
(dp6920
g19
F0.5
sg20
I57665
sg21
g22
((dp6921
I00
I57664
sI01
I1
stp6922
Rp6923
sg26
I2
sg27
F57666.0
sbs(g10
Vcontains(wise)
p6924
tp6925
g0
(g15
g2
Ntp6926
Rp6927
(dp6928
g19
F0.5
sg20
I94852
sg21
g22
((dp6929
I00
I94716
sI01
I136
stp6930
Rp6931
sg26
I2
sg27
F94853.0
sbs(g9
Vcontains(pro)
p6932
tp6933
g0
(g15
g2
Ntp6934
Rp6935
(dp6936
g19
F0.5
sg20
I57665
sg21
g22
((dp6937
I00
I57616
sI01
I49
stp6938
Rp6939
sg26
I2
sg27
F57666.0
sbs(g9
Vcontains(appreci)
p6940
tp6941
g0
(g15
g2
Ntp6942
Rp6943
(dp6944
g19
F0.5
sg20
I57665
sg21
g22
((dp6945
I00
I57529
sI01
I136
stp6946
Rp6947
sg26
I2
sg27
F57666.0
sbs(g8
Vcontains(pleasant)
p6948
tp6949
g0
(g15
g2
Ntp6950
Rp6951
(dp6952
g19
F0.5
sg20
I17127
sg21
g22
((dp6953
I00
I17127
stp6954
Rp6955
sg26
I2
sg27
F17128.0
sbs(g10
Vcontains(brutal)
p6956
tp6957
g0
(g15
g2
Ntp6958
Rp6959
(dp6960
g19
F0.5
sg20
I94852
sg21
g22
((dp6961
I00
I94850
sI01
I2
stp6962
Rp6963
sg26
I2
sg27
F94853.0
sbs(g9
Vcontains(benefit)
p6964
tp6965
g0
(g15
g2
Ntp6966
Rp6967
(dp6968
g19
F0.5
sg20
I57665
sg21
g22
((dp6969
I00
I56907
sI01
I758
stp6970
Rp6971
sg26
I2
sg27
F57666.0
sbs(g10
Vcontains(requir)
p6972
tp6973
g0
(g15
g2
Ntp6974
Rp6975
(dp6976
g19
F0.5
sg20
I94852
sg21
g22
((dp6977
I00
I94401
sI01
I451
stp6978
Rp6979
sg26
I2
sg27
F94853.0
sbs(g8
Vcontains(huge)
p6980
tp6981
g0
(g15
g2
Ntp6982
Rp6983
(dp6984
g19
F0.5
sg20
I17127
sg21
g22
((dp6985
I00
I17122
sI01
I5
stp6986
Rp6987
sg26
I2
sg27
F17128.0
sbs(g9
Vcontains(posit)
p6988
tp6989
g0
(g15
g2
Ntp6990
Rp6991
(dp6992
g19
F0.5
sg20
I57665
sg21
g22
((dp6993
I00
I57234
sI01
I431
stp6994
Rp6995
sg26
I2
sg27
F57666.0
sbs(g10
Vcontains(mind)
p6996
tp6997
g0
(g15
g2
Ntp6998
Rp6999
(dp7000
g19
F0.5
sg20
I94852
sg21
g22
((dp7001
I00
I94713
sI01
I139
stp7002
Rp7003
sg26
I2
sg27
F94853.0
sbs(g8
Vcontains(sad)
p7004
tp7005
g0
(g15
g2
Ntp7006
Rp7007
(dp7008
g19
F0.5
sg20
I17127
sg21
g22
((dp7009
I00
I17066
sI01
I61
stp7010
Rp7011
sg26
I2
sg27
F17128.0
sbs(g8
Vcontains(longer)
p7012
tp7013
g0
(g15
g2
Ntp7014
Rp7015
(dp7016
g19
F0.5
sg20
I17127
sg21
g22
((dp7017
I00
I17098
sI01
I29
stp7018
Rp7019
sg26
I2
sg27
F17128.0
sbs(g10
Vcontains(gain)
p7020
tp7021
g0
(g15
g2
Ntp7022
Rp7023
(dp7024
g19
F0.5
sg20
I94852
sg21
g22
((dp7025
I00
I94285
sI01
I567
stp7026
Rp7027
sg26
I2
sg27
F94853.0
sbs(g9
Vcontains(freedom)
p7028
tp7029
g0
(g15
g2
Ntp7030
Rp7031
(dp7032
g19
F0.5
sg20
I57665
sg21
g22
((dp7033
I00
I57517
sI01
I148
stp7034
Rp7035
sg26
I2
sg27
F57666.0
sbs(g9
Vcontains(attract)
p7036
tp7037
g0
(g15
g2
Ntp7038
Rp7039
(dp7040
g19
F0.5
sg20
I57665
sg21
g22
((dp7041
I00
I57343
sI01
I322
stp7042
Rp7043
sg26
I2
sg27
F57666.0
sbs(g10
Vcontains(depend)
p7044
tp7045
g0
(g15
g2
Ntp7046
Rp7047
(dp7048
g19
F0.5
sg20
I94852
sg21
g22
((dp7049
I00
I94548
sI01
I304
stp7050
Rp7051
sg26
I2
sg27
F94853.0
sbs(g10
Vcontains(late)
p7052
tp7053
g0
(g15
g2
Ntp7054
Rp7055
(dp7056
g19
F0.5
sg20
I94852
sg21
g22
((dp7057
I00
I94820
sI01
I32
stp7058
Rp7059
sg26
I2
sg27
F94853.0
sbs(g10
Vcontains(bunch)
p7060
tp7061
g0
(g15
g2
Ntp7062
Rp7063
(dp7064
g19
F0.5
sg20
I94852
sg21
g22
((dp7065
I00
I94799
sI01
I53
stp7066
Rp7067
sg26
I2
sg27
F94853.0
sbs(g10
Vcontains(cool)
p7068
tp7069
g0
(g15
g2
Ntp7070
Rp7071
(dp7072
g19
F0.5
sg20
I94852
sg21
g22
((dp7073
I00
I94489
sI01
I363
stp7074
Rp7075
sg26
I2
sg27
F94853.0
sbs(g8
Vcontains(talent)
p7076
tp7077
g0
(g15
g2
Ntp7078
Rp7079
(dp7080
g19
F0.5
sg20
I17127
sg21
g22
((dp7081
I00
I17110
sI01
I17
stp7082
Rp7083
sg26
I2
sg27
F17128.0
sbs(g9
Vcontains(challeng)
p7084
tp7085
g0
(g15
g2
Ntp7086
Rp7087
(dp7088
g19
F0.5
sg20
I57665
sg21
g22
((dp7089
I00
I57067
sI01
I598
stp7090
Rp7091
sg26
I2
sg27
F57666.0
sbs(g9
Vcontains(serious)
p7092
tp7093
g0
(g15
g2
Ntp7094
Rp7095
(dp7096
g19
F0.5
sg20
I57665
sg21
g22
((dp7097
I00
I57655
sI01
I10
stp7098
Rp7099
sg26
I2
sg27
F57666.0
sbs(g8
Vcontains(safeti)
p7100
tp7101
g0
(g15
g2
Ntp7102
Rp7103
(dp7104
g19
F0.5
sg20
I17127
sg21
g22
((dp7105
I00
I17107
sI01
I20
stp7106
Rp7107
sg26
I2
sg27
F17128.0
sbs(g8
Vcontains(afraid)
p7108
tp7109
g0
(g15
g2
Ntp7110
Rp7111
(dp7112
g19
F0.5
sg20
I17127
sg21
g22
((dp7113
I00
I17103
sI01
I24
stp7114
Rp7115
sg26
I2
sg27
F17128.0
sbs(g8
Vcontains(requir)
p7116
tp7117
g0
(g15
g2
Ntp7118
Rp7119
(dp7120
g19
F0.5
sg20
I17127
sg21
g22
((dp7121
I00
I17001
sI01
I126
stp7122
Rp7123
sg26
I2
sg27
F17128.0
sbs(g9
Vcontains(right)
p7124
tp7125
g0
(g15
g2
Ntp7126
Rp7127
(dp7128
g19
F0.5
sg20
I57665
sg21
g22
((dp7129
I00
I57625
sI01
I40
stp7130
Rp7131
sg26
I2
sg27
F57666.0
sbs(g9
Vcontains(talent)
p7132
tp7133
g0
(g15
g2
Ntp7134
Rp7135
(dp7136
g19
F0.5
sg20
I57665
sg21
g22
((dp7137
I00
I57159
sI01
I506
stp7138
Rp7139
sg26
I2
sg27
F57666.0
sbs(g9
Vcontains(disappoint)
p7140
tp7141
g0
(g15
g2
Ntp7142
Rp7143
(dp7144
g19
F0.5
sg20
I57665
sg21
g22
((dp7145
I00
I57658
sI01
I7
stp7146
Rp7147
sg26
I2
sg27
F57666.0
sbs(g9
Vcontains(failur)
p7148
tp7149
g0
(g15
g2
Ntp7150
Rp7151
(dp7152
g19
F0.5
sg20
I57665
sg21
g22
((dp7153
I00
I57661
sI01
I4
stp7154
Rp7155
sg26
I2
sg27
F57666.0
sbs(g9
Vcontains(hire)
p7156
tp7157
g0
(g15
g2
Ntp7158
Rp7159
(dp7160
g19
F0.5
sg20
I57665
sg21
g22
((dp7161
I00
I57407
sI01
I258
stp7162
Rp7163
sg26
I2
sg27
F57666.0
sbs(g8
Vcontains(flexibl)
p7164
tp7165
g0
(g15
g2
Ntp7166
Rp7167
(dp7168
g19
F0.5
sg20
I17127
sg21
g22
((dp7169
I00
I17080
sI01
I47
stp7170
Rp7171
sg26
I2
sg27
F17128.0
sbs(g10
Vcontains(poor)
p7172
tp7173
g0
(g15
g2
Ntp7174
Rp7175
(dp7176
g19
F0.5
sg20
I94852
sg21
g22
((dp7177
I00
I94779
sI01
I73
stp7178
Rp7179
sg26
I2
sg27
F94853.0
sbs(g9
Vcontains(wast)
p7180
tp7181
g0
(g15
g2
Ntp7182
Rp7183
(dp7184
g19
F0.5
sg20
I57665
sg21
g22
((dp7185
I00
I57643
sI01
I22
stp7186
Rp7187
sg26
I2
sg27
F57666.0
sbs(g10
Vcontains(benefit)
p7188
tp7189
g0
(g15
g2
Ntp7190
Rp7191
(dp7192
g19
F0.5
sg20
I94852
sg21
g22
((dp7193
I00
I92887
sI01
I1965
stp7194
Rp7195
sg26
I2
sg27
F94853.0
sbs(g8
Vcontains(activ)
p7196
tp7197
g0
(g15
g2
Ntp7198
Rp7199
(dp7200
g19
F0.5
sg20
I17127
sg21
g22
((dp7201
I00
I16972
sI01
I155
stp7202
Rp7203
sg26
I2
sg27
F17128.0
sbs(g10
Vcontains(strong)
p7204
tp7205
g0
(g15
g2
Ntp7206
Rp7207
(dp7208
g19
F0.5
sg20
I94852
sg21
g22
((dp7209
I00
I94082
sI01
I770
stp7210
Rp7211
sg26
I2
sg27
F94853.0
sbs(g8
Vcontains(tire)
p7212
tp7213
g0
(g15
g2
Ntp7214
Rp7215
(dp7216
g19
F0.5
sg20
I17127
sg21
g22
((dp7217
I00
I17077
sI01
I50
stp7218
Rp7219
sg26
I2
sg27
F17128.0
sbs(g8
Vcontains(enthusiast)
p7220
tp7221
g0
(g15
g2
Ntp7222
Rp7223
(dp7224
g19
F0.5
sg20
I17127
sg21
g22
((dp7225
I00
I17127
stp7226
Rp7227
sg26
I2
sg27
F17128.0
sbs(g8
Vcontains(bright)
p7228
tp7229
g0
(g15
g2
Ntp7230
Rp7231
(dp7232
g19
F0.5
sg20
I17127
sg21
g22
((dp7233
I00
I17127
stp7234
Rp7235
sg26
I2
sg27
F17128.0
sbs(g10
Vcontains(incompet)
p7236
tp7237
g0
(g15
g2
Ntp7238
Rp7239
(dp7240
g19
F0.5
sg20
I94852
sg21
g22
((dp7241
I00
I94852
stp7242
Rp7243
sg26
I2
sg27
F94853.0
sbs(g10
Vcontains(posit)
p7244
tp7245
g0
(g15
g2
Ntp7246
Rp7247
(dp7248
g19
F0.5
sg20
I94852
sg21
g22
((dp7249
I00
I93605
sI01
I1247
stp7250
Rp7251
sg26
I2
sg27
F94853.0
sbs(g9
Vcontains(leav)
p7252
tp7253
g0
(g15
g2
Ntp7254
Rp7255
(dp7256
g19
F0.5
sg20
I57665
sg21
g22
((dp7257
I00
I57495
sI01
I170
stp7258
Rp7259
sg26
I2
sg27
F57666.0
sbs(g8
Vcontains(dirti)
p7260
tp7261
g0
(g15
g2
Ntp7262
Rp7263
(dp7264
g19
F0.5
sg20
I17127
sg21
g22
((dp7265
I00
I17102
sI01
I25
stp7266
Rp7267
sg26
I2
sg27
F17128.0
sbs(g9
Vcontains(toughest)
p7268
tp7269
g0
(g15
g2
Ntp7270
Rp7271
(dp7272
g19
F0.5
sg20
I57665
sg21
g22
((dp7273
I00
I57651
sI01
I14
stp7274
Rp7275
sg26
I2
sg27
F57666.0
sbs(g9
Vcontains(smart)
p7276
tp7277
g0
(g15
g2
Ntp7278
Rp7279
(dp7280
g19
F0.5
sg20
I57665
sg21
g22
((dp7281
I00
I57657
sI01
I8
stp7282
Rp7283
sg26
I2
sg27
F57666.0
sbs(g9
Vcontains(promot)
p7284
tp7285
g0
(g15
g2
Ntp7286
Rp7287
(dp7288
g19
F0.5
sg20
I57665
sg21
g22
((dp7289
I00
I56882
sI01
I783
stp7290
Rp7291
sg26
I2
sg27
F57666.0
sbs(g8
Vcontains(ill)
p7292
tp7293
g0
(g15
g2
Ntp7294
Rp7295
(dp7296
g19
F0.5
sg20
I17127
sg21
g22
((dp7297
I00
I17104
sI01
I23
stp7298
Rp7299
sg26
I2
sg27
F17128.0
sbs(g9
Vcontains(repetit)
p7300
tp7301
g0
(g15
g2
Ntp7302
Rp7303
(dp7304
g19
F0.5
sg20
I57665
sg21
g22
((dp7305
I00
I57648
sI01
I17
stp7306
Rp7307
sg26
I2
sg27
F57666.0
sbs(g10
Vcontains(decreas)
p7308
tp7309
g0
(g15
g2
Ntp7310
Rp7311
(dp7312
g19
F0.5
sg20
I94852
sg21
g22
((dp7313
I00
I94844
sI01
I8
stp7314
Rp7315
sg26
I2
sg27
F94853.0
sbs(g8
Vcontains(import)
p7316
tp7317
g0
(g15
g2
Ntp7318
Rp7319
(dp7320
g19
F0.5
sg20
I17127
sg21
g22
((dp7321
I00
I17121
sI01
I6
stp7322
Rp7323
sg26
I2
sg27
F17128.0
sbs(g8
Vcontains(perform)
p7324
tp7325
g0
(g15
g2
Ntp7326
Rp7327
(dp7328
g19
F0.5
sg20
I17127
sg21
g22
((dp7329
I00
I17039
sI01
I88
stp7330
Rp7331
sg26
I2
sg27
F17128.0
sbs(g8
Vcontains(seriou)
p7332
tp7333
g0
(g15
g2
Ntp7334
Rp7335
(dp7336
g19
F0.5
sg20
I17127
sg21
g22
((dp7337
I00
I17055
sI01
I72
stp7338
Rp7339
sg26
I2
sg27
F17128.0
sbs(g8
Vcontains(better)
p7340
tp7341
g0
(g15
g2
Ntp7342
Rp7343
(dp7344
g19
F0.5
sg20
I17127
sg21
g22
((dp7345
I00
I17113
sI01
I14
stp7346
Rp7347
sg26
I2
sg27
F17128.0
sbs(g8
Vcontains(irrelev)
p7348
tp7349
g0
(g15
g2
Ntp7350
Rp7351
(dp7352
g19
F0.5
sg20
I17127
sg21
g22
((dp7353
I00
I17125
sI01
I2
stp7354
Rp7355
sg26
I2
sg27
F17128.0
sbs(g10
Vcontains(fire)
p7356
tp7357
g0
(g15
g2
Ntp7358
Rp7359
(dp7360
g19
F0.5
sg20
I94852
sg21
g22
((dp7361
I00
I94801
sI01
I51
stp7362
Rp7363
sg26
I2
sg27
F94853.0
sbs(g10
Vcontains(allow)
p7364
tp7365
g0
(g15
g2
Ntp7366
Rp7367
(dp7368
g19
F0.5
sg20
I94852
sg21
g22
((dp7369
I00
I94572
sI01
I280
stp7370
Rp7371
sg26
I2
sg27
F94853.0
sbs(g9
Vcontains(last)
p7372
tp7373
g0
(g15
g2
Ntp7374
Rp7375
(dp7376
g19
F0.5
sg20
I57665
sg21
g22
((dp7377
I00
I57489
sI01
I176
stp7378
Rp7379
sg26
I2
sg27
F57666.0
sbs(g8
Vcontains(oper)
p7380
tp7381
g0
(g15
g2
Ntp7382
Rp7383
(dp7384
g19
F0.5
sg20
I17127
sg21
g22
((dp7385
I00
I17083
sI01
I44
stp7386
Rp7387
sg26
I2
sg27
F17128.0
sbssS'_label_probdist'
p7388
g0
(g15
g2
Ntp7389
Rp7390
(dp7391
g19
F0.5
sg20
I169644
sg21
g22
((dp7392
g8
I17127
sg9
I57665
sg10
I94852
stp7393
Rp7394
sg26
I3
sg27
F169645.5
sbsb.