ccopy_reg
_reconstructor
p0
(cnltk.classify.naivebayes
NaiveBayesClassifier
p1
c__builtin__
object
p2
Ntp3
Rp4
(dp5
S'_labels'
p6
(lp7
S'neg'
p8
aS'neutral'
p9
aS'pos'
p10
asS'_feature_probdist'
p11
(dp12
(g8
F-0.2
tp13
g0
(cnltk.probability
ELEProbDist
p14
g2
Ntp15
Rp16
(dp17
S'_gamma'
p18
F0.5
sS'_N'
p19
I17080
sS'_freqdist'
p20
cnltk.probability
FreqDist
p21
((dp22
I0
I17080
stp23
Rp24
sS'_bins'
p25
I1
sS'_divisor'
p26
F17080.5
sbs(g9
F-0.5
tp27
g0
(g14
g2
Ntp28
Rp29
(dp30
g18
F0.5
sg19
I57693
sg20
g21
((dp31
I0
I55771
sI1
I1863
sI2
I58
sI3
I1
stp32
Rp33
sg25
I4
sg26
F57695.0
sbs(g8
F-0.5
tp34
g0
(g14
g2
Ntp35
Rp36
(dp37
g18
F0.5
sg19
I17080
sg20
g21
((dp38
I0
I16099
sI1
I941
sI2
I37
sI3
I3
stp39
Rp40
sg25
I4
sg26
F17082.0
sbs(g9
F0.1
tp41
g0
(g14
g2
Ntp42
Rp43
(dp44
g18
F0.5
sg19
I57693
sg20
g21
((dp45
I0
I46082
sI1
I10118
sI2
I1339
sI3
I131
sI4
I19
sI5
I4
stp46
Rp47
sg25
I7
sg26
F57696.5
sbs(g10
F-0.2
tp48
g0
(g14
g2
Ntp49
Rp50
(dp51
g18
F0.5
sg19
I94871
sg20
g21
((dp52
I0
I94871
stp53
Rp54
sg25
I1
sg26
F94871.5
sbs(g8
F0.5
tp55
g0
(g14
g2
Ntp56
Rp57
(dp58
g18
F0.5
sg19
I17080
sg20
g21
((dp59
I0
I15546
sI1
I1461
sI2
I68
sI3
I4
sI4
I1
stp60
Rp61
sg25
I7
sg26
F17083.5
sbs(g9
F-0.6
tp62
g0
(g14
g2
Ntp63
Rp64
(dp65
g18
F0.5
sg19
I57693
sg20
g21
((dp66
I0
I56037
sI1
I1576
sI2
I69
sI3
I11
stp67
Rp68
sg25
I5
sg26
F57695.5
sbs(g10
F-0.7
tp69
g0
(g14
g2
Ntp70
Rp71
(dp72
g18
F0.5
sg19
I94871
sg20
g21
((dp73
I0
I94869
sI1
I2
stp74
Rp75
sg25
I2
sg26
F94872.0
sbs(g8
F0.2
tp76
g0
(g14
g2
Ntp77
Rp78
(dp79
g18
F0.5
sg19
I17080
sg20
g21
((dp80
I0
I17080
stp81
Rp82
sg25
I1
sg26
F17080.5
sbs(g10
F-0.6
tp83
g0
(g14
g2
Ntp84
Rp85
(dp86
g18
F0.5
sg19
I94871
sg20
g21
((dp87
I0
I92897
sI1
I1920
sI2
I48
sI3
I6
stp88
Rp89
sg25
I5
sg26
F94873.5
sbs(g8
F-0.1
tp90
g0
(g14
g2
Ntp91
Rp92
(dp93
g18
F0.5
sg19
I17080
sg20
g21
((dp94
I0
I15963
sI1
I1073
sI2
I44
stp95
Rp96
sg25
I4
sg26
F17082.0
sbs(g10
F0.4
tp97
g0
(g14
g2
Ntp98
Rp99
(dp100
g18
F0.5
sg19
I94871
sg20
g21
((dp101
I0
I76262
sI1
I16894
sI2
I1503
sI3
I171
sI4
I36
sI5
I5
stp102
Rp103
sg25
I6
sg26
F94874.0
sbs(g9
F0.8
tp104
g0
(g14
g2
Ntp105
Rp106
(dp107
g18
F0.5
sg19
I57693
sg20
g21
((dp108
I0
I57146
sI1
I531
sI2
I9
sI3
I7
stp109
Rp110
sg25
I10
sg26
F57698.0
sbs(g9
F0.6
tp111
g0
(g14
g2
Ntp112
Rp113
(dp114
g18
F0.5
sg19
I57693
sg20
g21
((dp115
I0
I54144
sI1
I3352
sI2
I187
sI3
I10
stp116
Rp117
sg25
I6
sg26
F57696.0
sbs(g9
F0.7
tp118
g0
(g14
g2
Ntp119
Rp120
(dp121
g18
F0.5
sg19
I57693
sg20
g21
((dp122
I0
I57693
stp123
Rp124
sg25
I1
sg26
F57693.5
sbs(g10
F-0.8
tp125
g0
(g14
g2
Ntp126
Rp127
(dp128
g18
F0.5
sg19
I94871
sg20
g21
((dp129
I0
I92668
sI1
I2138
sI2
I64
sI3
I1
stp130
Rp131
sg25
I4
sg26
F94873.0
sbs(g9
F-0.8
tp132
g0
(g14
g2
Ntp133
Rp134
(dp135
g18
F0.5
sg19
I57693
sg20
g21
((dp136
I0
I55827
sI1
I1828
sI2
I36
sI3
I2
stp137
Rp138
sg25
I4
sg26
F57695.0
sbs(g10
F0.7
tp139
g0
(g14
g2
Ntp140
Rp141
(dp142
g18
F0.5
sg19
I94871
sg20
g21
((dp143
I0
I94871
stp144
Rp145
sg25
I1
sg26
F94871.5
sbs(g10
F0.1
tp146
g0
(g14
g2
Ntp147
Rp148
(dp149
g18
F0.5
sg19
I94871
sg20
g21
((dp150
I0
I76513
sI1
I15706
sI2
I2285
sI3
I296
sI4
I65
sI5
I4
sI8
I2
stp151
Rp152
sg25
I7
sg26
F94874.5
sbs(g8
F-0.4
tp153
g0
(g14
g2
Ntp154
Rp155
(dp156
g18
F0.5
sg19
I17080
sg20
g21
((dp157
I0
I15715
sI1
I1318
sI2
I44
sI3
I3
stp158
Rp159
sg25
I4
sg26
F17082.0
sbs(g10
F0.2
tp160
g0
(g14
g2
Ntp161
Rp162
(dp163
g18
F0.5
sg19
I94871
sg20
g21
((dp164
I0
I94871
stp165
Rp166
sg25
I1
sg26
F94871.5
sbs(g9
F0.4
tp167
g0
(g14
g2
Ntp168
Rp169
(dp170
g18
F0.5
sg19
I57693
sg20
g21
((dp171
I0
I50842
sI1
I6381
sI2
I433
sI3
I34
sI4
I3
stp172
Rp173
sg25
I6
sg26
F57696.0
sbs(g9
F0.9
tp174
g0
(g14
g2
Ntp175
Rp176
(dp177
g18
F0.5
sg19
I57693
sg20
g21
((dp178
I0
I57486
sI1
I205
sI2
I2
stp179
Rp180
sg25
I4
sg26
F57695.0
sbs(g8
F0.6
tp181
g0
(g14
g2
Ntp182
Rp183
(dp184
g18
F0.5
sg19
I17080
sg20
g21
((dp185
I0
I15874
sI1
I1186
sI2
I20
stp186
Rp187
sg25
I6
sg26
F17083.0
sbs(g8
F0.8
tp188
g0
(g14
g2
Ntp189
Rp190
(dp191
g18
F0.5
sg19
I17080
sg20
g21
((dp192
I0
I17009
sI1
I71
stp193
Rp194
sg25
I10
sg26
F17085.0
sbs(g8
F-1.0
tp195
g0
(g14
g2
Ntp196
Rp197
(dp198
g18
F0.5
sg19
I17080
sg20
g21
((dp199
I0
I17075
sI1
I5
stp200
Rp201
sg25
I2
sg26
F17081.0
sbs(g8
F0.7
tp202
g0
(g14
g2
Ntp203
Rp204
(dp205
g18
F0.5
sg19
I17080
sg20
g21
((dp206
I0
I17080
stp207
Rp208
sg25
I1
sg26
F17080.5
sbs(g9
F-0.0
tp209
g0
(g14
g2
Ntp210
Rp211
(dp212
g18
F0.5
sg19
I57693
sg20
g21
((dp213
I0
I512
sI1
I4857
sI2
I14124
sI3
I12634
sI4
I9201
sI5
I6410
sI6
I3723
sI7
I2339
sI8
I1423
sI9
I852
sI10
I522
sI11
I357
sI12
I208
sI13
I122
sI14
I106
sI15
I72
sI16
I59
sI17
I43
sI18
I16
sI19
I29
sI20
I12
sI21
I14
sI22
I17
sI23
I9
sI24
I1
sI25
I13
sI26
I4
sI27
I2
sI28
I4
sI29
I2
sI30
I2
sI31
I1
sI33
I2
sI41
I1
stp214
Rp215
sg25
I39
sg26
F57712.5
sbs(g8
F-0.0
tp216
g0
(g14
g2
Ntp217
Rp218
(dp219
g18
F0.5
sg19
I17080
sg20
g21
((dp220
I0
I251
sI1
I2298
sI2
I4018
sI3
I3097
sI4
I2318
sI5
I1656
sI6
I1176
sI7
I857
sI8
I480
sI9
I323
sI10
I210
sI11
I104
sI12
I92
sI13
I48
sI14
I55
sI15
I34
sI16
I12
sI17
I13
sI18
I4
sI19
I11
sI20
I2
sI22
I1
sI23
I13
sI24
I3
sI27
I1
sI28
I3
stp221
Rp222
sg25
I39
sg26
F17099.5
sbs(g8
F-0.8
tp223
g0
(g14
g2
Ntp224
Rp225
(dp226
g18
F0.5
sg19
I17080
sg20
g21
((dp227
I0
I12504
sI1
I4382
sI2
I186
sI3
I8
stp228
Rp229
sg25
I4
sg26
F17082.0
sbs(g10
F-0.9
tp230
g0
(g14
g2
Ntp231
Rp232
(dp233
g18
F0.5
sg19
I94871
sg20
g21
((dp234
I0
I94691
sI1
I180
stp235
Rp236
sg25
I3
sg26
F94872.5
sbs(g8
F-0.6
tp237
g0
(g14
g2
Ntp238
Rp239
(dp240
g18
F0.5
sg19
I17080
sg20
g21
((dp241
I0
I15163
sI1
I1841
sI2
I67
sI3
I7
sI4
I2
stp242
Rp243
sg25
I5
sg26
F17082.5
sbs(g10
F-0.4
tp244
g0
(g14
g2
Ntp245
Rp246
(dp247
g18
F0.5
sg19
I94871
sg20
g21
((dp248
I0
I92268
sI1
I2509
sI2
I94
stp249
Rp250
sg25
I4
sg26
F94873.0
sbs(g10
F0.3
tp251
g0
(g14
g2
Ntp252
Rp253
(dp254
g18
F0.5
sg19
I94871
sg20
g21
((dp255
I0
I85518
sI1
I8788
sI2
I520
sI3
I38
sI4
I7
stp256
Rp257
sg25
I5
sg26
F94873.5
sbs(g9
F-0.4
tp258
g0
(g14
g2
Ntp259
Rp260
(dp261
g18
F0.5
sg19
I57693
sg20
g21
((dp262
I0
I55205
sI1
I2413
sI2
I72
sI3
I3
stp263
Rp264
sg25
I4
sg26
F57695.0
sbs(g9
F-0.7
tp265
g0
(g14
g2
Ntp266
Rp267
(dp268
g18
F0.5
sg19
I57693
sg20
g21
((dp269
I0
I57692
sI1
I1
stp270
Rp271
sg25
I2
sg26
F57694.0
sbs(g9
F0.5
tp272
g0
(g14
g2
Ntp273
Rp274
(dp275
g18
F0.5
sg19
I57693
sg20
g21
((dp276
I0
I50352
sI1
I6678
sI2
I652
sI3
I10
sI4
I1
stp277
Rp278
sg25
I7
sg26
F57696.5
sbs(g10
F0.8
tp279
g0
(g14
g2
Ntp280
Rp281
(dp282
g18
F0.5
sg19
I94871
sg20
g21
((dp283
I0
I72706
sI1
I20493
sI2
I1280
sI3
I266
sI4
I84
sI5
I27
sI6
I5
sI7
I4
sI9
I5
sI12
I1
stp284
Rp285
sg25
I10
sg26
F94876.0
sbs(g8
F0.1
tp286
g0
(g14
g2
Ntp287
Rp288
(dp289
g18
F0.5
sg19
I17080
sg20
g21
((dp290
I0
I12002
sI1
I4371
sI2
I623
sI3
I75
sI4
I9
stp291
Rp292
sg25
I7
sg26
F17083.5
sbs(g10
F0.6
tp293
g0
(g14
g2
Ntp294
Rp295
(dp296
g18
F0.5
sg19
I94871
sg20
g21
((dp297
I0
I84298
sI1
I10004
sI2
I551
sI3
I15
sI4
I2
sI5
I1
stp298
Rp299
sg25
I6
sg26
F94874.0
sbs(g10
F-0.3
tp300
g0
(g14
g2
Ntp301
Rp302
(dp303
g18
F0.5
sg19
I94871
sg20
g21
((dp304
I0
I88195
sI1
I6173
sI2
I480
sI3
I16
sI4
I7
stp305
Rp306
sg25
I5
sg26
F94873.5
sbs(g9
F-0.1
tp307
g0
(g14
g2
Ntp308
Rp309
(dp310
g18
F0.5
sg19
I57693
sg20
g21
((dp311
I0
I53894
sI1
I3610
sI2
I181
sI3
I8
stp312
Rp313
sg25
I4
sg26
F57695.0
sbs(g9
F1.0
tp314
g0
(g14
g2
Ntp315
Rp316
(dp317
g18
F0.5
sg19
I57693
sg20
g21
((dp318
I0
I57678
sI1
I15
stp319
Rp320
sg25
I5
sg26
F57695.5
sbs(g9
F-0.3
tp321
g0
(g14
g2
Ntp322
Rp323
(dp324
g18
F0.5
sg19
I57693
sg20
g21
((dp325
I0
I53807
sI1
I3675
sI2
I183
sI3
I23
sI4
I5
stp326
Rp327
sg25
I5
sg26
F57695.5
sbs(g8
F0.3
tp328
g0
(g14
g2
Ntp329
Rp330
(dp331
g18
F0.5
sg19
I17080
sg20
g21
((dp332
I0
I15742
sI1
I1278
sI2
I56
sI3
I4
stp333
Rp334
sg25
I5
sg26
F17082.5
sbs(g9
F0.3
tp335
g0
(g14
g2
Ntp336
Rp337
(dp338
g18
F0.5
sg19
I57693
sg20
g21
((dp339
I0
I51347
sI1
I5866
sI2
I464
sI3
I13
sI4
I3
stp340
Rp341
sg25
I5
sg26
F57695.5
sbs(g10
F1.0
tp342
g0
(g14
g2
Ntp343
Rp344
(dp345
g18
F0.5
sg19
I94871
sg20
g21
((dp346
I0
I93381
sI1
I1462
sI2
I21
sI3
I2
sI4
I5
stp347
Rp348
sg25
I5
sg26
F94873.5
sbs(g9
F0.2
tp349
g0
(g14
g2
Ntp350
Rp351
(dp352
g18
F0.5
sg19
I57693
sg20
g21
((dp353
I0
I57693
stp354
Rp355
sg25
I1
sg26
F57693.5
sbs(g9
F-1.0
tp356
g0
(g14
g2
Ntp357
Rp358
(dp359
g18
F0.5
sg19
I57693
sg20
g21
((dp360
I0
I57688
sI1
I5
stp361
Rp362
sg25
I2
sg26
F57694.0
sbs(g8
F0.4
tp363
g0
(g14
g2
Ntp364
Rp365
(dp366
g18
F0.5
sg19
I17080
sg20
g21
((dp367
I0
I15928
sI1
I1091
sI2
I57
sI3
I4
stp368
Rp369
sg25
I6
sg26
F17083.0
sbs(g10
F0.5
tp370
g0
(g14
g2
Ntp371
Rp372
(dp373
g18
F0.5
sg19
I94871
sg20
g21
((dp374
I0
I76897
sI1
I16347
sI2
I1479
sI3
I134
sI4
I4
sI5
I7
sI8
I3
stp375
Rp376
sg25
I7
sg26
F94874.5
sbs(g10
F-0.1
tp377
g0
(g14
g2
Ntp378
Rp379
(dp380
g18
F0.5
sg19
I94871
sg20
g21
((dp381
I0
I89603
sI1
I5003
sI2
I257
sI3
I8
stp382
Rp383
sg25
I4
sg26
F94873.0
sbs(g8
F-0.3
tp384
g0
(g14
g2
Ntp385
Rp386
(dp387
g18
F0.5
sg19
I17080
sg20
g21
((dp388
I0
I15739
sI1
I1246
sI2
I87
sI3
I8
stp389
Rp390
sg25
I5
sg26
F17082.5
sbs(g10
F-0.5
tp391
g0
(g14
g2
Ntp392
Rp393
(dp394
g18
F0.5
sg19
I94871
sg20
g21
((dp395
I0
I91555
sI1
I3209
sI2
I104
sI3
I3
stp396
Rp397
sg25
I4
sg26
F94873.0
sbs(g8
F-0.9
tp398
g0
(g14
g2
Ntp399
Rp400
(dp401
g18
F0.5
sg19
I17080
sg20
g21
((dp402
I0
I16286
sI1
I773
sI2
I21
stp403
Rp404
sg25
I3
sg26
F17081.5
sbs(g10
F0.9
tp405
g0
(g14
g2
Ntp406
Rp407
(dp408
g18
F0.5
sg19
I94871
sg20
g21
((dp409
I0
I88557
sI1
I6186
sI2
I115
sI3
I13
stp410
Rp411
sg25
I4
sg26
F94873.0
sbs(g10
F-1.0
tp412
g0
(g14
g2
Ntp413
Rp414
(dp415
g18
F0.5
sg19
I94871
sg20
g21
((dp416
I0
I94864
sI1
I7
stp417
Rp418
sg25
I2
sg26
F94872.0
sbs(g9
F-0.2
tp419
g0
(g14
g2
Ntp420
Rp421
(dp422
g18
F0.5
sg19
I57693
sg20
g21
((dp423
I0
I57693
stp424
Rp425
sg25
I1
sg26
F57693.5
sbs(g8
F0.9
tp426
g0
(g14
g2
Ntp427
Rp428
(dp429
g18
F0.5
sg19
I17080
sg20
g21
((dp430
I0
I17031
sI1
I48
sI2
I1
stp431
Rp432
sg25
I4
sg26
F17082.0
sbs(g9
F-0.9
tp433
g0
(g14
g2
Ntp434
Rp435
(dp436
g18
F0.5
sg19
I57693
sg20
g21
((dp437
I0
I57548
sI1
I140
sI2
I5
stp438
Rp439
sg25
I3
sg26
F57694.5
sbs(g8
F1.0
tp440
g0
(g14
g2
Ntp441
Rp442
(dp443
g18
F0.5
sg19
I17080
sg20
g21
((dp444
I0
I17080
stp445
Rp446
sg25
I5
sg26
F17082.5
sbs(g10
F-0.0
tp447
g0
(g14
g2
Ntp448
Rp449
(dp450
g18
F0.5
sg19
I94871
sg20
g21
((dp451
I0
I1259
sI1
I12474
sI2
I23550
sI3
I19133
sI4
I13081
sI5
I8244
sI6
I5555
sI7
I3402
sI8
I2419
sI9
I1524
sI10
I1121
sI11
I899
sI12
I573
sI13
I382
sI14
I331
sI15
I256
sI16
I166
sI17
I110
sI18
I122
sI19
I83
sI20
I49
sI21
I28
sI22
I13
sI23
I18
sI24
I13
sI25
I14
sI26
I6
sI27
I12
sI28
I10
sI29
I8
sI30
I3
sI32
I2
sI34
I3
sI38
I1
sI39
I5
sI42
I2
stp452
Rp453
sg25
I39
sg26
F94890.5
sbs(g8
F-0.7
tp454
g0
(g14
g2
Ntp455
Rp456
(dp457
g18
F0.5
sg19
I17080
sg20
g21
((dp458
I0
I17080
stp459
Rp460
sg25
I2
sg26
F17081.0
sbssS'_label_probdist'
p461
g0
(g14
g2
Ntp462
Rp463
(dp464
g18
F0.5
sg19
I169644
sg20
g21
((dp465
g8
I17080
sg9
I57693
sg10
I94871
stp466
Rp467
sg25
I3
sg26
F169645.5
sbsb.