ccopy_reg
_reconstructor
p0
(cnltk.classify.naivebayes
NaiveBayesClassifier
p1
c__builtin__
object
p2
Ntp3
Rp4
(dp5
S'_labels'
p6
(lp7
S'sli_pos'
p8
aS'neg'
p9
aS'neutral'
p10
aS'sli_neg'
p11
aS'pos'
p12
asS'_feature_probdist'
p13
(dp14
(g12
S'contains(hate)'
p15
tp16
g0
(cnltk.probability
ELEProbDist
p17
g2
Ntp18
Rp19
(dp20
S'_gamma'
p21
F0.5
sS'_N'
p22
I53069
sS'_freqdist'
p23
cnltk.probability
FreqDist
p24
((dp25
I00
I53069
stp26
Rp27
sS'_bins'
p28
I2
sS'_divisor'
p29
F53070.0
sbs(g9
S'contains(ten)'
p30
tp31
g0
(g17
g2
Ntp32
Rp33
(dp34
g21
F0.5
sg22
I4809
sg23
g24
((dp35
I00
I4809
stp36
Rp37
sg28
I2
sg29
F4810.0
sbs(g12
S'contains(insecur)'
p38
tp39
g0
(g17
g2
Ntp40
Rp41
(dp42
g21
F0.5
sg22
I53069
sg23
g24
((dp43
I00
I53067
sI01
I2
stp44
Rp45
sg28
I2
sg29
F53070.0
sbs(g8
S'contains(pleasant)'
p46
tp47
g0
(g17
g2
Ntp48
Rp49
(dp50
g21
F0.5
sg22
I58606
sg23
g24
((dp51
I00
I58571
sI01
I35
stp52
Rp53
sg28
I2
sg29
F58607.0
sbs(g11
S'contains(brutal)'
p54
tp55
g0
(g17
g2
Ntp56
Rp57
(dp58
g21
F0.5
sg22
I24980
sg23
g24
((dp59
I00
I24977
sI01
I3
stp60
Rp61
sg28
I2
sg29
F24981.0
sbs(g8
S'contains(heavi)'
p62
tp63
g0
(g17
g2
Ntp64
Rp65
(dp66
g21
F0.5
sg22
I58606
sg23
g24
((dp67
I00
I58564
sI01
I42
stp68
Rp69
sg28
I2
sg29
F58607.0
sbs(g12
S'contains(useless)'
p70
tp71
g0
(g17
g2
Ntp72
Rp73
(dp74
g21
F0.5
sg22
I53069
sg23
g24
((dp75
I00
I53069
stp76
Rp77
sg28
I2
sg29
F53070.0
sbs(g10
S'contains(fantast)'
p78
tp79
g0
(g17
g2
Ntp80
Rp81
(dp82
g21
F0.5
sg22
I49914
sg23
g24
((dp83
I00
I49912
sI01
I2
stp84
Rp85
sg28
I2
sg29
F49915.0
sbs(g8
S'contains(ill)'
p86
tp87
g0
(g17
g2
Ntp88
Rp89
(dp90
g21
F0.5
sg22
I58606
sg23
g24
((dp91
I00
I58598
sI01
I8
stp92
Rp93
sg28
I2
sg29
F58607.0
sbs(g10
S'contains(winter)'
p94
tp95
g0
(g17
g2
Ntp96
Rp97
(dp98
g21
F0.5
sg22
I49914
sg23
g24
((dp99
I00
I49913
sI01
I1
stp100
Rp101
sg28
I2
sg29
F49915.0
sbs(g11
S'contains(shoot)'
p102
tp103
g0
(g17
g2
Ntp104
Rp105
(dp106
g21
F0.5
sg22
I24980
sg23
g24
((dp107
I00
I24929
sI01
I51
stp108
Rp109
sg28
I2
sg29
F24981.0
sbs(g11
S'contains(amaz)'
p110
tp111
g0
(g17
g2
Ntp112
Rp113
(dp114
g21
F0.5
sg22
I24980
sg23
g24
((dp115
I00
I24980
stp116
Rp117
sg28
I2
sg29
F24981.0
sbs(g10
S'contains(wrong)'
p118
tp119
g0
(g17
g2
Ntp120
Rp121
(dp122
g21
F0.5
sg22
I49914
sg23
g24
((dp123
I00
I49897
sI01
I17
stp124
Rp125
sg28
I2
sg29
F49915.0
sbs(g9
S'contains(higher)'
p126
tp127
g0
(g17
g2
Ntp128
Rp129
(dp130
g21
F0.5
sg22
I4809
sg23
g24
((dp131
I00
I4809
stp132
Rp133
sg28
I2
sg29
F4810.0
sbs(g9
S'contains(sad)'
p134
tp135
g0
(g17
g2
Ntp136
Rp137
(dp138
g21
F0.5
sg22
I4809
sg23
g24
((dp139
I00
I4754
sI01
I55
stp140
Rp141
sg28
I2
sg29
F4810.0
sbs(g8
S'contains(win)'
p142
tp143
g0
(g17
g2
Ntp144
Rp145
(dp146
g21
F0.5
sg22
I58606
sg23
g24
((dp147
I00
I58561
sI01
I45
stp148
Rp149
sg28
I2
sg29
F58607.0
sbs(g10
S'contains(late)'
p150
tp151
g0
(g17
g2
Ntp152
Rp153
(dp154
g21
F0.5
sg22
I49914
sg23
g24
((dp155
I00
I49900
sI01
I14
stp156
Rp157
sg28
I2
sg29
F49915.0
sbs(g9
S'contains(fail)'
p158
tp159
g0
(g17
g2
Ntp160
Rp161
(dp162
g21
F0.5
sg22
I4809
sg23
g24
((dp163
I00
I4716
sI01
I93
stp164
Rp165
sg28
I2
sg29
F4810.0
sbs(g12
S'contains(cut)'
p166
tp167
g0
(g17
g2
Ntp168
Rp169
(dp170
g21
F0.5
sg22
I53069
sg23
g24
((dp171
I00
I53052
sI01
I17
stp172
Rp173
sg28
I2
sg29
F53070.0
sbs(g11
S'contains(terribl)'
p174
tp175
g0
(g17
g2
Ntp176
Rp177
(dp178
g21
F0.5
sg22
I24980
sg23
g24
((dp179
I00
I24913
sI01
I67
stp180
Rp181
sg28
I2
sg29
F24981.0
sbs(g8
S'contains(typic)'
p182
tp183
g0
(g17
g2
Ntp184
Rp185
(dp186
g21
F0.5
sg22
I58606
sg23
g24
((dp187
I00
I58035
sI01
I571
stp188
Rp189
sg28
I2
sg29
F58607.0
sbs(g9
S'contains(add)'
p190
tp191
g0
(g17
g2
Ntp192
Rp193
(dp194
g21
F0.5
sg22
I4809
sg23
g24
((dp195
I00
I4802
sI01
I7
stp196
Rp197
sg28
I2
sg29
F4810.0
sbs(g10
S'contains(annoy)'
p198
tp199
g0
(g17
g2
Ntp200
Rp201
(dp202
g21
F0.5
sg22
I49914
sg23
g24
((dp203
I00
I49913
sI01
I1
stp204
Rp205
sg28
I2
sg29
F49915.0
sbs(g9
S'contains(rude)'
p206
tp207
g0
(g17
g2
Ntp208
Rp209
(dp210
g21
F0.5
sg22
I4809
sg23
g24
((dp211
I00
I4802
sI01
I7
stp212
Rp213
sg28
I2
sg29
F4810.0
sbs(g9
S'contains(strong)'
p214
tp215
g0
(g17
g2
Ntp216
Rp217
(dp218
g21
F0.5
sg22
I4809
sg23
g24
((dp219
I00
I4809
stp220
Rp221
sg28
I2
sg29
F4810.0
sbs(g10
S'contains(angri)'
p222
tp223
g0
(g17
g2
Ntp224
Rp225
(dp226
g21
F0.5
sg22
I49914
sg23
g24
((dp227
I00
I49913
sI01
I1
stp228
Rp229
sg28
I2
sg29
F49915.0
sbs(g10
S'contains(pleasant)'
p230
tp231
g0
(g17
g2
Ntp232
Rp233
(dp234
g21
F0.5
sg22
I49914
sg23
g24
((dp235
I00
I49910
sI01
I4
stp236
Rp237
sg28
I2
sg29
F49915.0
sbs(g10
S'contains(amaz)'
p238
tp239
g0
(g17
g2
Ntp240
Rp241
(dp242
g21
F0.5
sg22
I49914
sg23
g24
((dp243
I00
I49907
sI01
I7
stp244
Rp245
sg28
I2
sg29
F49915.0
sbs(g11
S'contains(okay)'
p246
tp247
g0
(g17
g2
Ntp248
Rp249
(dp250
g21
F0.5
sg22
I24980
sg23
g24
((dp251
I00
I24979
sI01
I1
stp252
Rp253
sg28
I2
sg29
F24981.0
sbs(g8
S'contains(disgust)'
p254
tp255
g0
(g17
g2
Ntp256
Rp257
(dp258
g21
F0.5
sg22
I58606
sg23
g24
((dp259
I00
I58604
sI01
I2
stp260
Rp261
sg28
I2
sg29
F58607.0
sbs(g8
S'contains(winter)'
p262
tp263
g0
(g17
g2
Ntp264
Rp265
(dp266
g21
F0.5
sg22
I58606
sg23
g24
((dp267
I00
I58598
sI01
I8
stp268
Rp269
sg28
I2
sg29
F58607.0
sbs(g9
S'contains(critic)'
p270
tp271
g0
(g17
g2
Ntp272
Rp273
(dp274
g21
F0.5
sg22
I4809
sg23
g24
((dp275
I00
I4809
stp276
Rp277
sg28
I2
sg29
F4810.0
sbs(g9
S'contains(less)'
p278
tp279
g0
(g17
g2
Ntp280
Rp281
(dp282
g21
F0.5
sg22
I4809
sg23
g24
((dp283
I00
I4808
sI01
I1
stp284
Rp285
sg28
I2
sg29
F4810.0
sbs(g12
S'contains(danger)'
p286
tp287
g0
(g17
g2
Ntp288
Rp289
(dp290
g21
F0.5
sg22
I53069
sg23
g24
((dp291
I00
I53069
stp292
Rp293
sg28
I2
sg29
F53070.0
sbs(g9
S'contains(traffic)'
p294
tp295
g0
(g17
g2
Ntp296
Rp297
(dp298
g21
F0.5
sg22
I4809
sg23
g24
((dp299
I00
I4802
sI01
I7
stp300
Rp301
sg28
I2
sg29
F4810.0
sbs(g10
S'contains(dirti)'
p302
tp303
g0
(g17
g2
Ntp304
Rp305
(dp306
g21
F0.5
sg22
I49914
sg23
g24
((dp307
I00
I49913
sI01
I1
stp308
Rp309
sg28
I2
sg29
F49915.0
sbs(g11
S'contains(enough)'
p310
tp311
g0
(g17
g2
Ntp312
Rp313
(dp314
g21
F0.5
sg22
I24980
sg23
g24
((dp315
I00
I24882
sI01
I98
stp316
Rp317
sg28
I2
sg29
F24981.0
sbs(g8
S'contains(late)'
p318
tp319
g0
(g17
g2
Ntp320
Rp321
(dp322
g21
F0.5
sg22
I58606
sg23
g24
((dp323
I00
I58575
sI01
I31
stp324
Rp325
sg28
I2
sg29
F58607.0
sbs(g10
S'contains(typic)'
p326
tp327
g0
(g17
g2
Ntp328
Rp329
(dp330
g21
F0.5
sg22
I49914
sg23
g24
((dp331
I00
I49708
sI01
I206
stp332
Rp333
sg28
I2
sg29
F49915.0
sbs(g8
S'contains(fair)'
p334
tp335
g0
(g17
g2
Ntp336
Rp337
(dp338
g21
F0.5
sg22
I58606
sg23
g24
((dp339
I00
I58543
sI01
I63
stp340
Rp341
sg28
I2
sg29
F58607.0
sbs(g10
S'contains(good)'
p342
tp343
g0
(g17
g2
Ntp344
Rp345
(dp346
g21
F0.5
sg22
I49914
sg23
g24
((dp347
I00
I49589
sI01
I325
stp348
Rp349
sg28
I2
sg29
F49915.0
sbs(g11
S'contains(awesom)'
p350
tp351
g0
(g17
g2
Ntp352
Rp353
(dp354
g21
F0.5
sg22
I24980
sg23
g24
((dp355
I00
I24980
stp356
Rp357
sg28
I2
sg29
F24981.0
sbs(g12
S'contains(rare)'
p358
tp359
g0
(g17
g2
Ntp360
Rp361
(dp362
g21
F0.5
sg22
I53069
sg23
g24
((dp363
I00
I53068
sI01
I1
stp364
Rp365
sg28
I2
sg29
F53070.0
sbs(g11
S'contains(littl)'
p366
tp367
g0
(g17
g2
Ntp368
Rp369
(dp370
g21
F0.5
sg22
I24980
sg23
g24
((dp371
I00
I24148
sI01
I832
stp372
Rp373
sg28
I2
sg29
F24981.0
sbs(g12
S'contains(excel)'
p374
tp375
g0
(g17
g2
Ntp376
Rp377
(dp378
g21
F0.5
sg22
I53069
sg23
g24
((dp379
I00
I50675
sI01
I2394
stp380
Rp381
sg28
I2
sg29
F53070.0
sbs(g11
S'contains(illeg)'
p382
tp383
g0
(g17
g2
Ntp384
Rp385
(dp386
g21
F0.5
sg22
I24980
sg23
g24
((dp387
I00
I24979
sI01
I1
stp388
Rp389
sg28
I2
sg29
F24981.0
sbs(g11
S'contains(winter)'
p390
tp391
g0
(g17
g2
Ntp392
Rp393
(dp394
g21
F0.5
sg22
I24980
sg23
g24
((dp395
I00
I24972
sI01
I8
stp396
Rp397
sg28
I2
sg29
F24981.0
sbs(g10
S'contains(hate)'
p398
tp399
g0
(g17
g2
Ntp400
Rp401
(dp402
g21
F0.5
sg22
I49914
sg23
g24
((dp403
I00
I49903
sI01
I11
stp404
Rp405
sg28
I2
sg29
F49915.0
sbs(g11
S'contains(mainli)'
p406
tp407
g0
(g17
g2
Ntp408
Rp409
(dp410
g21
F0.5
sg22
I24980
sg23
g24
((dp411
I00
I24977
sI01
I3
stp412
Rp413
sg28
I2
sg29
F24981.0
sbs(g12
S'contains(current)'
p414
tp415
g0
(g17
g2
Ntp416
Rp417
(dp418
g21
F0.5
sg22
I53069
sg23
g24
((dp419
I00
I53064
sI01
I5
stp420
Rp421
sg28
I2
sg29
F53070.0
sbs(g12
S'contains(fast)'
p422
tp423
g0
(g17
g2
Ntp424
Rp425
(dp426
g21
F0.5
sg22
I53069
sg23
g24
((dp427
I00
I52990
sI01
I79
stp428
Rp429
sg28
I2
sg29
F53070.0
sbs(g8
S'contains(enough)'
p430
tp431
g0
(g17
g2
Ntp432
Rp433
(dp434
g21
F0.5
sg22
I58606
sg23
g24
((dp435
I00
I58272
sI01
I334
stp436
Rp437
sg28
I2
sg29
F58607.0
sbs(g11
S'contains(late)'
p438
tp439
g0
(g17
g2
Ntp440
Rp441
(dp442
g21
F0.5
sg22
I24980
sg23
g24
((dp443
I00
I24696
sI01
I284
stp444
Rp445
sg28
I2
sg29
F24981.0
sbs(g11
S'contains(exhaust)'
p446
tp447
g0
(g17
g2
Ntp448
Rp449
(dp450
g21
F0.5
sg22
I24980
sg23
g24
((dp451
I00
I24902
sI01
I78
stp452
Rp453
sg28
I2
sg29
F24981.0
sbs(g10
S'contains(extra)'
p454
tp455
g0
(g17
g2
Ntp456
Rp457
(dp458
g21
F0.5
sg22
I49914
sg23
g24
((dp459
I00
I49782
sI01
I132
stp460
Rp461
sg28
I2
sg29
F49915.0
sbs(g12
S'contains(fault)'
p462
tp463
g0
(g17
g2
Ntp464
Rp465
(dp466
g21
F0.5
sg22
I53069
sg23
g24
((dp467
I00
I53061
sI01
I8
stp468
Rp469
sg28
I2
sg29
F53070.0
sbs(g8
S'contains(bore)'
p470
tp471
g0
(g17
g2
Ntp472
Rp473
(dp474
g21
F0.5
sg22
I58606
sg23
g24
((dp475
I00
I58593
sI01
I13
stp476
Rp477
sg28
I2
sg29
F58607.0
sbs(g8
S'contains(insecur)'
p478
tp479
g0
(g17
g2
Ntp480
Rp481
(dp482
g21
F0.5
sg22
I58606
sg23
g24
((dp483
I00
I58605
sI01
I1
stp484
Rp485
sg28
I2
sg29
F58607.0
sbs(g8
S'contains(whole)'
p486
tp487
g0
(g17
g2
Ntp488
Rp489
(dp490
g21
F0.5
sg22
I58606
sg23
g24
((dp491
I00
I58028
sI01
I578
stp492
Rp493
sg28
I2
sg29
F58607.0
sbs(g11
S'contains(independ)'
p494
tp495
g0
(g17
g2
Ntp496
Rp497
(dp498
g21
F0.5
sg22
I24980
sg23
g24
((dp499
I00
I24977
sI01
I3
stp500
Rp501
sg28
I2
sg29
F24981.0
sbs(g9
S'contains(someday)'
p502
tp503
g0
(g17
g2
Ntp504
Rp505
(dp506
g21
F0.5
sg22
I4809
sg23
g24
((dp507
I00
I4802
sI01
I7
stp508
Rp509
sg28
I2
sg29
F4810.0
sbs(g11
S'contains(afraid)'
p510
tp511
g0
(g17
g2
Ntp512
Rp513
(dp514
g21
F0.5
sg22
I24980
sg23
g24
((dp515
I00
I24971
sI01
I9
stp516
Rp517
sg28
I2
sg29
F24981.0
sbs(g10
S'contains(enjoy)'
p518
tp519
g0
(g17
g2
Ntp520
Rp521
(dp522
g21
F0.5
sg22
I49914
sg23
g24
((dp523
I00
I49849
sI01
I65
stp524
Rp525
sg28
I2
sg29
F49915.0
sbs(g9
S'contains(desper)'
p526
tp527
g0
(g17
g2
Ntp528
Rp529
(dp530
g21
F0.5
sg22
I4809
sg23
g24
((dp531
I00
I4791
sI01
I18
stp532
Rp533
sg28
I2
sg29
F4810.0
sbs(g8
S'contains(proud)'
p534
tp535
g0
(g17
g2
Ntp536
Rp537
(dp538
g21
F0.5
sg22
I58606
sg23
g24
((dp539
I00
I58547
sI01
I59
stp540
Rp541
sg28
I2
sg29
F58607.0
sbs(g12
S'contains(nearli)'
p542
tp543
g0
(g17
g2
Ntp544
Rp545
(dp546
g21
F0.5
sg22
I53069
sg23
g24
((dp547
I00
I53068
sI01
I1
stp548
Rp549
sg28
I2
sg29
F53070.0
sbs(g9
S'contains(great)'
p550
tp551
g0
(g17
g2
Ntp552
Rp553
(dp554
g21
F0.5
sg22
I4809
sg23
g24
((dp555
I00
I4807
sI01
I2
stp556
Rp557
sg28
I2
sg29
F4810.0
sbs(g9
S'contains(insecur)'
p558
tp559
g0
(g17
g2
Ntp560
Rp561
(dp562
g21
F0.5
sg22
I4809
sg23
g24
((dp563
I00
I4806
sI01
I3
stp564
Rp565
sg28
I2
sg29
F4810.0
sbs(g10
S'contains(enough)'
p566
tp567
g0
(g17
g2
Ntp568
Rp569
(dp570
g21
F0.5
sg22
I49914
sg23
g24
((dp571
I00
I49647
sI01
I267
stp572
Rp573
sg28
I2
sg29
F49915.0
sbs(g11
S'contains(averag)'
p574
tp575
g0
(g17
g2
Ntp576
Rp577
(dp578
g21
F0.5
sg22
I24980
sg23
g24
((dp579
I00
I24733
sI01
I247
stp580
Rp581
sg28
I2
sg29
F24981.0
sbs(g12
S'contains(corrupt)'
p582
tp583
g0
(g17
g2
Ntp584
Rp585
(dp586
g21
F0.5
sg22
I53069
sg23
g24
((dp587
I00
I53069
stp588
Rp589
sg28
I2
sg29
F53070.0
sbs(g11
S'contains(cold)'
p590
tp591
g0
(g17
g2
Ntp592
Rp593
(dp594
g21
F0.5
sg22
I24980
sg23
g24
((dp595
I00
I24944
sI01
I36
stp596
Rp597
sg28
I2
sg29
F24981.0
sbs(g12
S'contains(outsid)'
p598
tp599
g0
(g17
g2
Ntp600
Rp601
(dp602
g21
F0.5
sg22
I53069
sg23
g24
((dp603
I00
I53067
sI01
I2
stp604
Rp605
sg28
I2
sg29
F53070.0
sbs(g12
S'contains(hard)'
p606
tp607
g0
(g17
g2
Ntp608
Rp609
(dp610
g21
F0.5
sg22
I53069
sg23
g24
((dp611
I00
I53055
sI01
I14
stp612
Rp613
sg28
I2
sg29
F53070.0
sbs(g10
S'contains(invent)'
p614
tp615
g0
(g17
g2
Ntp616
Rp617
(dp618
g21
F0.5
sg22
I49914
sg23
g24
((dp619
I00
I49913
sI01
I1
stp620
Rp621
sg28
I2
sg29
F49915.0
sbs(g9
S'contains(sever)'
p622
tp623
g0
(g17
g2
Ntp624
Rp625
(dp626
g21
F0.5
sg22
I4809
sg23
g24
((dp627
I00
I4809
stp628
Rp629
sg28
I2
sg29
F4810.0
sbs(g8
S'contains(independ)'
p630
tp631
g0
(g17
g2
Ntp632
Rp633
(dp634
g21
F0.5
sg22
I58606
sg23
g24
((dp635
I00
I58528
sI01
I78
stp636
Rp637
sg28
I2
sg29
F58607.0
sbs(g8
S'contains(add)'
p638
tp639
g0
(g17
g2
Ntp640
Rp641
(dp642
g21
F0.5
sg22
I58606
sg23
g24
((dp643
I00
I58578
sI01
I28
stp644
Rp645
sg28
I2
sg29
F58607.0
sbs(g11
S'contains(rare)'
p646
tp647
g0
(g17
g2
Ntp648
Rp649
(dp650
g21
F0.5
sg22
I24980
sg23
g24
((dp651
I00
I24966
sI01
I14
stp652
Rp653
sg28
I2
sg29
F24981.0
sbs(g12
S'contains(tediou)'
p654
tp655
g0
(g17
g2
Ntp656
Rp657
(dp658
g21
F0.5
sg22
I53069
sg23
g24
((dp659
I00
I53069
stp660
Rp661
sg28
I2
sg29
F53070.0
sbs(g8
S'contains(redund)'
p662
tp663
g0
(g17
g2
Ntp664
Rp665
(dp666
g21
F0.5
sg22
I58606
sg23
g24
((dp667
I00
I58599
sI01
I7
stp668
Rp669
sg28
I2
sg29
F58607.0
sbs(g10
S'contains(tediou)'
p670
tp671
g0
(g17
g2
Ntp672
Rp673
(dp674
g21
F0.5
sg22
I49914
sg23
g24
((dp675
I00
I49913
sI01
I1
stp676
Rp677
sg28
I2
sg29
F49915.0
sbs(g11
S'contains(fantast)'
p678
tp679
g0
(g17
g2
Ntp680
Rp681
(dp682
g21
F0.5
sg22
I24980
sg23
g24
((dp683
I00
I24979
sI01
I1
stp684
Rp685
sg28
I2
sg29
F24981.0
sbs(g8
S'contains(cut)'
p686
tp687
g0
(g17
g2
Ntp688
Rp689
(dp690
g21
F0.5
sg22
I58606
sg23
g24
((dp691
I00
I58544
sI01
I62
stp692
Rp693
sg28
I2
sg29
F58607.0
sbs(g8
S'contains(less)'
p694
tp695
g0
(g17
g2
Ntp696
Rp697
(dp698
g21
F0.5
sg22
I58606
sg23
g24
((dp699
I00
I58310
sI01
I296
stp700
Rp701
sg28
I2
sg29
F58607.0
sbs(g10
S'contains(everyday)'
p702
tp703
g0
(g17
g2
Ntp704
Rp705
(dp706
g21
F0.5
sg22
I49914
sg23
g24
((dp707
I00
I49692
sI01
I222
stp708
Rp709
sg28
I2
sg29
F49915.0
sbs(g10
S'contains(excel)'
p710
tp711
g0
(g17
g2
Ntp712
Rp713
(dp714
g21
F0.5
sg22
I49914
sg23
g24
((dp715
I00
I49882
sI01
I32
stp716
Rp717
sg28
I2
sg29
F49915.0
sbs(g11
S'contains(uncomfort)'
p718
tp719
g0
(g17
g2
Ntp720
Rp721
(dp722
g21
F0.5
sg22
I24980
sg23
g24
((dp723
I00
I24971
sI01
I9
stp724
Rp725
sg28
I2
sg29
F24981.0
sbs(g12
S'contains(seriou)'
p726
tp727
g0
(g17
g2
Ntp728
Rp729
(dp730
g21
F0.5
sg22
I53069
sg23
g24
((dp731
I00
I53067
sI01
I2
stp732
Rp733
sg28
I2
sg29
F53070.0
sbs(g12
S'contains(enough)'
p734
tp735
g0
(g17
g2
Ntp736
Rp737
(dp738
g21
F0.5
sg22
I53069
sg23
g24
((dp739
I00
I53064
sI01
I5
stp740
Rp741
sg28
I2
sg29
F53070.0
sbs(g10
S'contains(difficult)'
p742
tp743
g0
(g17
g2
Ntp744
Rp745
(dp746
g21
F0.5
sg22
I49914
sg23
g24
((dp747
I00
I49772
sI01
I142
stp748
Rp749
sg28
I2
sg29
F49915.0
sbs(g8
S'contains(slow)'
p750
tp751
g0
(g17
g2
Ntp752
Rp753
(dp754
g21
F0.5
sg22
I58606
sg23
g24
((dp755
I00
I58556
sI01
I50
stp756
Rp757
sg28
I2
sg29
F58607.0
sbs(g9
S'contains(danger)'
p758
tp759
g0
(g17
g2
Ntp760
Rp761
(dp762
g21
F0.5
sg22
I4809
sg23
g24
((dp763
I00
I4795
sI01
I14
stp764
Rp765
sg28
I2
sg29
F4810.0
sbs(g12
S'contains(invent)'
p766
tp767
g0
(g17
g2
Ntp768
Rp769
(dp770
g21
F0.5
sg22
I53069
sg23
g24
((dp771
I00
I53067
sI01
I2
stp772
Rp773
sg28
I2
sg29
F53070.0
sbs(g10
S'contains(behind)'
p774
tp775
g0
(g17
g2
Ntp776
Rp777
(dp778
g21
F0.5
sg22
I49914
sg23
g24
((dp779
I00
I49888
sI01
I26
stp780
Rp781
sg28
I2
sg29
F49915.0
sbs(g9
S'contains(perfect)'
p782
tp783
g0
(g17
g2
Ntp784
Rp785
(dp786
g21
F0.5
sg22
I4809
sg23
g24
((dp787
I00
I4809
stp788
Rp789
sg28
I2
sg29
F4810.0
sbs(g10
S'contains(latest)'
p790
tp791
g0
(g17
g2
Ntp792
Rp793
(dp794
g21
F0.5
sg22
I49914
sg23
g24
((dp795
I00
I49909
sI01
I5
stp796
Rp797
sg28
I2
sg29
F49915.0
sbs(g9
S'contains(winter)'
p798
tp799
g0
(g17
g2
Ntp800
Rp801
(dp802
g21
F0.5
sg22
I4809
sg23
g24
((dp803
I00
I4802
sI01
I7
stp804
Rp805
sg28
I2
sg29
F4810.0
sbs(g12
S'contains(dirti)'
p806
tp807
g0
(g17
g2
Ntp808
Rp809
(dp810
g21
F0.5
sg22
I53069
sg23
g24
((dp811
I00
I53069
stp812
Rp813
sg28
I2
sg29
F53070.0
sbs(g8
S'contains(sad)'
p814
tp815
g0
(g17
g2
Ntp816
Rp817
(dp818
g21
F0.5
sg22
I58606
sg23
g24
((dp819
I00
I58601
sI01
I5
stp820
Rp821
sg28
I2
sg29
F58607.0
sbs(g9
S'contains(entir)'
p822
tp823
g0
(g17
g2
Ntp824
Rp825
(dp826
g21
F0.5
sg22
I4809
sg23
g24
((dp827
I00
I4804
sI01
I5
stp828
Rp829
sg28
I2
sg29
F4810.0
sbs(g10
S'contains(cut)'
p830
tp831
g0
(g17
g2
Ntp832
Rp833
(dp834
g21
F0.5
sg22
I49914
sg23
g24
((dp835
I00
I49827
sI01
I87
stp836
Rp837
sg28
I2
sg29
F49915.0
sbs(g9
S'contains(latest)'
p838
tp839
g0
(g17
g2
Ntp840
Rp841
(dp842
g21
F0.5
sg22
I4809
sg23
g24
((dp843
I00
I4809
stp844
Rp845
sg28
I2
sg29
F4810.0
sbs(g12
S'contains(redund)'
p846
tp847
g0
(g17
g2
Ntp848
Rp849
(dp850
g21
F0.5
sg22
I53069
sg23
g24
((dp851
I00
I53068
sI01
I1
stp852
Rp853
sg28
I2
sg29
F53070.0
sbs(g10
S'contains(cold)'
p854
tp855
g0
(g17
g2
Ntp856
Rp857
(dp858
g21
F0.5
sg22
I49914
sg23
g24
((dp859
I00
I49909
sI01
I5
stp860
Rp861
sg28
I2
sg29
F49915.0
sbs(g12
S'contains(poorli)'
p862
tp863
g0
(g17
g2
Ntp864
Rp865
(dp866
g21
F0.5
sg22
I53069
sg23
g24
((dp867
I00
I53069
stp868
Rp869
sg28
I2
sg29
F53070.0
sbs(g12
S'contains(edg)'
p870
tp871
g0
(g17
g2
Ntp872
Rp873
(dp874
g21
F0.5
sg22
I53069
sg23
g24
((dp875
I00
I53058
sI01
I11
stp876
Rp877
sg28
I2
sg29
F53070.0
sbs(g10
S'contains(seriou)'
p878
tp879
g0
(g17
g2
Ntp880
Rp881
(dp882
g21
F0.5
sg22
I49914
sg23
g24
((dp883
I00
I49904
sI01
I10
stp884
Rp885
sg28
I2
sg29
F49915.0
sbs(g12
S'contains(interest)'
p886
tp887
g0
(g17
g2
Ntp888
Rp889
(dp890
g21
F0.5
sg22
I53069
sg23
g24
((dp891
I00
I52872
sI01
I197
stp892
Rp893
sg28
I2
sg29
F53070.0
sbs(g9
S'contains(pleasant)'
p894
tp895
g0
(g17
g2
Ntp896
Rp897
(dp898
g21
F0.5
sg22
I4809
sg23
g24
((dp899
I00
I4809
stp900
Rp901
sg28
I2
sg29
F4810.0
sbs(g10
S'contains(usual)'
p902
tp903
g0
(g17
g2
Ntp904
Rp905
(dp906
g21
F0.5
sg22
I49914
sg23
g24
((dp907
I00
I49886
sI01
I28
stp908
Rp909
sg28
I2
sg29
F49915.0
sbs(g11
S'contains(redund)'
p910
tp911
g0
(g17
g2
Ntp912
Rp913
(dp914
g21
F0.5
sg22
I24980
sg23
g24
((dp915
I00
I24955
sI01
I25
stp916
Rp917
sg28
I2
sg29
F24981.0
sbs(g9
S'contains(displac)'
p918
tp919
g0
(g17
g2
Ntp920
Rp921
(dp922
g21
F0.5
sg22
I4809
sg23
g24
((dp923
I00
I4805
sI01
I4
stp924
Rp925
sg28
I2
sg29
F4810.0
sbs(g9
S'contains(dirti)'
p926
tp927
g0
(g17
g2
Ntp928
Rp929
(dp930
g21
F0.5
sg22
I4809
sg23
g24
((dp931
I00
I4791
sI01
I18
stp932
Rp933
sg28
I2
sg29
F4810.0
sbs(g9
S'contains(ill)'
p934
tp935
g0
(g17
g2
Ntp936
Rp937
(dp938
g21
F0.5
sg22
I4809
sg23
g24
((dp939
I00
I4776
sI01
I33
stp940
Rp941
sg28
I2
sg29
F4810.0
sbs(g9
S'contains(lift)'
p942
tp943
g0
(g17
g2
Ntp944
Rp945
(dp946
g21
F0.5
sg22
I4809
sg23
g24
((dp947
I00
I4808
sI01
I1
stp948
Rp949
sg28
I2
sg29
F4810.0
sbs(g8
S'contains(desper)'
p950
tp951
g0
(g17
g2
Ntp952
Rp953
(dp954
g21
F0.5
sg22
I58606
sg23
g24
((dp955
I00
I58604
sI01
I2
stp956
Rp957
sg28
I2
sg29
F58607.0
sbs(g10
S'contains(fail)'
p958
tp959
g0
(g17
g2
Ntp960
Rp961
(dp962
g21
F0.5
sg22
I49914
sg23
g24
((dp963
I00
I49907
sI01
I7
stp964
Rp965
sg28
I2
sg29
F49915.0
sbs(g8
S'contains(complex)'
p966
tp967
g0
(g17
g2
Ntp968
Rp969
(dp970
g21
F0.5
sg22
I58606
sg23
g24
((dp971
I00
I58572
sI01
I34
stp972
Rp973
sg28
I2
sg29
F58607.0
sbs(g11
S'contains(excel)'
p974
tp975
g0
(g17
g2
Ntp976
Rp977
(dp978
g21
F0.5
sg22
I24980
sg23
g24
((dp979
I00
I24964
sI01
I16
stp980
Rp981
sg28
I2
sg29
F24981.0
sbs(g8
S'contains(ten)'
p982
tp983
g0
(g17
g2
Ntp984
Rp985
(dp986
g21
F0.5
sg22
I58606
sg23
g24
((dp987
I00
I58582
sI01
I24
stp988
Rp989
sg28
I2
sg29
F58607.0
sbs(g12
S'contains(typic)'
p990
tp991
g0
(g17
g2
Ntp992
Rp993
(dp994
g21
F0.5
sg22
I53069
sg23
g24
((dp995
I00
I53055
sI01
I14
stp996
Rp997
sg28
I2
sg29
F53070.0
sbs(g9
S'contains(illeg)'
p998
tp999
g0
(g17
g2
Ntp1000
Rp1001
(dp1002
g21
F0.5
sg22
I4809
sg23
g24
((dp1003
I00
I4800
sI01
I9
stp1004
Rp1005
sg28
I2
sg29
F4810.0
sbs(g10
S'contains(weird)'
p1006
tp1007
g0
(g17
g2
Ntp1008
Rp1009
(dp1010
g21
F0.5
sg22
I49914
sg23
g24
((dp1011
I00
I49914
stp1012
Rp1013
sg28
I2
sg29
F49915.0
sbs(g8
S'contains(horribl)'
p1014
tp1015
g0
(g17
g2
Ntp1016
Rp1017
(dp1018
g21
F0.5
sg22
I58606
sg23
g24
((dp1019
I00
I58604
sI01
I2
stp1020
Rp1021
sg28
I2
sg29
F58607.0
sbs(g9
S'contains(free)'
p1022
tp1023
g0
(g17
g2
Ntp1024
Rp1025
(dp1026
g21
F0.5
sg22
I4809
sg23
g24
((dp1027
I00
I4809
stp1028
Rp1029
sg28
I2
sg29
F4810.0
sbs(g8
S'contains(acut)'
p1030
tp1031
g0
(g17
g2
Ntp1032
Rp1033
(dp1034
g21
F0.5
sg22
I58606
sg23
g24
((dp1035
I00
I58600
sI01
I6
stp1036
Rp1037
sg28
I2
sg29
F58607.0
sbs(g11
S'contains(second)'
p1038
tp1039
g0
(g17
g2
Ntp1040
Rp1041
(dp1042
g21
F0.5
sg22
I24980
sg23
g24
((dp1043
I00
I24955
sI01
I25
stp1044
Rp1045
sg28
I2
sg29
F24981.0
sbs(g12
S'contains(needless)'
p1046
tp1047
g0
(g17
g2
Ntp1048
Rp1049
(dp1050
g21
F0.5
sg22
I53069
sg23
g24
((dp1051
I00
I53069
stp1052
Rp1053
sg28
I2
sg29
F53070.0
sbs(g12
S'contains(everyday)'
p1054
tp1055
g0
(g17
g2
Ntp1056
Rp1057
(dp1058
g21
F0.5
sg22
I53069
sg23
g24
((dp1059
I00
I53067
sI01
I2
stp1060
Rp1061
sg28
I2
sg29
F53070.0
sbs(g11
S'contains(societi)'
p1062
tp1063
g0
(g17
g2
Ntp1064
Rp1065
(dp1066
g21
F0.5
sg22
I24980
sg23
g24
((dp1067
I00
I24978
sI01
I2
stp1068
Rp1069
sg28
I2
sg29
F24981.0
sbs(g10
S'contains(illeg)'
p1070
tp1071
g0
(g17
g2
Ntp1072
Rp1073
(dp1074
g21
F0.5
sg22
I49914
sg23
g24
((dp1075
I00
I49914
stp1076
Rp1077
sg28
I2
sg29
F49915.0
sbs(g8
S'contains(wonder)'
p1078
tp1079
g0
(g17
g2
Ntp1080
Rp1081
(dp1082
g21
F0.5
sg22
I58606
sg23
g24
((dp1083
I00
I58498
sI01
I108
stp1084
Rp1085
sg28
I2
sg29
F58607.0
sbs(g11
S'contains(complex)'
p1086
tp1087
g0
(g17
g2
Ntp1088
Rp1089
(dp1090
g21
F0.5
sg22
I24980
sg23
g24
((dp1091
I00
I24828
sI01
I152
stp1092
Rp1093
sg28
I2
sg29
F24981.0
sbs(g10
S'contains(fault)'
p1094
tp1095
g0
(g17
g2
Ntp1096
Rp1097
(dp1098
g21
F0.5
sg22
I49914
sg23
g24
((dp1099
I00
I49913
sI01
I1
stp1100
Rp1101
sg28
I2
sg29
F49915.0
sbs(g8
S'contains(neg)'
p1102
tp1103
g0
(g17
g2
Ntp1104
Rp1105
(dp1106
g21
F0.5
sg22
I58606
sg23
g24
((dp1107
I00
I58581
sI01
I25
stp1108
Rp1109
sg28
I2
sg29
F58607.0
sbs(g11
S'contains(annoy)'
p1110
tp1111
g0
(g17
g2
Ntp1112
Rp1113
(dp1114
g21
F0.5
sg22
I24980
sg23
g24
((dp1115
I00
I24969
sI01
I11
stp1116
Rp1117
sg28
I2
sg29
F24981.0
sbs(g11
S'contains(usual)'
p1118
tp1119
g0
(g17
g2
Ntp1120
Rp1121
(dp1122
g21
F0.5
sg22
I24980
sg23
g24
((dp1123
I00
I24593
sI01
I387
stp1124
Rp1125
sg28
I2
sg29
F24981.0
sbs(g9
S'contains(fast)'
p1126
tp1127
g0
(g17
g2
Ntp1128
Rp1129
(dp1130
g21
F0.5
sg22
I4809
sg23
g24
((dp1131
I00
I4807
sI01
I2
stp1132
Rp1133
sg28
I2
sg29
F4810.0
sbs(g11
S'contains(honestli)'
p1134
tp1135
g0
(g17
g2
Ntp1136
Rp1137
(dp1138
g21
F0.5
sg22
I24980
sg23
g24
((dp1139
I00
I24965
sI01
I15
stp1140
Rp1141
sg28
I2
sg29
F24981.0
sbs(g11
S'contains(strong)'
p1142
tp1143
g0
(g17
g2
Ntp1144
Rp1145
(dp1146
g21
F0.5
sg22
I24980
sg23
g24
((dp1147
I00
I24966
sI01
I14
stp1148
Rp1149
sg28
I2
sg29
F24981.0
sbs(g10
S'contains(horribl)'
p1150
tp1151
g0
(g17
g2
Ntp1152
Rp1153
(dp1154
g21
F0.5
sg22
I49914
sg23
g24
((dp1155
I00
I49911
sI01
I3
stp1156
Rp1157
sg28
I2
sg29
F49915.0
sbs(g12
S'contains(love)'
p1158
tp1159
g0
(g17
g2
Ntp1160
Rp1161
(dp1162
g21
F0.5
sg22
I53069
sg23
g24
((dp1163
I00
I51693
sI01
I1376
stp1164
Rp1165
sg28
I2
sg29
F53070.0
sbs(g11
S'contains(angri)'
p1166
tp1167
g0
(g17
g2
Ntp1168
Rp1169
(dp1170
g21
F0.5
sg22
I24980
sg23
g24
((dp1171
I00
I24956
sI01
I24
stp1172
Rp1173
sg28
I2
sg29
F24981.0
sbs(g12
S'contains(weird)'
p1174
tp1175
g0
(g17
g2
Ntp1176
Rp1177
(dp1178
g21
F0.5
sg22
I53069
sg23
g24
((dp1179
I00
I53069
stp1180
Rp1181
sg28
I2
sg29
F53070.0
sbs(g9
S'contains(whole)'
p1182
tp1183
g0
(g17
g2
Ntp1184
Rp1185
(dp1186
g21
F0.5
sg22
I4809
sg23
g24
((dp1187
I00
I4809
stp1188
Rp1189
sg28
I2
sg29
F4810.0
sbs(g11
S'contains(outsid)'
p1190
tp1191
g0
(g17
g2
Ntp1192
Rp1193
(dp1194
g21
F0.5
sg22
I24980
sg23
g24
((dp1195
I00
I24937
sI01
I43
stp1196
Rp1197
sg28
I2
sg29
F24981.0
sbs(g8
S'contains(societi)'
p1198
tp1199
g0
(g17
g2
Ntp1200
Rp1201
(dp1202
g21
F0.5
sg22
I58606
sg23
g24
((dp1203
I00
I58598
sI01
I8
stp1204
Rp1205
sg28
I2
sg29
F58607.0
sbs(g12
S'contains(averag)'
p1206
tp1207
g0
(g17
g2
Ntp1208
Rp1209
(dp1210
g21
F0.5
sg22
I53069
sg23
g24
((dp1211
I00
I53057
sI01
I12
stp1212
Rp1213
sg28
I2
sg29
F53070.0
sbs(g11
S'contains(slow)'
p1214
tp1215
g0
(g17
g2
Ntp1216
Rp1217
(dp1218
g21
F0.5
sg22
I24980
sg23
g24
((dp1219
I00
I24446
sI01
I534
stp1220
Rp1221
sg28
I2
sg29
F24981.0
sbs(g10
S'contains(redund)'
p1222
tp1223
g0
(g17
g2
Ntp1224
Rp1225
(dp1226
g21
F0.5
sg22
I49914
sg23
g24
((dp1227
I00
I49910
sI01
I4
stp1228
Rp1229
sg28
I2
sg29
F49915.0
sbs(g8
S'contains(wrong)'
p1230
tp1231
g0
(g17
g2
Ntp1232
Rp1233
(dp1234
g21
F0.5
sg22
I58606
sg23
g24
((dp1235
I00
I58584
sI01
I22
stp1236
Rp1237
sg28
I2
sg29
F58607.0
sbs(g10
S'contains(nearli)'
p1238
tp1239
g0
(g17
g2
Ntp1240
Rp1241
(dp1242
g21
F0.5
sg22
I49914
sg23
g24
((dp1243
I00
I49888
sI01
I26
stp1244
Rp1245
sg28
I2
sg29
F49915.0
sbs(g10
S'contains(shoot)'
p1246
tp1247
g0
(g17
g2
Ntp1248
Rp1249
(dp1250
g21
F0.5
sg22
I49914
sg23
g24
((dp1251
I00
I49910
sI01
I4
stp1252
Rp1253
sg28
I2
sg29
F49915.0
sbs(g12
S'contains(yeah)'
p1254
tp1255
g0
(g17
g2
Ntp1256
Rp1257
(dp1258
g21
F0.5
sg22
I53069
sg23
g24
((dp1259
I00
I53068
sI01
I1
stp1260
Rp1261
sg28
I2
sg29
F53070.0
sbs(g9
S'contains(complex)'
p1262
tp1263
g0
(g17
g2
Ntp1264
Rp1265
(dp1266
g21
F0.5
sg22
I4809
sg23
g24
((dp1267
I00
I4809
stp1268
Rp1269
sg28
I2
sg29
F4810.0
sbs(g10
S'contains(careless)'
p1270
tp1271
g0
(g17
g2
Ntp1272
Rp1273
(dp1274
g21
F0.5
sg22
I49914
sg23
g24
((dp1275
I00
I49914
stp1276
Rp1277
sg28
I2
sg29
F49915.0
sbs(g12
S'contains(silli)'
p1278
tp1279
g0
(g17
g2
Ntp1280
Rp1281
(dp1282
g21
F0.5
sg22
I53069
sg23
g24
((dp1283
I00
I53069
stp1284
Rp1285
sg28
I2
sg29
F53070.0
sbs(g9
S'contains(frustrat)'
p1286
tp1287
g0
(g17
g2
Ntp1288
Rp1289
(dp1290
g21
F0.5
sg22
I4809
sg23
g24
((dp1291
I00
I4780
sI01
I29
stp1292
Rp1293
sg28
I2
sg29
F4810.0
sbs(g12
S'contains(top)'
p1294
tp1295
g0
(g17
g2
Ntp1296
Rp1297
(dp1298
g21
F0.5
sg22
I53069
sg23
g24
((dp1299
I00
I52979
sI01
I90
stp1300
Rp1301
sg28
I2
sg29
F53070.0
sbs(g9
S'contains(interest)'
p1302
tp1303
g0
(g17
g2
Ntp1304
Rp1305
(dp1306
g21
F0.5
sg22
I4809
sg23
g24
((dp1307
I00
I4808
sI01
I1
stp1308
Rp1309
sg28
I2
sg29
F4810.0
sbs(g8
S'contains(displac)'
p1310
tp1311
g0
(g17
g2
Ntp1312
Rp1313
(dp1314
g21
F0.5
sg22
I58606
sg23
g24
((dp1315
I00
I58606
stp1316
Rp1317
sg28
I2
sg29
F58607.0
sbs(g12
S'contains(fantast)'
p1318
tp1319
g0
(g17
g2
Ntp1320
Rp1321
(dp1322
g21
F0.5
sg22
I53069
sg23
g24
((dp1323
I00
I53046
sI01
I23
stp1324
Rp1325
sg28
I2
sg29
F53070.0
sbs(g8
S'contains(angri)'
p1326
tp1327
g0
(g17
g2
Ntp1328
Rp1329
(dp1330
g21
F0.5
sg22
I58606
sg23
g24
((dp1331
I00
I58605
sI01
I1
stp1332
Rp1333
sg28
I2
sg29
F58607.0
sbs(g12
S'contains(best)'
p1334
tp1335
g0
(g17
g2
Ntp1336
Rp1337
(dp1338
g21
F0.5
sg22
I53069
sg23
g24
((dp1339
I00
I48754
sI01
I4315
stp1340
Rp1341
sg28
I2
sg29
F53070.0
sbs(g8
S'contains(outsid)'
p1342
tp1343
g0
(g17
g2
Ntp1344
Rp1345
(dp1346
g21
F0.5
sg22
I58606
sg23
g24
((dp1347
I00
I58507
sI01
I99
stp1348
Rp1349
sg28
I2
sg29
F58607.0
sbs(g12
S'contains(wrong)'
p1350
tp1351
g0
(g17
g2
Ntp1352
Rp1353
(dp1354
g21
F0.5
sg22
I53069
sg23
g24
((dp1355
I00
I53069
stp1356
Rp1357
sg28
I2
sg29
F53070.0
sbs(g11
S'contains(bad)'
p1358
tp1359
g0
(g17
g2
Ntp1360
Rp1361
(dp1362
g21
F0.5
sg22
I24980
sg23
g24
((dp1363
I00
I24618
sI01
I362
stp1364
Rp1365
sg28
I2
sg29
F24981.0
sbs(g8
S'contains(wide)'
p1366
tp1367
g0
(g17
g2
Ntp1368
Rp1369
(dp1370
g21
F0.5
sg22
I58606
sg23
g24
((dp1371
I00
I58529
sI01
I77
stp1372
Rp1373
sg28
I2
sg29
F58607.0
sbs(g8
S'contains(fine)'
p1374
tp1375
g0
(g17
g2
Ntp1376
Rp1377
(dp1378
g21
F0.5
sg22
I58606
sg23
g24
((dp1379
I00
I58434
sI01
I172
stp1380
Rp1381
sg28
I2
sg29
F58607.0
sbs(g10
S'contains(unfair)'
p1382
tp1383
g0
(g17
g2
Ntp1384
Rp1385
(dp1386
g21
F0.5
sg22
I49914
sg23
g24
((dp1387
I00
I49905
sI01
I9
stp1388
Rp1389
sg28
I2
sg29
F49915.0
sbs(g8
S'contains(best)'
p1390
tp1391
g0
(g17
g2
Ntp1392
Rp1393
(dp1394
g21
F0.5
sg22
I58606
sg23
g24
((dp1395
I00
I57911
sI01
I695
stp1396
Rp1397
sg28
I2
sg29
F58607.0
sbs(g8
S'contains(nearli)'
p1398
tp1399
g0
(g17
g2
Ntp1400
Rp1401
(dp1402
g21
F0.5
sg22
I58606
sg23
g24
((dp1403
I00
I58595
sI01
I11
stp1404
Rp1405
sg28
I2
sg29
F58607.0
sbs(g10
S'contains(critic)'
p1406
tp1407
g0
(g17
g2
Ntp1408
Rp1409
(dp1410
g21
F0.5
sg22
I49914
sg23
g24
((dp1411
I00
I49813
sI01
I101
stp1412
Rp1413
sg28
I2
sg29
F49915.0
sbs(g8
S'contains(casual)'
p1414
tp1415
g0
(g17
g2
Ntp1416
Rp1417
(dp1418
g21
F0.5
sg22
I58606
sg23
g24
((dp1419
I00
I58601
sI01
I5
stp1420
Rp1421
sg28
I2
sg29
F58607.0
sbs(g10
S'contains(disorgan)'
p1422
tp1423
g0
(g17
g2
Ntp1424
Rp1425
(dp1426
g21
F0.5
sg22
I49914
sg23
g24
((dp1427
I00
I49903
sI01
I11
stp1428
Rp1429
sg28
I2
sg29
F49915.0
sbs(g10
S'contains(dull)'
p1430
tp1431
g0
(g17
g2
Ntp1432
Rp1433
(dp1434
g21
F0.5
sg22
I49914
sg23
g24
((dp1435
I00
I49913
sI01
I1
stp1436
Rp1437
sg28
I2
sg29
F49915.0
sbs(g11
S'contains(interest)'
p1438
tp1439
g0
(g17
g2
Ntp1440
Rp1441
(dp1442
g21
F0.5
sg22
I24980
sg23
g24
((dp1443
I00
I24946
sI01
I34
stp1444
Rp1445
sg28
I2
sg29
F24981.0
sbs(g12
S'contains(pleasant)'
p1446
tp1447
g0
(g17
g2
Ntp1448
Rp1449
(dp1450
g21
F0.5
sg22
I53069
sg23
g24
((dp1451
I00
I52895
sI01
I174
stp1452
Rp1453
sg28
I2
sg29
F53070.0
sbs(g12
S'contains(tremend)'
p1454
tp1455
g0
(g17
g2
Ntp1456
Rp1457
(dp1458
g21
F0.5
sg22
I53069
sg23
g24
((dp1459
I00
I53067
sI01
I2
stp1460
Rp1461
sg28
I2
sg29
F53070.0
sbs(g10
S'contains(fair)'
p1462
tp1463
g0
(g17
g2
Ntp1464
Rp1465
(dp1466
g21
F0.5
sg22
I49914
sg23
g24
((dp1467
I00
I49912
sI01
I2
stp1468
Rp1469
sg28
I2
sg29
F49915.0
sbs(g10
S'contains(excess)'
p1470
tp1471
g0
(g17
g2
Ntp1472
Rp1473
(dp1474
g21
F0.5
sg22
I49914
sg23
g24
((dp1475
I00
I49908
sI01
I6
stp1476
Rp1477
sg28
I2
sg29
F49915.0
sbs(g11
S'contains(lift)'
p1478
tp1479
g0
(g17
g2
Ntp1480
Rp1481
(dp1482
g21
F0.5
sg22
I24980
sg23
g24
((dp1483
I00
I24849
sI01
I131
stp1484
Rp1485
sg28
I2
sg29
F24981.0
sbs(g8
S'contains(bad)'
p1486
tp1487
g0
(g17
g2
Ntp1488
Rp1489
(dp1490
g21
F0.5
sg22
I58606
sg23
g24
((dp1491
I00
I58471
sI01
I135
stp1492
Rp1493
sg28
I2
sg29
F58607.0
sbs(g8
S'contains(faint)'
p1494
tp1495
g0
(g17
g2
Ntp1496
Rp1497
(dp1498
g21
F0.5
sg22
I58606
sg23
g24
((dp1499
I00
I58606
stp1500
Rp1501
sg28
I2
sg29
F58607.0
sbs(g11
S'contains(wide)'
p1502
tp1503
g0
(g17
g2
Ntp1504
Rp1505
(dp1506
g21
F0.5
sg22
I24980
sg23
g24
((dp1507
I00
I24815
sI01
I165
stp1508
Rp1509
sg28
I2
sg29
F24981.0
sbs(g10
S'contains(danger)'
p1510
tp1511
g0
(g17
g2
Ntp1512
Rp1513
(dp1514
g21
F0.5
sg22
I49914
sg23
g24
((dp1515
I00
I49914
stp1516
Rp1517
sg28
I2
sg29
F49915.0
sbs(g11
S'contains(careless)'
p1518
tp1519
g0
(g17
g2
Ntp1520
Rp1521
(dp1522
g21
F0.5
sg22
I24980
sg23
g24
((dp1523
I00
I24973
sI01
I7
stp1524
Rp1525
sg28
I2
sg29
F24981.0
sbs(g11
S'contains(useless)'
p1526
tp1527
g0
(g17
g2
Ntp1528
Rp1529
(dp1530
g21
F0.5
sg22
I24980
sg23
g24
((dp1531
I00
I24966
sI01
I14
stp1532
Rp1533
sg28
I2
sg29
F24981.0
sbs(g12
S'contains(tiresom)'
p1534
tp1535
g0
(g17
g2
Ntp1536
Rp1537
(dp1538
g21
F0.5
sg22
I53069
sg23
g24
((dp1539
I00
I53069
stp1540
Rp1541
sg28
I2
sg29
F53070.0
sbs(g10
S'contains(mirror)'
p1542
tp1543
g0
(g17
g2
Ntp1544
Rp1545
(dp1546
g21
F0.5
sg22
I49914
sg23
g24
((dp1547
I00
I49912
sI01
I2
stp1548
Rp1549
sg28
I2
sg29
F49915.0
sbs(g12
S'contains(horribl)'
p1550
tp1551
g0
(g17
g2
Ntp1552
Rp1553
(dp1554
g21
F0.5
sg22
I53069
sg23
g24
((dp1555
I00
I53068
sI01
I1
stp1556
Rp1557
sg28
I2
sg29
F53070.0
sbs(g10
S'contains(easi)'
p1558
tp1559
g0
(g17
g2
Ntp1560
Rp1561
(dp1562
g21
F0.5
sg22
I49914
sg23
g24
((dp1563
I00
I49892
sI01
I22
stp1564
Rp1565
sg28
I2
sg29
F49915.0
sbs(g8
S'contains(dull)'
p1566
tp1567
g0
(g17
g2
Ntp1568
Rp1569
(dp1570
g21
F0.5
sg22
I58606
sg23
g24
((dp1571
I00
I58568
sI01
I38
stp1572
Rp1573
sg28
I2
sg29
F58607.0
sbs(g10
S'contains(averag)'
p1574
tp1575
g0
(g17
g2
Ntp1576
Rp1577
(dp1578
g21
F0.5
sg22
I49914
sg23
g24
((dp1579
I00
I49839
sI01
I75
stp1580
Rp1581
sg28
I2
sg29
F49915.0
sbs(g12
S'contains(honestli)'
p1582
tp1583
g0
(g17
g2
Ntp1584
Rp1585
(dp1586
g21
F0.5
sg22
I53069
sg23
g24
((dp1587
I00
I53000
sI01
I69
stp1588
Rp1589
sg28
I2
sg29
F53070.0
sbs(g9
S'contains(cold)'
p1590
tp1591
g0
(g17
g2
Ntp1592
Rp1593
(dp1594
g21
F0.5
sg22
I4809
sg23
g24
((dp1595
I00
I4759
sI01
I50
stp1596
Rp1597
sg28
I2
sg29
F4810.0
sbs(g10
S'contains(free)'
p1598
tp1599
g0
(g17
g2
Ntp1600
Rp1601
(dp1602
g21
F0.5
sg22
I49914
sg23
g24
((dp1603
I00
I49904
sI01
I10
stp1604
Rp1605
sg28
I2
sg29
F49915.0
sbs(g12
S'contains(fair)'
p1606
tp1607
g0
(g17
g2
Ntp1608
Rp1609
(dp1610
g21
F0.5
sg22
I53069
sg23
g24
((dp1611
I00
I52783
sI01
I286
stp1612
Rp1613
sg28
I2
sg29
F53070.0
sbs(g9
S'contains(independ)'
p1614
tp1615
g0
(g17
g2
Ntp1616
Rp1617
(dp1618
g21
F0.5
sg22
I4809
sg23
g24
((dp1619
I00
I4809
stp1620
Rp1621
sg28
I2
sg29
F4810.0
sbs(g10
S'contains(top)'
p1622
tp1623
g0
(g17
g2
Ntp1624
Rp1625
(dp1626
g21
F0.5
sg22
I49914
sg23
g24
((dp1627
I00
I49881
sI01
I33
stp1628
Rp1629
sg28
I2
sg29
F49915.0
sbs(g11
S'contains(destroy)'
p1630
tp1631
g0
(g17
g2
Ntp1632
Rp1633
(dp1634
g21
F0.5
sg22
I24980
sg23
g24
((dp1635
I00
I24850
sI01
I130
stp1636
Rp1637
sg28
I2
sg29
F24981.0
sbs(g12
S'contains(second)'
p1638
tp1639
g0
(g17
g2
Ntp1640
Rp1641
(dp1642
g21
F0.5
sg22
I53069
sg23
g24
((dp1643
I00
I53068
sI01
I1
stp1644
Rp1645
sg28
I2
sg29
F53070.0
sbs(g12
S'contains(amaz)'
p1646
tp1647
g0
(g17
g2
Ntp1648
Rp1649
(dp1650
g21
F0.5
sg22
I53069
sg23
g24
((dp1651
I00
I51849
sI01
I1220
stp1652
Rp1653
sg28
I2
sg29
F53070.0
sbs(g10
S'contains(left)'
p1654
tp1655
g0
(g17
g2
Ntp1656
Rp1657
(dp1658
g21
F0.5
sg22
I49914
sg23
g24
((dp1659
I00
I49809
sI01
I105
stp1660
Rp1661
sg28
I2
sg29
F49915.0
sbs(g9
S'contains(wonder)'
p1662
tp1663
g0
(g17
g2
Ntp1664
Rp1665
(dp1666
g21
F0.5
sg22
I4809
sg23
g24
((dp1667
I00
I4807
sI01
I2
stp1668
Rp1669
sg28
I2
sg29
F4810.0
sbs(g11
S'contains(sick)'
p1670
tp1671
g0
(g17
g2
Ntp1672
Rp1673
(dp1674
g21
F0.5
sg22
I24980
sg23
g24
((dp1675
I00
I24909
sI01
I71
stp1676
Rp1677
sg28
I2
sg29
F24981.0
sbs(g10
S'contains(corrupt)'
p1678
tp1679
g0
(g17
g2
Ntp1680
Rp1681
(dp1682
g21
F0.5
sg22
I49914
sg23
g24
((dp1683
I00
I49911
sI01
I3
stp1684
Rp1685
sg28
I2
sg29
F49915.0
sbs(g9
S'contains(uncomfort)'
p1686
tp1687
g0
(g17
g2
Ntp1688
Rp1689
(dp1690
g21
F0.5
sg22
I4809
sg23
g24
((dp1691
I00
I4790
sI01
I19
stp1692
Rp1693
sg28
I2
sg29
F4810.0
sbs(g8
S'contains(blind)'
p1694
tp1695
g0
(g17
g2
Ntp1696
Rp1697
(dp1698
g21
F0.5
sg22
I58606
sg23
g24
((dp1699
I00
I58604
sI01
I2
stp1700
Rp1701
sg28
I2
sg29
F58607.0
sbs(g9
S'contains(badli)'
p1702
tp1703
g0
(g17
g2
Ntp1704
Rp1705
(dp1706
g21
F0.5
sg22
I4809
sg23
g24
((dp1707
I00
I4788
sI01
I21
stp1708
Rp1709
sg28
I2
sg29
F4810.0
sbs(g9
S'contains(acut)'
p1710
tp1711
g0
(g17
g2
Ntp1712
Rp1713
(dp1714
g21
F0.5
sg22
I4809
sg23
g24
((dp1715
I00
I4809
stp1716
Rp1717
sg28
I2
sg29
F4810.0
sbs(g8
S'contains(depress)'
p1718
tp1719
g0
(g17
g2
Ntp1720
Rp1721
(dp1722
g21
F0.5
sg22
I58606
sg23
g24
((dp1723
I00
I58605
sI01
I1
stp1724
Rp1725
sg28
I2
sg29
F58607.0
sbs(g12
S'contains(sure)'
p1726
tp1727
g0
(g17
g2
Ntp1728
Rp1729
(dp1730
g21
F0.5
sg22
I53069
sg23
g24
((dp1731
I00
I52898
sI01
I171
stp1732
Rp1733
sg28
I2
sg29
F53070.0
sbs(g8
S'contains(seriou)'
p1734
tp1735
g0
(g17
g2
Ntp1736
Rp1737
(dp1738
g21
F0.5
sg22
I58606
sg23
g24
((dp1739
I00
I58594
sI01
I12
stp1740
Rp1741
sg28
I2
sg29
F58607.0
sbs(g9
S'contains(sure)'
p1742
tp1743
g0
(g17
g2
Ntp1744
Rp1745
(dp1746
g21
F0.5
sg22
I4809
sg23
g24
((dp1747
I00
I4808
sI01
I1
stp1748
Rp1749
sg28
I2
sg29
F4810.0
sbs(g12
S'contains(disorgan)'
p1750
tp1751
g0
(g17
g2
Ntp1752
Rp1753
(dp1754
g21
F0.5
sg22
I53069
sg23
g24
((dp1755
I00
I53068
sI01
I1
stp1756
Rp1757
sg28
I2
sg29
F53070.0
sbs(g12
S'contains(dull)'
p1758
tp1759
g0
(g17
g2
Ntp1760
Rp1761
(dp1762
g21
F0.5
sg22
I53069
sg23
g24
((dp1763
I00
I53068
sI01
I1
stp1764
Rp1765
sg28
I2
sg29
F53070.0
sbs(g11
S'contains(uniqu)'
p1766
tp1767
g0
(g17
g2
Ntp1768
Rp1769
(dp1770
g21
F0.5
sg22
I24980
sg23
g24
((dp1771
I00
I24979
sI01
I1
stp1772
Rp1773
sg28
I2
sg29
F24981.0
sbs(g11
S'contains(latest)'
p1774
tp1775
g0
(g17
g2
Ntp1776
Rp1777
(dp1778
g21
F0.5
sg22
I24980
sg23
g24
((dp1779
I00
I24979
sI01
I1
stp1780
Rp1781
sg28
I2
sg29
F24981.0
sbs(g11
S'contains(miser)'
p1782
tp1783
g0
(g17
g2
Ntp1784
Rp1785
(dp1786
g21
F0.5
sg22
I24980
sg23
g24
((dp1787
I00
I24963
sI01
I17
stp1788
Rp1789
sg28
I2
sg29
F24981.0
sbs(g9
S'contains(top)'
p1790
tp1791
g0
(g17
g2
Ntp1792
Rp1793
(dp1794
g21
F0.5
sg22
I4809
sg23
g24
((dp1795
I00
I4807
sI01
I2
stp1796
Rp1797
sg28
I2
sg29
F4810.0
sbs(g10
S'contains(tremend)'
p1798
tp1799
g0
(g17
g2
Ntp1800
Rp1801
(dp1802
g21
F0.5
sg22
I49914
sg23
g24
((dp1803
I00
I49908
sI01
I6
stp1804
Rp1805
sg28
I2
sg29
F49915.0
sbs(g9
S'contains(enjoy)'
p1806
tp1807
g0
(g17
g2
Ntp1808
Rp1809
(dp1810
g21
F0.5
sg22
I4809
sg23
g24
((dp1811
I00
I4809
stp1812
Rp1813
sg28
I2
sg29
F4810.0
sbs(g12
S'contains(wonder)'
p1814
tp1815
g0
(g17
g2
Ntp1816
Rp1817
(dp1818
g21
F0.5
sg22
I53069
sg23
g24
((dp1819
I00
I51916
sI01
I1153
stp1820
Rp1821
sg28
I2
sg29
F53070.0
sbs(g10
S'contains(less)'
p1822
tp1823
g0
(g17
g2
Ntp1824
Rp1825
(dp1826
g21
F0.5
sg22
I49914
sg23
g24
((dp1827
I00
I49799
sI01
I115
stp1828
Rp1829
sg28
I2
sg29
F49915.0
sbs(g12
S'contains(scenario)'
p1830
tp1831
g0
(g17
g2
Ntp1832
Rp1833
(dp1834
g21
F0.5
sg22
I53069
sg23
g24
((dp1835
I00
I53068
sI01
I1
stp1836
Rp1837
sg28
I2
sg29
F53070.0
sbs(g11
S'contains(entir)'
p1838
tp1839
g0
(g17
g2
Ntp1840
Rp1841
(dp1842
g21
F0.5
sg22
I24980
sg23
g24
((dp1843
I00
I24929
sI01
I51
stp1844
Rp1845
sg28
I2
sg29
F24981.0
sbs(g10
S'contains(sever)'
p1846
tp1847
g0
(g17
g2
Ntp1848
Rp1849
(dp1850
g21
F0.5
sg22
I49914
sg23
g24
((dp1851
I00
I49691
sI01
I223
stp1852
Rp1853
sg28
I2
sg29
F49915.0
sbs(g11
S'contains(spent)'
p1854
tp1855
g0
(g17
g2
Ntp1856
Rp1857
(dp1858
g21
F0.5
sg22
I24980
sg23
g24
((dp1859
I00
I24791
sI01
I189
stp1860
Rp1861
sg28
I2
sg29
F24981.0
sbs(g11
S'contains(poorli)'
p1862
tp1863
g0
(g17
g2
Ntp1864
Rp1865
(dp1866
g21
F0.5
sg22
I24980
sg23
g24
((dp1867
I00
I24890
sI01
I90
stp1868
Rp1869
sg28
I2
sg29
F24981.0
sbs(g11
S'contains(easi)'
p1870
tp1871
g0
(g17
g2
Ntp1872
Rp1873
(dp1874
g21
F0.5
sg22
I24980
sg23
g24
((dp1875
I00
I24929
sI01
I51
stp1876
Rp1877
sg28
I2
sg29
F24981.0
sbs(g11
S'contains(depress)'
p1878
tp1879
g0
(g17
g2
Ntp1880
Rp1881
(dp1882
g21
F0.5
sg22
I24980
sg23
g24
((dp1883
I00
I24963
sI01
I17
stp1884
Rp1885
sg28
I2
sg29
F24981.0
sbs(g10
S'contains(blind)'
p1886
tp1887
g0
(g17
g2
Ntp1888
Rp1889
(dp1890
g21
F0.5
sg22
I49914
sg23
g24
((dp1891
I00
I49913
sI01
I1
stp1892
Rp1893
sg28
I2
sg29
F49915.0
sbs(g12
S'contains(left)'
p1894
tp1895
g0
(g17
g2
Ntp1896
Rp1897
(dp1898
g21
F0.5
sg22
I53069
sg23
g24
((dp1899
I00
I53067
sI01
I2
stp1900
Rp1901
sg28
I2
sg29
F53070.0
sbs(g12
S'contains(mirror)'
p1902
tp1903
g0
(g17
g2
Ntp1904
Rp1905
(dp1906
g21
F0.5
sg22
I53069
sg23
g24
((dp1907
I00
I53067
sI01
I2
stp1908
Rp1909
sg28
I2
sg29
F53070.0
sbs(g8
S'contains(uniqu)'
p1910
tp1911
g0
(g17
g2
Ntp1912
Rp1913
(dp1914
g21
F0.5
sg22
I58606
sg23
g24
((dp1915
I00
I58450
sI01
I156
stp1916
Rp1917
sg28
I2
sg29
F58607.0
sbs(g8
S'contains(latest)'
p1918
tp1919
g0
(g17
g2
Ntp1920
Rp1921
(dp1922
g21
F0.5
sg22
I58606
sg23
g24
((dp1923
I00
I58349
sI01
I257
stp1924
Rp1925
sg28
I2
sg29
F58607.0
sbs(g12
S'contains(desper)'
p1926
tp1927
g0
(g17
g2
Ntp1928
Rp1929
(dp1930
g21
F0.5
sg22
I53069
sg23
g24
((dp1931
I00
I53069
stp1932
Rp1933
sg28
I2
sg29
F53070.0
sbs(g11
S'contains(top)'
p1934
tp1935
g0
(g17
g2
Ntp1936
Rp1937
(dp1938
g21
F0.5
sg22
I24980
sg23
g24
((dp1939
I00
I24974
sI01
I6
stp1940
Rp1941
sg28
I2
sg29
F24981.0
sbs(g12
S'contains(shoot)'
p1942
tp1943
g0
(g17
g2
Ntp1944
Rp1945
(dp1946
g21
F0.5
sg22
I53069
sg23
g24
((dp1947
I00
I53068
sI01
I1
stp1948
Rp1949
sg28
I2
sg29
F53070.0
sbs(g10
S'contains(yeah)'
p1950
tp1951
g0
(g17
g2
Ntp1952
Rp1953
(dp1954
g21
F0.5
sg22
I49914
sg23
g24
((dp1955
I00
I49913
sI01
I1
stp1956
Rp1957
sg28
I2
sg29
F49915.0
sbs(g9
S'contains(good)'
p1958
tp1959
g0
(g17
g2
Ntp1960
Rp1961
(dp1962
g21
F0.5
sg22
I4809
sg23
g24
((dp1963
I00
I4802
sI01
I7
stp1964
Rp1965
sg28
I2
sg29
F4810.0
sbs(g10
S'contains(differ)'
p1966
tp1967
g0
(g17
g2
Ntp1968
Rp1969
(dp1970
g21
F0.5
sg22
I49914
sg23
g24
((dp1971
I00
I48586
sI01
I1328
stp1972
Rp1973
sg28
I2
sg29
F49915.0
sbs(g9
S'contains(brutal)'
p1974
tp1975
g0
(g17
g2
Ntp1976
Rp1977
(dp1978
g21
F0.5
sg22
I4809
sg23
g24
((dp1979
I00
I4795
sI01
I14
stp1980
Rp1981
sg28
I2
sg29
F4810.0
sbs(g8
S'contains(traffic)'
p1982
tp1983
g0
(g17
g2
Ntp1984
Rp1985
(dp1986
g21
F0.5
sg22
I58606
sg23
g24
((dp1987
I00
I58595
sI01
I11
stp1988
Rp1989
sg28
I2
sg29
F58607.0
sbs(g12
S'contains(frustrat)'
p1990
tp1991
g0
(g17
g2
Ntp1992
Rp1993
(dp1994
g21
F0.5
sg22
I53069
sg23
g24
((dp1995
I00
I53060
sI01
I9
stp1996
Rp1997
sg28
I2
sg29
F53070.0
sbs(g11
S'contains(complic)'
p1998
tp1999
g0
(g17
g2
Ntp2000
Rp2001
(dp2002
g21
F0.5
sg22
I24980
sg23
g24
((dp2003
I00
I24949
sI01
I31
stp2004
Rp2005
sg28
I2
sg29
F24981.0
sbs(g9
S'contains(center)'
p2006
tp2007
g0
(g17
g2
Ntp2008
Rp2009
(dp2010
g21
F0.5
sg22
I4809
sg23
g24
((dp2011
I00
I4808
sI01
I1
stp2012
Rp2013
sg28
I2
sg29
F4810.0
sbs(g8
S'contains(firm)'
p2014
tp2015
g0
(g17
g2
Ntp2016
Rp2017
(dp2018
g21
F0.5
sg22
I58606
sg23
g24
((dp2019
I00
I58523
sI01
I83
stp2020
Rp2021
sg28
I2
sg29
F58607.0
sbs(g11
S'contains(corrupt)'
p2022
tp2023
g0
(g17
g2
Ntp2024
Rp2025
(dp2026
g21
F0.5
sg22
I24980
sg23
g24
((dp2027
I00
I24977
sI01
I3
stp2028
Rp2029
sg28
I2
sg29
F24981.0
sbs(g12
S'contains(whole)'
p2030
tp2031
g0
(g17
g2
Ntp2032
Rp2033
(dp2034
g21
F0.5
sg22
I53069
sg23
g24
((dp2035
I00
I53057
sI01
I12
stp2036
Rp2037
sg28
I2
sg29
F53070.0
sbs(g8
S'contains(easi)'
p2038
tp2039
g0
(g17
g2
Ntp2040
Rp2041
(dp2042
g21
F0.5
sg22
I58606
sg23
g24
((dp2043
I00
I57731
sI01
I875
stp2044
Rp2045
sg28
I2
sg29
F58607.0
sbs(g12
S'contains(behind)'
p2046
tp2047
g0
(g17
g2
Ntp2048
Rp2049
(dp2050
g21
F0.5
sg22
I53069
sg23
g24
((dp2051
I00
I53069
stp2052
Rp2053
sg28
I2
sg29
F53070.0
sbs(g11
S'contains(weird)'
p2054
tp2055
g0
(g17
g2
Ntp2056
Rp2057
(dp2058
g21
F0.5
sg22
I24980
sg23
g24
((dp2059
I00
I24974
sI01
I6
stp2060
Rp2061
sg28
I2
sg29
F24981.0
sbs(g10
S'contains(hard)'
p2062
tp2063
g0
(g17
g2
Ntp2064
Rp2065
(dp2066
g21
F0.5
sg22
I49914
sg23
g24
((dp2067
I00
I49575
sI01
I339
stp2068
Rp2069
sg28
I2
sg29
F49915.0
sbs(g10
S'contains(second)'
p2070
tp2071
g0
(g17
g2
Ntp2072
Rp2073
(dp2074
g21
F0.5
sg22
I49914
sg23
g24
((dp2075
I00
I49850
sI01
I64
stp2076
Rp2077
sg28
I2
sg29
F49915.0
sbs(g12
S'contains(sever)'
p2078
tp2079
g0
(g17
g2
Ntp2080
Rp2081
(dp2082
g21
F0.5
sg22
I53069
sg23
g24
((dp2083
I00
I53065
sI01
I4
stp2084
Rp2085
sg28
I2
sg29
F53070.0
sbs(g11
S'contains(short)'
p2086
tp2087
g0
(g17
g2
Ntp2088
Rp2089
(dp2090
g21
F0.5
sg22
I24980
sg23
g24
((dp2091
I00
I24944
sI01
I36
stp2092
Rp2093
sg28
I2
sg29
F24981.0
sbs(g9
S'contains(invent)'
p2094
tp2095
g0
(g17
g2
Ntp2096
Rp2097
(dp2098
g21
F0.5
sg22
I4809
sg23
g24
((dp2099
I00
I4809
stp2100
Rp2101
sg28
I2
sg29
F4810.0
sbs(g9
S'contains(capabl)'
p2102
tp2103
g0
(g17
g2
Ntp2104
Rp2105
(dp2106
g21
F0.5
sg22
I4809
sg23
g24
((dp2107
I00
I4809
stp2108
Rp2109
sg28
I2
sg29
F4810.0
sbs(g11
S'contains(tremend)'
p2110
tp2111
g0
(g17
g2
Ntp2112
Rp2113
(dp2114
g21
F0.5
sg22
I24980
sg23
g24
((dp2115
I00
I24976
sI01
I4
stp2116
Rp2117
sg28
I2
sg29
F24981.0
sbs(g10
S'contains(desper)'
p2118
tp2119
g0
(g17
g2
Ntp2120
Rp2121
(dp2122
g21
F0.5
sg22
I49914
sg23
g24
((dp2123
I00
I49912
sI01
I2
stp2124
Rp2125
sg28
I2
sg29
F49915.0
sbs(g8
S'contains(yeah)'
p2126
tp2127
g0
(g17
g2
Ntp2128
Rp2129
(dp2130
g21
F0.5
sg22
I58606
sg23
g24
((dp2131
I00
I58605
sI01
I1
stp2132
Rp2133
sg28
I2
sg29
F58607.0
sbs(g8
S'contains(fail)'
p2134
tp2135
g0
(g17
g2
Ntp2136
Rp2137
(dp2138
g21
F0.5
sg22
I58606
sg23
g24
((dp2139
I00
I58599
sI01
I7
stp2140
Rp2141
sg28
I2
sg29
F58607.0
sbs(g12
S'contains(invalu)'
p2142
tp2143
g0
(g17
g2
Ntp2144
Rp2145
(dp2146
g21
F0.5
sg22
I53069
sg23
g24
((dp2147
I00
I53067
sI01
I2
stp2148
Rp2149
sg28
I2
sg29
F53070.0
sbs(g12
S'contains(cold)'
p2150
tp2151
g0
(g17
g2
Ntp2152
Rp2153
(dp2154
g21
F0.5
sg22
I53069
sg23
g24
((dp2155
I00
I53069
stp2156
Rp2157
sg28
I2
sg29
F53070.0
sbs(g8
S'contains(complic)'
p2158
tp2159
g0
(g17
g2
Ntp2160
Rp2161
(dp2162
g21
F0.5
sg22
I58606
sg23
g24
((dp2163
I00
I58589
sI01
I17
stp2164
Rp2165
sg28
I2
sg29
F58607.0
sbs(g9
S'contains(short)'
p2166
tp2167
g0
(g17
g2
Ntp2168
Rp2169
(dp2170
g21
F0.5
sg22
I4809
sg23
g24
((dp2171
I00
I4809
stp2172
Rp2173
sg28
I2
sg29
F4810.0
sbs(g9
S'contains(behind)'
p2174
tp2175
g0
(g17
g2
Ntp2176
Rp2177
(dp2178
g21
F0.5
sg22
I4809
sg23
g24
((dp2179
I00
I4805
sI01
I4
stp2180
Rp2181
sg28
I2
sg29
F4810.0
sbs(g9
S'contains(current)'
p2182
tp2183
g0
(g17
g2
Ntp2184
Rp2185
(dp2186
g21
F0.5
sg22
I4809
sg23
g24
((dp2187
I00
I4807
sI01
I2
stp2188
Rp2189
sg28
I2
sg29
F4810.0
sbs(g10
S'contains(firm)'
p2190
tp2191
g0
(g17
g2
Ntp2192
Rp2193
(dp2194
g21
F0.5
sg22
I49914
sg23
g24
((dp2195
I00
I49877
sI01
I37
stp2196
Rp2197
sg28
I2
sg29
F49915.0
sbs(g8
S'contains(weird)'
p2198
tp2199
g0
(g17
g2
Ntp2200
Rp2201
(dp2202
g21
F0.5
sg22
I58606
sg23
g24
((dp2203
I00
I58605
sI01
I1
stp2204
Rp2205
sg28
I2
sg29
F58607.0
sbs(g10
S'contains(add)'
p2206
tp2207
g0
(g17
g2
Ntp2208
Rp2209
(dp2210
g21
F0.5
sg22
I49914
sg23
g24
((dp2211
I00
I49874
sI01
I40
stp2212
Rp2213
sg28
I2
sg29
F49915.0
sbs(g9
S'contains(scenario)'
p2214
tp2215
g0
(g17
g2
Ntp2216
Rp2217
(dp2218
g21
F0.5
sg22
I4809
sg23
g24
((dp2219
I00
I4804
sI01
I5
stp2220
Rp2221
sg28
I2
sg29
F4810.0
sbs(g10
S'contains(littl)'
p2222
tp2223
g0
(g17
g2
Ntp2224
Rp2225
(dp2226
g21
F0.5
sg22
I49914
sg23
g24
((dp2227
I00
I49758
sI01
I156
stp2228
Rp2229
sg28
I2
sg29
F49915.0
sbs(g9
S'contains(tiresom)'
p2230
tp2231
g0
(g17
g2
Ntp2232
Rp2233
(dp2234
g21
F0.5
sg22
I4809
sg23
g24
((dp2235
I00
I4790
sI01
I19
stp2236
Rp2237
sg28
I2
sg29
F4810.0
sbs(g12
S'contains(less)'
p2238
tp2239
g0
(g17
g2
Ntp2240
Rp2241
(dp2242
g21
F0.5
sg22
I53069
sg23
g24
((dp2243
I00
I53061
sI01
I8
stp2244
Rp2245
sg28
I2
sg29
F53070.0
sbs(g10
S'contains(troubl)'
p2246
tp2247
g0
(g17
g2
Ntp2248
Rp2249
(dp2250
g21
F0.5
sg22
I49914
sg23
g24
((dp2251
I00
I49904
sI01
I10
stp2252
Rp2253
sg28
I2
sg29
F49915.0
sbs(g12
S'contains(fail)'
p2254
tp2255
g0
(g17
g2
Ntp2256
Rp2257
(dp2258
g21
F0.5
sg22
I53069
sg23
g24
((dp2259
I00
I53069
stp2260
Rp2261
sg28
I2
sg29
F53070.0
sbs(g9
S'contains(miser)'
p2262
tp2263
g0
(g17
g2
Ntp2264
Rp2265
(dp2266
g21
F0.5
sg22
I4809
sg23
g24
((dp2267
I00
I4748
sI01
I61
stp2268
Rp2269
sg28
I2
sg29
F4810.0
sbs(g10
S'contains(readi)'
p2270
tp2271
g0
(g17
g2
Ntp2272
Rp2273
(dp2274
g21
F0.5
sg22
I49914
sg23
g24
((dp2275
I00
I49878
sI01
I36
stp2276
Rp2277
sg28
I2
sg29
F49915.0
sbs(g9
S'contains(invalu)'
p2278
tp2279
g0
(g17
g2
Ntp2280
Rp2281
(dp2282
g21
F0.5
sg22
I4809
sg23
g24
((dp2283
I00
I4809
stp2284
Rp2285
sg28
I2
sg29
F4810.0
sbs(g9
S'contains(proud)'
p2286
tp2287
g0
(g17
g2
Ntp2288
Rp2289
(dp2290
g21
F0.5
sg22
I4809
sg23
g24
((dp2291
I00
I4809
stp2292
Rp2293
sg28
I2
sg29
F4810.0
sbs(g11
S'contains(differ)'
p2294
tp2295
g0
(g17
g2
Ntp2296
Rp2297
(dp2298
g21
F0.5
sg22
I24980
sg23
g24
((dp2299
I00
I24787
sI01
I193
stp2300
Rp2301
sg28
I2
sg29
F24981.0
sbs(g11
S'contains(consist)'
p2302
tp2303
g0
(g17
g2
Ntp2304
Rp2305
(dp2306
g21
F0.5
sg22
I24980
sg23
g24
((dp2307
I00
I24662
sI01
I318
stp2308
Rp2309
sg28
I2
sg29
F24981.0
sbs(g8
S'contains(decent)'
p2310
tp2311
g0
(g17
g2
Ntp2312
Rp2313
(dp2314
g21
F0.5
sg22
I58606
sg23
g24
((dp2315
I00
I58181
sI01
I425
stp2316
Rp2317
sg28
I2
sg29
F58607.0
sbs(g10
S'contains(complic)'
p2318
tp2319
g0
(g17
g2
Ntp2320
Rp2321
(dp2322
g21
F0.5
sg22
I49914
sg23
g24
((dp2323
I00
I49901
sI01
I13
stp2324
Rp2325
sg28
I2
sg29
F49915.0
sbs(g10
S'contains(needless)'
p2326
tp2327
g0
(g17
g2
Ntp2328
Rp2329
(dp2330
g21
F0.5
sg22
I49914
sg23
g24
((dp2331
I00
I49914
stp2332
Rp2333
sg28
I2
sg29
F49915.0
sbs(g12
S'contains(exhaust)'
p2334
tp2335
g0
(g17
g2
Ntp2336
Rp2337
(dp2338
g21
F0.5
sg22
I53069
sg23
g24
((dp2339
I00
I53069
stp2340
Rp2341
sg28
I2
sg29
F53070.0
sbs(g10
S'contains(rude)'
p2342
tp2343
g0
(g17
g2
Ntp2344
Rp2345
(dp2346
g21
F0.5
sg22
I49914
sg23
g24
((dp2347
I00
I49906
sI01
I8
stp2348
Rp2349
sg28
I2
sg29
F49915.0
sbs(g12
S'contains(free)'
p2350
tp2351
g0
(g17
g2
Ntp2352
Rp2353
(dp2354
g21
F0.5
sg22
I53069
sg23
g24
((dp2355
I00
I52995
sI01
I74
stp2356
Rp2357
sg28
I2
sg29
F53070.0
sbs(g12
S'contains(illeg)'
p2358
tp2359
g0
(g17
g2
Ntp2360
Rp2361
(dp2362
g21
F0.5
sg22
I53069
sg23
g24
((dp2363
I00
I53069
stp2364
Rp2365
sg28
I2
sg29
F53070.0
sbs(g11
S'contains(someday)'
p2366
tp2367
g0
(g17
g2
Ntp2368
Rp2369
(dp2370
g21
F0.5
sg22
I24980
sg23
g24
((dp2371
I00
I24980
stp2372
Rp2373
sg28
I2
sg29
F24981.0
sbs(g9
S'contains(shoot)'
p2374
tp2375
g0
(g17
g2
Ntp2376
Rp2377
(dp2378
g21
F0.5
sg22
I4809
sg23
g24
((dp2379
I00
I4808
sI01
I1
stp2380
Rp2381
sg28
I2
sg29
F4810.0
sbs(g12
S'contains(firm)'
p2382
tp2383
g0
(g17
g2
Ntp2384
Rp2385
(dp2386
g21
F0.5
sg22
I53069
sg23
g24
((dp2387
I00
I53060
sI01
I9
stp2388
Rp2389
sg28
I2
sg29
F53070.0
sbs(g11
S'contains(fast)'
p2390
tp2391
g0
(g17
g2
Ntp2392
Rp2393
(dp2394
g21
F0.5
sg22
I24980
sg23
g24
((dp2395
I00
I24925
sI01
I55
stp2396
Rp2397
sg28
I2
sg29
F24981.0
sbs(g8
S'contains(shoot)'
p2398
tp2399
g0
(g17
g2
Ntp2400
Rp2401
(dp2402
g21
F0.5
sg22
I58606
sg23
g24
((dp2403
I00
I58601
sI01
I5
stp2404
Rp2405
sg28
I2
sg29
F58607.0
sbs(g8
S'contains(consist)'
p2406
tp2407
g0
(g17
g2
Ntp2408
Rp2409
(dp2410
g21
F0.5
sg22
I58606
sg23
g24
((dp2411
I00
I58432
sI01
I174
stp2412
Rp2413
sg28
I2
sg29
F58607.0
sbs(g9
S'contains(awesom)'
p2414
tp2415
g0
(g17
g2
Ntp2416
Rp2417
(dp2418
g21
F0.5
sg22
I4809
sg23
g24
((dp2419
I00
I4809
stp2420
Rp2421
sg28
I2
sg29
F4810.0
sbs(g10
S'contains(past)'
p2422
tp2423
g0
(g17
g2
Ntp2424
Rp2425
(dp2426
g21
F0.5
sg22
I49914
sg23
g24
((dp2427
I00
I49869
sI01
I45
stp2428
Rp2429
sg28
I2
sg29
F49915.0
sbs(g9
S'contains(love)'
p2430
tp2431
g0
(g17
g2
Ntp2432
Rp2433
(dp2434
g21
F0.5
sg22
I4809
sg23
g24
((dp2435
I00
I4808
sI01
I1
stp2436
Rp2437
sg28
I2
sg29
F4810.0
sbs(g11
S'contains(unfair)'
p2438
tp2439
g0
(g17
g2
Ntp2440
Rp2441
(dp2442
g21
F0.5
sg22
I24980
sg23
g24
((dp2443
I00
I24959
sI01
I21
stp2444
Rp2445
sg28
I2
sg29
F24981.0
sbs(g10
S'contains(due)'
p2446
tp2447
g0
(g17
g2
Ntp2448
Rp2449
(dp2450
g21
F0.5
sg22
I49914
sg23
g24
((dp2451
I00
I49723
sI01
I191
stp2452
Rp2453
sg28
I2
sg29
F49915.0
sbs(g11
S'contains(invent)'
p2454
tp2455
g0
(g17
g2
Ntp2456
Rp2457
(dp2458
g21
F0.5
sg22
I24980
sg23
g24
((dp2459
I00
I24975
sI01
I5
stp2460
Rp2461
sg28
I2
sg29
F24981.0
sbs(g8
S'contains(someday)'
p2462
tp2463
g0
(g17
g2
Ntp2464
Rp2465
(dp2466
g21
F0.5
sg22
I58606
sg23
g24
((dp2467
I00
I58604
sI01
I2
stp2468
Rp2469
sg28
I2
sg29
F58607.0
sbs(g9
S'contains(needless)'
p2470
tp2471
g0
(g17
g2
Ntp2472
Rp2473
(dp2474
g21
F0.5
sg22
I4809
sg23
g24
((dp2475
I00
I4796
sI01
I13
stp2476
Rp2477
sg28
I2
sg29
F4810.0
sbs(g12
S'contains(destroy)'
p2478
tp2479
g0
(g17
g2
Ntp2480
Rp2481
(dp2482
g21
F0.5
sg22
I53069
sg23
g24
((dp2483
I00
I53068
sI01
I1
stp2484
Rp2485
sg28
I2
sg29
F53070.0
sbs(g9
S'contains(late)'
p2486
tp2487
g0
(g17
g2
Ntp2488
Rp2489
(dp2490
g21
F0.5
sg22
I4809
sg23
g24
((dp2491
I00
I4809
stp2492
Rp2493
sg28
I2
sg29
F4810.0
sbs(g11
S'contains(imposs)'
p2494
tp2495
g0
(g17
g2
Ntp2496
Rp2497
(dp2498
g21
F0.5
sg22
I24980
sg23
g24
((dp2499
I00
I24859
sI01
I121
stp2500
Rp2501
sg28
I2
sg29
F24981.0
sbs(g10
S'contains(fine)'
p2502
tp2503
g0
(g17
g2
Ntp2504
Rp2505
(dp2506
g21
F0.5
sg22
I49914
sg23
g24
((dp2507
I00
I49908
sI01
I6
stp2508
Rp2509
sg28
I2
sg29
F49915.0
sbs(g12
S'contains(careless)'
p2510
tp2511
g0
(g17
g2
Ntp2512
Rp2513
(dp2514
g21
F0.5
sg22
I53069
sg23
g24
((dp2515
I00
I53069
stp2516
Rp2517
sg28
I2
sg29
F53070.0
sbs(g8
S'contains(easili)'
p2518
tp2519
g0
(g17
g2
Ntp2520
Rp2521
(dp2522
g21
F0.5
sg22
I58606
sg23
g24
((dp2523
I00
I58452
sI01
I154
stp2524
Rp2525
sg28
I2
sg29
F58607.0
sbs(g11
S'contains(critic)'
p2526
tp2527
g0
(g17
g2
Ntp2528
Rp2529
(dp2530
g21
F0.5
sg22
I24980
sg23
g24
((dp2531
I00
I24963
sI01
I17
stp2532
Rp2533
sg28
I2
sg29
F24981.0
sbs(g11
S'contains(variou)'
p2534
tp2535
g0
(g17
g2
Ntp2536
Rp2537
(dp2538
g21
F0.5
sg22
I24980
sg23
g24
((dp2539
I00
I24932
sI01
I48
stp2540
Rp2541
sg28
I2
sg29
F24981.0
sbs(g11
S'contains(mirror)'
p2542
tp2543
g0
(g17
g2
Ntp2544
Rp2545
(dp2546
g21
F0.5
sg22
I24980
sg23
g24
((dp2547
I00
I24980
stp2548
Rp2549
sg28
I2
sg29
F24981.0
sbs(g11
S'contains(mere)'
p2550
tp2551
g0
(g17
g2
Ntp2552
Rp2553
(dp2554
g21
F0.5
sg22
I24980
sg23
g24
((dp2555
I00
I24978
sI01
I2
stp2556
Rp2557
sg28
I2
sg29
F24981.0
sbs(g8
S'contains(unfair)'
p2558
tp2559
g0
(g17
g2
Ntp2560
Rp2561
(dp2562
g21
F0.5
sg22
I58606
sg23
g24
((dp2563
I00
I58603
sI01
I3
stp2564
Rp2565
sg28
I2
sg29
F58607.0
sbs(g12
S'contains(enjoy)'
p2566
tp2567
g0
(g17
g2
Ntp2568
Rp2569
(dp2570
g21
F0.5
sg22
I53069
sg23
g24
((dp2571
I00
I52219
sI01
I850
stp2572
Rp2573
sg28
I2
sg29
F53070.0
sbs(g8
S'contains(invent)'
p2574
tp2575
g0
(g17
g2
Ntp2576
Rp2577
(dp2578
g21
F0.5
sg22
I58606
sg23
g24
((dp2579
I00
I58490
sI01
I116
stp2580
Rp2581
sg28
I2
sg29
F58607.0
sbs(g12
S'contains(blind)'
p2582
tp2583
g0
(g17
g2
Ntp2584
Rp2585
(dp2586
g21
F0.5
sg22
I53069
sg23
g24
((dp2587
I00
I53069
stp2588
Rp2589
sg28
I2
sg29
F53070.0
sbs(g12
S'contains(casual)'
p2590
tp2591
g0
(g17
g2
Ntp2592
Rp2593
(dp2594
g21
F0.5
sg22
I53069
sg23
g24
((dp2595
I00
I53069
stp2596
Rp2597
sg28
I2
sg29
F53070.0
sbs(g9
S'contains(crazi)'
p2598
tp2599
g0
(g17
g2
Ntp2600
Rp2601
(dp2602
g21
F0.5
sg22
I4809
sg23
g24
((dp2603
I00
I4743
sI01
I66
stp2604
Rp2605
sg28
I2
sg29
F4810.0
sbs(g10
S'contains(slowli)'
p2606
tp2607
g0
(g17
g2
Ntp2608
Rp2609
(dp2610
g21
F0.5
sg22
I49914
sg23
g24
((dp2611
I00
I49914
stp2612
Rp2613
sg28
I2
sg29
F49915.0
sbs(g11
S'contains(free)'
p2614
tp2615
g0
(g17
g2
Ntp2616
Rp2617
(dp2618
g21
F0.5
sg22
I24980
sg23
g24
((dp2619
I00
I24971
sI01
I9
stp2620
Rp2621
sg28
I2
sg29
F24981.0
sbs(g10
S'contains(someday)'
p2622
tp2623
g0
(g17
g2
Ntp2624
Rp2625
(dp2626
g21
F0.5
sg22
I49914
sg23
g24
((dp2627
I00
I49909
sI01
I5
stp2628
Rp2629
sg28
I2
sg29
F49915.0
sbs(g10
S'contains(afraid)'
p2630
tp2631
g0
(g17
g2
Ntp2632
Rp2633
(dp2634
g21
F0.5
sg22
I49914
sg23
g24
((dp2635
I00
I49911
sI01
I3
stp2636
Rp2637
sg28
I2
sg29
F49915.0
sbs(g11
S'contains(tediou)'
p2638
tp2639
g0
(g17
g2
Ntp2640
Rp2641
(dp2642
g21
F0.5
sg22
I24980
sg23
g24
((dp2643
I00
I24954
sI01
I26
stp2644
Rp2645
sg28
I2
sg29
F24981.0
sbs(g8
S'contains(perfect)'
p2646
tp2647
g0
(g17
g2
Ntp2648
Rp2649
(dp2650
g21
F0.5
sg22
I58606
sg23
g24
((dp2651
I00
I58528
sI01
I78
stp2652
Rp2653
sg28
I2
sg29
F58607.0
sbs(g8
S'contains(danger)'
p2654
tp2655
g0
(g17
g2
Ntp2656
Rp2657
(dp2658
g21
F0.5
sg22
I58606
sg23
g24
((dp2659
I00
I58605
sI01
I1
stp2660
Rp2661
sg28
I2
sg29
F58607.0
sbs(g12
S'contains(wide)'
p2662
tp2663
g0
(g17
g2
Ntp2664
Rp2665
(dp2666
g21
F0.5
sg22
I53069
sg23
g24
((dp2667
I00
I53067
sI01
I2
stp2668
Rp2669
sg28
I2
sg29
F53070.0
sbs(g10
S'contains(destroy)'
p2670
tp2671
g0
(g17
g2
Ntp2672
Rp2673
(dp2674
g21
F0.5
sg22
I49914
sg23
g24
((dp2675
I00
I49908
sI01
I6
stp2676
Rp2677
sg28
I2
sg29
F49915.0
sbs(g12
S'contains(differ)'
p2678
tp2679
g0
(g17
g2
Ntp2680
Rp2681
(dp2682
g21
F0.5
sg22
I53069
sg23
g24
((dp2683
I00
I53033
sI01
I36
stp2684
Rp2685
sg28
I2
sg29
F53070.0
sbs(g8
S'contains(remot)'
p2686
tp2687
g0
(g17
g2
Ntp2688
Rp2689
(dp2690
g21
F0.5
sg22
I58606
sg23
g24
((dp2691
I00
I58530
sI01
I76
stp2692
Rp2693
sg28
I2
sg29
F58607.0
sbs(g11
S'contains(nice)'
p2694
tp2695
g0
(g17
g2
Ntp2696
Rp2697
(dp2698
g21
F0.5
sg22
I24980
sg23
g24
((dp2699
I00
I24956
sI01
I24
stp2700
Rp2701
sg28
I2
sg29
F24981.0
sbs(g9
S'contains(mirror)'
p2702
tp2703
g0
(g17
g2
Ntp2704
Rp2705
(dp2706
g21
F0.5
sg22
I4809
sg23
g24
((dp2707
I00
I4805
sI01
I4
stp2708
Rp2709
sg28
I2
sg29
F4810.0
sbs(g12
S'contains(due)'
p2710
tp2711
g0
(g17
g2
Ntp2712
Rp2713
(dp2714
g21
F0.5
sg22
I53069
sg23
g24
((dp2715
I00
I53066
sI01
I3
stp2716
Rp2717
sg28
I2
sg29
F53070.0
sbs(g8
S'contains(mere)'
p2718
tp2719
g0
(g17
g2
Ntp2720
Rp2721
(dp2722
g21
F0.5
sg22
I58606
sg23
g24
((dp2723
I00
I58603
sI01
I3
stp2724
Rp2725
sg28
I2
sg29
F58607.0
sbs(g11
S'contains(sure)'
p2726
tp2727
g0
(g17
g2
Ntp2728
Rp2729
(dp2730
g21
F0.5
sg22
I24980
sg23
g24
((dp2731
I00
I24916
sI01
I64
stp2732
Rp2733
sg28
I2
sg29
F24981.0
sbs(g8
S'contains(worst)'
p2734
tp2735
g0
(g17
g2
Ntp2736
Rp2737
(dp2738
g21
F0.5
sg22
I58606
sg23
g24
((dp2739
I00
I58606
stp2740
Rp2741
sg28
I2
sg29
F58607.0
sbs(g9
S'contains(heavi)'
p2742
tp2743
g0
(g17
g2
Ntp2744
Rp2745
(dp2746
g21
F0.5
sg22
I4809
sg23
g24
((dp2747
I00
I4804
sI01
I5
stp2748
Rp2749
sg28
I2
sg29
F4810.0
sbs(g8
S'contains(scenario)'
p2750
tp2751
g0
(g17
g2
Ntp2752
Rp2753
(dp2754
g21
F0.5
sg22
I58606
sg23
g24
((dp2755
I00
I58274
sI01
I332
stp2756
Rp2757
sg28
I2
sg29
F58607.0
sbs(g8
S'contains(difficult)'
p2758
tp2759
g0
(g17
g2
Ntp2760
Rp2761
(dp2762
g21
F0.5
sg22
I58606
sg23
g24
((dp2763
I00
I58503
sI01
I103
stp2764
Rp2765
sg28
I2
sg29
F58607.0
sbs(g8
S'contains(broken)'
p2766
tp2767
g0
(g17
g2
Ntp2768
Rp2769
(dp2770
g21
F0.5
sg22
I58606
sg23
g24
((dp2771
I00
I58606
stp2772
Rp2773
sg28
I2
sg29
F58607.0
sbs(g8
S'contains(behind)'
p2774
tp2775
g0
(g17
g2
Ntp2776
Rp2777
(dp2778
g21
F0.5
sg22
I58606
sg23
g24
((dp2779
I00
I58598
sI01
I8
stp2780
Rp2781
sg28
I2
sg29
F58607.0
sbs(g11
S'contains(perfect)'
p2782
tp2783
g0
(g17
g2
Ntp2784
Rp2785
(dp2786
g21
F0.5
sg22
I24980
sg23
g24
((dp2787
I00
I24979
sI01
I1
stp2788
Rp2789
sg28
I2
sg29
F24981.0
sbs(g11
S'contains(heavi)'
p2790
tp2791
g0
(g17
g2
Ntp2792
Rp2793
(dp2794
g21
F0.5
sg22
I24980
sg23
g24
((dp2795
I00
I24709
sI01
I271
stp2796
Rp2797
sg28
I2
sg29
F24981.0
sbs(g12
S'contains(imposs)'
p2798
tp2799
g0
(g17
g2
Ntp2800
Rp2801
(dp2802
g21
F0.5
sg22
I53069
sg23
g24
((dp2803
I00
I53069
stp2804
Rp2805
sg28
I2
sg29
F53070.0
sbs(g10
S'contains(nice)'
p2806
tp2807
g0
(g17
g2
Ntp2808
Rp2809
(dp2810
g21
F0.5
sg22
I49914
sg23
g24
((dp2811
I00
I49870
sI01
I44
stp2812
Rp2813
sg28
I2
sg29
F49915.0
sbs(g10
S'contains(invalu)'
p2814
tp2815
g0
(g17
g2
Ntp2816
Rp2817
(dp2818
g21
F0.5
sg22
I49914
sg23
g24
((dp2819
I00
I49743
sI01
I171
stp2820
Rp2821
sg28
I2
sg29
F49915.0
sbs(g11
S'contains(love)'
p2822
tp2823
g0
(g17
g2
Ntp2824
Rp2825
(dp2826
g21
F0.5
sg22
I24980
sg23
g24
((dp2827
I00
I24960
sI01
I20
stp2828
Rp2829
sg28
I2
sg29
F24981.0
sbs(g8
S'contains(insan)'
p2830
tp2831
g0
(g17
g2
Ntp2832
Rp2833
(dp2834
g21
F0.5
sg22
I58606
sg23
g24
((dp2835
I00
I58606
stp2836
Rp2837
sg28
I2
sg29
F58607.0
sbs(g12
S'contains(littl)'
p2838
tp2839
g0
(g17
g2
Ntp2840
Rp2841
(dp2842
g21
F0.5
sg22
I53069
sg23
g24
((dp2843
I00
I53066
sI01
I3
stp2844
Rp2845
sg28
I2
sg29
F53070.0
sbs(g12
S'contains(unfair)'
p2846
tp2847
g0
(g17
g2
Ntp2848
Rp2849
(dp2850
g21
F0.5
sg22
I53069
sg23
g24
((dp2851
I00
I53069
stp2852
Rp2853
sg28
I2
sg29
F53070.0
sbs(g10
S'contains(fast)'
p2854
tp2855
g0
(g17
g2
Ntp2856
Rp2857
(dp2858
g21
F0.5
sg22
I49914
sg23
g24
((dp2859
I00
I49670
sI01
I244
stp2860
Rp2861
sg28
I2
sg29
F49915.0
sbs(g10
S'contains(worst)'
p2862
tp2863
g0
(g17
g2
Ntp2864
Rp2865
(dp2866
g21
F0.5
sg22
I49914
sg23
g24
((dp2867
I00
I49892
sI01
I22
stp2868
Rp2869
sg28
I2
sg29
F49915.0
sbs(g11
S'contains(sever)'
p2870
tp2871
g0
(g17
g2
Ntp2872
Rp2873
(dp2874
g21
F0.5
sg22
I24980
sg23
g24
((dp2875
I00
I24942
sI01
I38
stp2876
Rp2877
sg28
I2
sg29
F24981.0
sbs(g10
S'contains(scenario)'
p2878
tp2879
g0
(g17
g2
Ntp2880
Rp2881
(dp2882
g21
F0.5
sg22
I49914
sg23
g24
((dp2883
I00
I49902
sI01
I12
stp2884
Rp2885
sg28
I2
sg29
F49915.0
sbs(g9
S'contains(easi)'
p2886
tp2887
g0
(g17
g2
Ntp2888
Rp2889
(dp2890
g21
F0.5
sg22
I4809
sg23
g24
((dp2891
I00
I4809
stp2892
Rp2893
sg28
I2
sg29
F4810.0
sbs(g12
S'contains(short)'
p2894
tp2895
g0
(g17
g2
Ntp2896
Rp2897
(dp2898
g21
F0.5
sg22
I53069
sg23
g24
((dp2899
I00
I53064
sI01
I5
stp2900
Rp2901
sg28
I2
sg29
F53070.0
sbs(g11
S'contains(decent)'
p2902
tp2903
g0
(g17
g2
Ntp2904
Rp2905
(dp2906
g21
F0.5
sg22
I24980
sg23
g24
((dp2907
I00
I24968
sI01
I12
stp2908
Rp2909
sg28
I2
sg29
F24981.0
sbs(g9
S'contains(hard)'
p2910
tp2911
g0
(g17
g2
Ntp2912
Rp2913
(dp2914
g21
F0.5
sg22
I4809
sg23
g24
((dp2915
I00
I4801
sI01
I8
stp2916
Rp2917
sg28
I2
sg29
F4810.0
sbs(g12
S'contains(unfortun)'
p2918
tp2919
g0
(g17
g2
Ntp2920
Rp2921
(dp2922
g21
F0.5
sg22
I53069
sg23
g24
((dp2923
I00
I53068
sI01
I1
stp2924
Rp2925
sg28
I2
sg29
F53070.0
sbs(g8
S'contains(okay)'
p2926
tp2927
g0
(g17
g2
Ntp2928
Rp2929
(dp2930
g21
F0.5
sg22
I58606
sg23
g24
((dp2931
I00
I58392
sI01
I214
stp2932
Rp2933
sg28
I2
sg29
F58607.0
sbs(g8
S'contains(brutal)'
p2934
tp2935
g0
(g17
g2
Ntp2936
Rp2937
(dp2938
g21
F0.5
sg22
I58606
sg23
g24
((dp2939
I00
I58603
sI01
I3
stp2940
Rp2941
sg28
I2
sg29
F58607.0
sbs(g8
S'contains(readi)'
p2942
tp2943
g0
(g17
g2
Ntp2944
Rp2945
(dp2946
g21
F0.5
sg22
I58606
sg23
g24
((dp2947
I00
I58360
sI01
I246
stp2948
Rp2949
sg28
I2
sg29
F58607.0
sbs(g9
S'contains(corrupt)'
p2950
tp2951
g0
(g17
g2
Ntp2952
Rp2953
(dp2954
g21
F0.5
sg22
I4809
sg23
g24
((dp2955
I00
I4804
sI01
I5
stp2956
Rp2957
sg28
I2
sg29
F4810.0
sbs(g10
S'contains(proud)'
p2958
tp2959
g0
(g17
g2
Ntp2960
Rp2961
(dp2962
g21
F0.5
sg22
I49914
sg23
g24
((dp2963
I00
I49912
sI01
I2
stp2964
Rp2965
sg28
I2
sg29
F49915.0
sbs(g10
S'contains(complex)'
p2966
tp2967
g0
(g17
g2
Ntp2968
Rp2969
(dp2970
g21
F0.5
sg22
I49914
sg23
g24
((dp2971
I00
I49888
sI01
I26
stp2972
Rp2973
sg28
I2
sg29
F49915.0
sbs(g12
S'contains(someday)'
p2974
tp2975
g0
(g17
g2
Ntp2976
Rp2977
(dp2978
g21
F0.5
sg22
I53069
sg23
g24
((dp2979
I00
I53067
sI01
I2
stp2980
Rp2981
sg28
I2
sg29
F53070.0
sbs(g12
S'contains(complic)'
p2982
tp2983
g0
(g17
g2
Ntp2984
Rp2985
(dp2986
g21
F0.5
sg22
I53069
sg23
g24
((dp2987
I00
I53067
sI01
I2
stp2988
Rp2989
sg28
I2
sg29
F53070.0
sbs(g9
S'contains(uniqu)'
p2990
tp2991
g0
(g17
g2
Ntp2992
Rp2993
(dp2994
g21
F0.5
sg22
I4809
sg23
g24
((dp2995
I00
I4809
stp2996
Rp2997
sg28
I2
sg29
F4810.0
sbs(g10
S'contains(exhaust)'
p2998
tp2999
g0
(g17
g2
Ntp3000
Rp3001
(dp3002
g21
F0.5
sg22
I49914
sg23
g24
((dp3003
I00
I49908
sI01
I6
stp3004
Rp3005
sg28
I2
sg29
F49915.0
sbs(g10
S'contains(insan)'
p3006
tp3007
g0
(g17
g2
Ntp3008
Rp3009
(dp3010
g21
F0.5
sg22
I49914
sg23
g24
((dp3011
I00
I49910
sI01
I4
stp3012
Rp3013
sg28
I2
sg29
F49915.0
sbs(g10
S'contains(sure)'
p3014
tp3015
g0
(g17
g2
Ntp3016
Rp3017
(dp3018
g21
F0.5
sg22
I49914
sg23
g24
((dp3019
I00
I49891
sI01
I23
stp3020
Rp3021
sg28
I2
sg29
F49915.0
sbs(g10
S'contains(variou)'
p3022
tp3023
g0
(g17
g2
Ntp3024
Rp3025
(dp3026
g21
F0.5
sg22
I49914
sg23
g24
((dp3027
I00
I49546
sI01
I368
stp3028
Rp3029
sg28
I2
sg29
F49915.0
sbs(g8
S'contains(strong)'
p3030
tp3031
g0
(g17
g2
Ntp3032
Rp3033
(dp3034
g21
F0.5
sg22
I58606
sg23
g24
((dp3035
I00
I58190
sI01
I416
stp3036
Rp3037
sg28
I2
sg29
F58607.0
sbs(g11
S'contains(disorgan)'
p3038
tp3039
g0
(g17
g2
Ntp3040
Rp3041
(dp3042
g21
F0.5
sg22
I24980
sg23
g24
((dp3043
I00
I24978
sI01
I2
stp3044
Rp3045
sg28
I2
sg29
F24981.0
sbs(g12
S'contains(terribl)'
p3046
tp3047
g0
(g17
g2
Ntp3048
Rp3049
(dp3050
g21
F0.5
sg22
I53069
sg23
g24
((dp3051
I00
I53069
stp3052
Rp3053
sg28
I2
sg29
F53070.0
sbs(g12
S'contains(displac)'
p3054
tp3055
g0
(g17
g2
Ntp3056
Rp3057
(dp3058
g21
F0.5
sg22
I53069
sg23
g24
((dp3059
I00
I53069
stp3060
Rp3061
sg28
I2
sg29
F53070.0
sbs(g12
S'contains(depress)'
p3062
tp3063
g0
(g17
g2
Ntp3064
Rp3065
(dp3066
g21
F0.5
sg22
I53069
sg23
g24
((dp3067
I00
I53069
stp3068
Rp3069
sg28
I2
sg29
F53070.0
sbs(g11
S'contains(badli)'
p3070
tp3071
g0
(g17
g2
Ntp3072
Rp3073
(dp3074
g21
F0.5
sg22
I24980
sg23
g24
((dp3075
I00
I24966
sI01
I14
stp3076
Rp3077
sg28
I2
sg29
F24981.0
sbs(g12
S'contains(worst)'
p3078
tp3079
g0
(g17
g2
Ntp3080
Rp3081
(dp3082
g21
F0.5
sg22
I53069
sg23
g24
((dp3083
I00
I53069
stp3084
Rp3085
sg28
I2
sg29
F53070.0
sbs(g8
S'contains(awesom)'
p3086
tp3087
g0
(g17
g2
Ntp3088
Rp3089
(dp3090
g21
F0.5
sg22
I58606
sg23
g24
((dp3091
I00
I58474
sI01
I132
stp3092
Rp3093
sg28
I2
sg29
F58607.0
sbs(g9
S'contains(exhaust)'
p3094
tp3095
g0
(g17
g2
Ntp3096
Rp3097
(dp3098
g21
F0.5
sg22
I4809
sg23
g24
((dp3099
I00
I4805
sI01
I4
stp3100
Rp3101
sg28
I2
sg29
F4810.0
sbs(g10
S'contains(wonder)'
p3102
tp3103
g0
(g17
g2
Ntp3104
Rp3105
(dp3106
g21
F0.5
sg22
I49914
sg23
g24
((dp3107
I00
I49899
sI01
I15
stp3108
Rp3109
sg28
I2
sg29
F49915.0
sbs(g10
S'contains(center)'
p3110
tp3111
g0
(g17
g2
Ntp3112
Rp3113
(dp3114
g21
F0.5
sg22
I49914
sg23
g24
((dp3115
I00
I49814
sI01
I100
stp3116
Rp3117
sg28
I2
sg29
F49915.0
sbs(g11
S'contains(left)'
p3118
tp3119
g0
(g17
g2
Ntp3120
Rp3121
(dp3122
g21
F0.5
sg22
I24980
sg23
g24
((dp3123
I00
I24923
sI01
I57
stp3124
Rp3125
sg28
I2
sg29
F24981.0
sbs(g9
S'contains(poorli)'
p3126
tp3127
g0
(g17
g2
Ntp3128
Rp3129
(dp3130
g21
F0.5
sg22
I4809
sg23
g24
((dp3131
I00
I4798
sI01
I11
stp3132
Rp3133
sg28
I2
sg29
F4810.0
sbs(g8
S'contains(amaz)'
p3134
tp3135
g0
(g17
g2
Ntp3136
Rp3137
(dp3138
g21
F0.5
sg22
I58606
sg23
g24
((dp3139
I00
I58322
sI01
I284
stp3140
Rp3141
sg28
I2
sg29
F58607.0
sbs(g9
S'contains(nice)'
p3142
tp3143
g0
(g17
g2
Ntp3144
Rp3145
(dp3146
g21
F0.5
sg22
I4809
sg23
g24
((dp3147
I00
I4805
sI01
I4
stp3148
Rp3149
sg28
I2
sg29
F4810.0
sbs(g10
S'contains(brutal)'
p3150
tp3151
g0
(g17
g2
Ntp3152
Rp3153
(dp3154
g21
F0.5
sg22
I49914
sg23
g24
((dp3155
I00
I49914
stp3156
Rp3157
sg28
I2
sg29
F49915.0
sbs(g12
S'contains(stupid)'
p3158
tp3159
g0
(g17
g2
Ntp3160
Rp3161
(dp3162
g21
F0.5
sg22
I53069
sg23
g24
((dp3163
I00
I53069
stp3164
Rp3165
sg28
I2
sg29
F53070.0
sbs(g11
S'contains(win)'
p3166
tp3167
g0
(g17
g2
Ntp3168
Rp3169
(dp3170
g21
F0.5
sg22
I24980
sg23
g24
((dp3171
I00
I24979
sI01
I1
stp3172
Rp3173
sg28
I2
sg29
F24981.0
sbs(g8
S'contains(mainli)'
p3174
tp3175
g0
(g17
g2
Ntp3176
Rp3177
(dp3178
g21
F0.5
sg22
I58606
sg23
g24
((dp3179
I00
I58520
sI01
I86
stp3180
Rp3181
sg28
I2
sg29
F58607.0
sbs(g12
S'contains(miser)'
p3182
tp3183
g0
(g17
g2
Ntp3184
Rp3185
(dp3186
g21
F0.5
sg22
I53069
sg23
g24
((dp3187
I00
I53069
stp3188
Rp3189
sg28
I2
sg29
F53070.0
sbs(g12
S'contains(disgust)'
p3190
tp3191
g0
(g17
g2
Ntp3192
Rp3193
(dp3194
g21
F0.5
sg22
I53069
sg23
g24
((dp3195
I00
I53069
stp3196
Rp3197
sg28
I2
sg29
F53070.0
sbs(g11
S'contains(capabl)'
p3198
tp3199
g0
(g17
g2
Ntp3200
Rp3201
(dp3202
g21
F0.5
sg22
I24980
sg23
g24
((dp3203
I00
I24155
sI01
I825
stp3204
Rp3205
sg28
I2
sg29
F24981.0
sbs(g8
S'contains(exhaust)'
p3206
tp3207
g0
(g17
g2
Ntp3208
Rp3209
(dp3210
g21
F0.5
sg22
I58606
sg23
g24
((dp3211
I00
I58604
sI01
I2
stp3212
Rp3213
sg28
I2
sg29
F58607.0
sbs(g8
S'contains(variou)'
p3214
tp3215
g0
(g17
g2
Ntp3216
Rp3217
(dp3218
g21
F0.5
sg22
I58606
sg23
g24
((dp3219
I00
I58296
sI01
I310
stp3220
Rp3221
sg28
I2
sg29
F58607.0
sbs(g10
S'contains(edg)'
p3222
tp3223
g0
(g17
g2
Ntp3224
Rp3225
(dp3226
g21
F0.5
sg22
I49914
sg23
g24
((dp3227
I00
I49892
sI01
I22
stp3228
Rp3229
sg28
I2
sg29
F49915.0
sbs(g12
S'contains(capabl)'
p3230
tp3231
g0
(g17
g2
Ntp3232
Rp3233
(dp3234
g21
F0.5
sg22
I53069
sg23
g24
((dp3235
I00
I53054
sI01
I15
stp3236
Rp3237
sg28
I2
sg29
F53070.0
sbs(g8
S'contains(badli)'
p3238
tp3239
g0
(g17
g2
Ntp3240
Rp3241
(dp3242
g21
F0.5
sg22
I58606
sg23
g24
((dp3243
I00
I58605
sI01
I1
stp3244
Rp3245
sg28
I2
sg29
F58607.0
sbs(g9
S'contains(decent)'
p3246
tp3247
g0
(g17
g2
Ntp3248
Rp3249
(dp3250
g21
F0.5
sg22
I4809
sg23
g24
((dp3251
I00
I4809
stp3252
Rp3253
sg28
I2
sg29
F4810.0
sbs(g11
S'contains(insecur)'
p3254
tp3255
g0
(g17
g2
Ntp3256
Rp3257
(dp3258
g21
F0.5
sg22
I24980
sg23
g24
((dp3259
I00
I24968
sI01
I12
stp3260
Rp3261
sg28
I2
sg29
F24981.0
sbs(g9
S'contains(cut)'
p3262
tp3263
g0
(g17
g2
Ntp3264
Rp3265
(dp3266
g21
F0.5
sg22
I4809
sg23
g24
((dp3267
I00
I4698
sI01
I111
stp3268
Rp3269
sg28
I2
sg29
F4810.0
sbs(g8
S'contains(slowli)'
p3270
tp3271
g0
(g17
g2
Ntp3272
Rp3273
(dp3274
g21
F0.5
sg22
I58606
sg23
g24
((dp3275
I00
I58604
sI01
I2
stp3276
Rp3277
sg28
I2
sg29
F58607.0
sbs(g12
S'contains(sick)'
p3278
tp3279
g0
(g17
g2
Ntp3280
Rp3281
(dp3282
g21
F0.5
sg22
I53069
sg23
g24
((dp3283
I00
I53067
sI01
I2
stp3284
Rp3285
sg28
I2
sg29
F53070.0
sbs(g8
S'contains(left)'
p3286
tp3287
g0
(g17
g2
Ntp3288
Rp3289
(dp3290
g21
F0.5
sg22
I58606
sg23
g24
((dp3291
I00
I58486
sI01
I120
stp3292
Rp3293
sg28
I2
sg29
F58607.0
sbs(g11
S'contains(disgust)'
p3294
tp3295
g0
(g17
g2
Ntp3296
Rp3297
(dp3298
g21
F0.5
sg22
I24980
sg23
g24
((dp3299
I00
I24977
sI01
I3
stp3300
Rp3301
sg28
I2
sg29
F24981.0
sbs(g8
S'contains(afraid)'
p3302
tp3303
g0
(g17
g2
Ntp3304
Rp3305
(dp3306
g21
F0.5
sg22
I58606
sg23
g24
((dp3307
I00
I58605
sI01
I1
stp3308
Rp3309
sg28
I2
sg29
F58607.0
sbs(g10
S'contains(win)'
p3310
tp3311
g0
(g17
g2
Ntp3312
Rp3313
(dp3314
g21
F0.5
sg22
I49914
sg23
g24
((dp3315
I00
I49912
sI01
I2
stp3316
Rp3317
sg28
I2
sg29
F49915.0
sbs(g12
S'contains(win)'
p3318
tp3319
g0
(g17
g2
Ntp3320
Rp3321
(dp3322
g21
F0.5
sg22
I53069
sg23
g24
((dp3323
I00
I53012
sI01
I57
stp3324
Rp3325
sg28
I2
sg29
F53070.0
sbs(g8
S'contains(multipl)'
p3326
tp3327
g0
(g17
g2
Ntp3328
Rp3329
(dp3330
g21
F0.5
sg22
I58606
sg23
g24
((dp3331
I00
I58396
sI01
I210
stp3332
Rp3333
sg28
I2
sg29
F58607.0
sbs(g8
S'contains(careless)'
p3334
tp3335
g0
(g17
g2
Ntp3336
Rp3337
(dp3338
g21
F0.5
sg22
I58606
sg23
g24
((dp3339
I00
I58604
sI01
I2
stp3340
Rp3341
sg28
I2
sg29
F58607.0
sbs(g11
S'contains(proud)'
p3342
tp3343
g0
(g17
g2
Ntp3344
Rp3345
(dp3346
g21
F0.5
sg22
I24980
sg23
g24
((dp3347
I00
I24978
sI01
I2
stp3348
Rp3349
sg28
I2
sg29
F24981.0
sbs(g8
S'contains(tiresom)'
p3350
tp3351
g0
(g17
g2
Ntp3352
Rp3353
(dp3354
g21
F0.5
sg22
I58606
sg23
g24
((dp3355
I00
I58605
sI01
I1
stp3356
Rp3357
sg28
I2
sg29
F58607.0
sbs(g11
S'contains(cut)'
p3358
tp3359
g0
(g17
g2
Ntp3360
Rp3361
(dp3362
g21
F0.5
sg22
I24980
sg23
g24
((dp3363
I00
I24873
sI01
I107
stp3364
Rp3365
sg28
I2
sg29
F24981.0
sbs(g12
S'contains(brutal)'
p3366
tp3367
g0
(g17
g2
Ntp3368
Rp3369
(dp3370
g21
F0.5
sg22
I53069
sg23
g24
((dp3371
I00
I53069
stp3372
Rp3373
sg28
I2
sg29
F53070.0
sbs(g10
S'contains(stupid)'
p3374
tp3375
g0
(g17
g2
Ntp3376
Rp3377
(dp3378
g21
F0.5
sg22
I49914
sg23
g24
((dp3379
I00
I49914
stp3380
Rp3381
sg28
I2
sg29
F49915.0
sbs(g10
S'contains(black)'
p3382
tp3383
g0
(g17
g2
Ntp3384
Rp3385
(dp3386
g21
F0.5
sg22
I49914
sg23
g24
((dp3387
I00
I49913
sI01
I1
stp3388
Rp3389
sg28
I2
sg29
F49915.0
sbs(g12
S'contains(acut)'
p3390
tp3391
g0
(g17
g2
Ntp3392
Rp3393
(dp3394
g21
F0.5
sg22
I53069
sg23
g24
((dp3395
I00
I52205
sI01
I864
stp3396
Rp3397
sg28
I2
sg29
F53070.0
sbs(g11
S'contains(fair)'
p3398
tp3399
g0
(g17
g2
Ntp3400
Rp3401
(dp3402
g21
F0.5
sg22
I24980
sg23
g24
((dp3403
I00
I24956
sI01
I24
stp3404
Rp3405
sg28
I2
sg29
F24981.0
sbs(g12
S'contains(slowli)'
p3406
tp3407
g0
(g17
g2
Ntp3408
Rp3409
(dp3410
g21
F0.5
sg22
I53069
sg23
g24
((dp3411
I00
I53069
stp3412
Rp3413
sg28
I2
sg29
F53070.0
sbs(g8
S'contains(cold)'
p3414
tp3415
g0
(g17
g2
Ntp3416
Rp3417
(dp3418
g21
F0.5
sg22
I58606
sg23
g24
((dp3419
I00
I58602
sI01
I4
stp3420
Rp3421
sg28
I2
sg29
F58607.0
sbs(g8
S'contains(littl)'
p3422
tp3423
g0
(g17
g2
Ntp3424
Rp3425
(dp3426
g21
F0.5
sg22
I58606
sg23
g24
((dp3427
I00
I58398
sI01
I208
stp3428
Rp3429
sg28
I2
sg29
F58607.0
sbs(g10
S'contains(badli)'
p3430
tp3431
g0
(g17
g2
Ntp3432
Rp3433
(dp3434
g21
F0.5
sg22
I49914
sg23
g24
((dp3435
I00
I49914
stp3436
Rp3437
sg28
I2
sg29
F49915.0
sbs(g8
S'contains(past)'
p3438
tp3439
g0
(g17
g2
Ntp3440
Rp3441
(dp3442
g21
F0.5
sg22
I58606
sg23
g24
((dp3443
I00
I58514
sI01
I92
stp3444
Rp3445
sg28
I2
sg29
F58607.0
sbs(g10
S'contains(capabl)'
p3446
tp3447
g0
(g17
g2
Ntp3448
Rp3449
(dp3450
g21
F0.5
sg22
I49914
sg23
g24
((dp3451
I00
I49884
sI01
I30
stp3452
Rp3453
sg28
I2
sg29
F49915.0
sbs(g12
S'contains(complex)'
p3454
tp3455
g0
(g17
g2
Ntp3456
Rp3457
(dp3458
g21
F0.5
sg22
I53069
sg23
g24
((dp3459
I00
I53065
sI01
I4
stp3460
Rp3461
sg28
I2
sg29
F53070.0
sbs(g8
S'contains(random)'
p3462
tp3463
g0
(g17
g2
Ntp3464
Rp3465
(dp3466
g21
F0.5
sg22
I58606
sg23
g24
((dp3467
I00
I58588
sI01
I18
stp3468
Rp3469
sg28
I2
sg29
F58607.0
sbs(g10
S'contains(wide)'
p3470
tp3471
g0
(g17
g2
Ntp3472
Rp3473
(dp3474
g21
F0.5
sg22
I49914
sg23
g24
((dp3475
I00
I49874
sI01
I40
stp3476
Rp3477
sg28
I2
sg29
F49915.0
sbs(g8
S'contains(rare)'
p3478
tp3479
g0
(g17
g2
Ntp3480
Rp3481
(dp3482
g21
F0.5
sg22
I58606
sg23
g24
((dp3483
I00
I58501
sI01
I105
stp3484
Rp3485
sg28
I2
sg29
F58607.0
sbs(g9
S'contains(happi)'
p3486
tp3487
g0
(g17
g2
Ntp3488
Rp3489
(dp3490
g21
F0.5
sg22
I4809
sg23
g24
((dp3491
I00
I4809
stp3492
Rp3493
sg28
I2
sg29
F4810.0
sbs(g8
S'contains(free)'
p3494
tp3495
g0
(g17
g2
Ntp3496
Rp3497
(dp3498
g21
F0.5
sg22
I58606
sg23
g24
((dp3499
I00
I57961
sI01
I645
stp3500
Rp3501
sg28
I2
sg29
F58607.0
sbs(g11
S'contains(tiresom)'
p3502
tp3503
g0
(g17
g2
Ntp3504
Rp3505
(dp3506
g21
F0.5
sg22
I24980
sg23
g24
((dp3507
I00
I24975
sI01
I5
stp3508
Rp3509
sg28
I2
sg29
F24981.0
sbs(g9
S'contains(tremend)'
p3510
tp3511
g0
(g17
g2
Ntp3512
Rp3513
(dp3514
g21
F0.5
sg22
I4809
sg23
g24
((dp3515
I00
I4809
stp3516
Rp3517
sg28
I2
sg29
F4810.0
sbs(g12
S'contains(troubl)'
p3518
tp3519
g0
(g17
g2
Ntp3520
Rp3521
(dp3522
g21
F0.5
sg22
I53069
sg23
g24
((dp3523
I00
I53067
sI01
I2
stp3524
Rp3525
sg28
I2
sg29
F53070.0
sbs(g11
S'contains(past)'
p3526
tp3527
g0
(g17
g2
Ntp3528
Rp3529
(dp3530
g21
F0.5
sg22
I24980
sg23
g24
((dp3531
I00
I24692
sI01
I288
stp3532
Rp3533
sg28
I2
sg29
F24981.0
sbs(g9
S'contains(careless)'
p3534
tp3535
g0
(g17
g2
Ntp3536
Rp3537
(dp3538
g21
F0.5
sg22
I4809
sg23
g24
((dp3539
I00
I4796
sI01
I13
stp3540
Rp3541
sg28
I2
sg29
F4810.0
sbs(g9
S'contains(spent)'
p3542
tp3543
g0
(g17
g2
Ntp3544
Rp3545
(dp3546
g21
F0.5
sg22
I4809
sg23
g24
((dp3547
I00
I4809
stp3548
Rp3549
sg28
I2
sg29
F4810.0
sbs(g9
S'contains(littl)'
p3550
tp3551
g0
(g17
g2
Ntp3552
Rp3553
(dp3554
g21
F0.5
sg22
I4809
sg23
g24
((dp3555
I00
I4803
sI01
I6
stp3556
Rp3557
sg28
I2
sg29
F4810.0
sbs(g9
S'contains(bad)'
p3558
tp3559
g0
(g17
g2
Ntp3560
Rp3561
(dp3562
g21
F0.5
sg22
I4809
sg23
g24
((dp3563
I00
I4071
sI01
I738
stp3564
Rp3565
sg28
I2
sg29
F4810.0
sbs(g8
S'contains(stupid)'
p3566
tp3567
g0
(g17
g2
Ntp3568
Rp3569
(dp3570
g21
F0.5
sg22
I58606
sg23
g24
((dp3571
I00
I58603
sI01
I3
stp3572
Rp3573
sg28
I2
sg29
F58607.0
sbs(g12
S'contains(center)'
p3574
tp3575
g0
(g17
g2
Ntp3576
Rp3577
(dp3578
g21
F0.5
sg22
I53069
sg23
g24
((dp3579
I00
I53064
sI01
I5
stp3580
Rp3581
sg28
I2
sg29
F53070.0
sbs(g8
S'contains(black)'
p3582
tp3583
g0
(g17
g2
Ntp3584
Rp3585
(dp3586
g21
F0.5
sg22
I58606
sg23
g24
((dp3587
I00
I58601
sI01
I5
stp3588
Rp3589
sg28
I2
sg29
F58607.0
sbs(g8
S'contains(disappoint)'
p3590
tp3591
g0
(g17
g2
Ntp3592
Rp3593
(dp3594
g21
F0.5
sg22
I58606
sg23
g24
((dp3595
I00
I58600
sI01
I6
stp3596
Rp3597
sg28
I2
sg29
F58607.0
sbs(g9
S'contains(broken)'
p3598
tp3599
g0
(g17
g2
Ntp3600
Rp3601
(dp3602
g21
F0.5
sg22
I4809
sg23
g24
((dp3603
I00
I4809
stp3604
Rp3605
sg28
I2
sg29
F4810.0
sbs(g10
S'contains(acut)'
p3606
tp3607
g0
(g17
g2
Ntp3608
Rp3609
(dp3610
g21
F0.5
sg22
I49914
sg23
g24
((dp3611
I00
I49914
stp3612
Rp3613
sg28
I2
sg29
F49915.0
sbs(g8
S'contains(differ)'
p3614
tp3615
g0
(g17
g2
Ntp3616
Rp3617
(dp3618
g21
F0.5
sg22
I58606
sg23
g24
((dp3619
I00
I57452
sI01
I1154
stp3620
Rp3621
sg28
I2
sg29
F58607.0
sbs(g10
S'contains(whole)'
p3622
tp3623
g0
(g17
g2
Ntp3624
Rp3625
(dp3626
g21
F0.5
sg22
I49914
sg23
g24
((dp3627
I00
I49872
sI01
I42
stp3628
Rp3629
sg28
I2
sg29
F49915.0
sbs(g9
S'contains(poor)'
p3630
tp3631
g0
(g17
g2
Ntp3632
Rp3633
(dp3634
g21
F0.5
sg22
I4809
sg23
g24
((dp3635
I00
I4689
sI01
I120
stp3636
Rp3637
sg28
I2
sg29
F4810.0
sbs(g10
S'contains(crazi)'
p3638
tp3639
g0
(g17
g2
Ntp3640
Rp3641
(dp3642
g21
F0.5
sg22
I49914
sg23
g24
((dp3643
I00
I49904
sI01
I10
stp3644
Rp3645
sg28
I2
sg29
F49915.0
sbs(g10
S'contains(disgust)'
p3646
tp3647
g0
(g17
g2
Ntp3648
Rp3649
(dp3650
g21
F0.5
sg22
I49914
sg23
g24
((dp3651
I00
I49914
stp3652
Rp3653
sg28
I2
sg29
F49915.0
sbs(g12
S'contains(easi)'
p3654
tp3655
g0
(g17
g2
Ntp3656
Rp3657
(dp3658
g21
F0.5
sg22
I53069
sg23
g24
((dp3659
I00
I52799
sI01
I270
stp3660
Rp3661
sg28
I2
sg29
F53070.0
sbs(g10
S'contains(best)'
p3662
tp3663
g0
(g17
g2
Ntp3664
Rp3665
(dp3666
g21
F0.5
sg22
I49914
sg23
g24
((dp3667
I00
I49896
sI01
I18
stp3668
Rp3669
sg28
I2
sg29
F49915.0
sbs(g9
S'contains(solid)'
p3670
tp3671
g0
(g17
g2
Ntp3672
Rp3673
(dp3674
g21
F0.5
sg22
I4809
sg23
g24
((dp3675
I00
I4809
stp3676
Rp3677
sg28
I2
sg29
F4810.0
sbs(g11
S'contains(hate)'
p3678
tp3679
g0
(g17
g2
Ntp3680
Rp3681
(dp3682
g21
F0.5
sg22
I24980
sg23
g24
((dp3683
I00
I24931
sI01
I49
stp3684
Rp3685
sg28
I2
sg29
F24981.0
sbs(g11
S'contains(multipl)'
p3686
tp3687
g0
(g17
g2
Ntp3688
Rp3689
(dp3690
g21
F0.5
sg22
I24980
sg23
g24
((dp3691
I00
I24948
sI01
I32
stp3692
Rp3693
sg28
I2
sg29
F24981.0
sbs(g9
S'contains(mainli)'
p3694
tp3695
g0
(g17
g2
Ntp3696
Rp3697
(dp3698
g21
F0.5
sg22
I4809
sg23
g24
((dp3699
I00
I4809
stp3700
Rp3701
sg28
I2
sg29
F4810.0
sbs(g9
S'contains(due)'
p3702
tp3703
g0
(g17
g2
Ntp3704
Rp3705
(dp3706
g21
F0.5
sg22
I4809
sg23
g24
((dp3707
I00
I4803
sI01
I6
stp3708
Rp3709
sg28
I2
sg29
F4810.0
sbs(g12
S'contains(rude)'
p3710
tp3711
g0
(g17
g2
Ntp3712
Rp3713
(dp3714
g21
F0.5
sg22
I53069
sg23
g24
((dp3715
I00
I53069
stp3716
Rp3717
sg28
I2
sg29
F53070.0
sbs(g11
S'contains(danger)'
p3718
tp3719
g0
(g17
g2
Ntp3720
Rp3721
(dp3722
g21
F0.5
sg22
I24980
sg23
g24
((dp3723
I00
I24976
sI01
I4
stp3724
Rp3725
sg28
I2
sg29
F24981.0
sbs(g11
S'contains(sad)'
p3726
tp3727
g0
(g17
g2
Ntp3728
Rp3729
(dp3730
g21
F0.5
sg22
I24980
sg23
g24
((dp3731
I00
I24932
sI01
I48
stp3732
Rp3733
sg28
I2
sg29
F24981.0
sbs(g11
S'contains(stupid)'
p3734
tp3735
g0
(g17
g2
Ntp3736
Rp3737
(dp3738
g21
F0.5
sg22
I24980
sg23
g24
((dp3739
I00
I24969
sI01
I11
stp3740
Rp3741
sg28
I2
sg29
F24981.0
sbs(g10
S'contains(sick)'
p3742
tp3743
g0
(g17
g2
Ntp3744
Rp3745
(dp3746
g21
F0.5
sg22
I49914
sg23
g24
((dp3747
I00
I49901
sI01
I13
stp3748
Rp3749
sg28
I2
sg29
F49915.0
sbs(g8
S'contains(fault)'
p3750
tp3751
g0
(g17
g2
Ntp3752
Rp3753
(dp3754
g21
F0.5
sg22
I58606
sg23
g24
((dp3755
I00
I58600
sI01
I6
stp3756
Rp3757
sg28
I2
sg29
F58607.0
sbs(g11
S'contains(black)'
p3758
tp3759
g0
(g17
g2
Ntp3760
Rp3761
(dp3762
g21
F0.5
sg22
I24980
sg23
g24
((dp3763
I00
I24952
sI01
I28
stp3764
Rp3765
sg28
I2
sg29
F24981.0
sbs(g11
S'contains(extra)'
p3766
tp3767
g0
(g17
g2
Ntp3768
Rp3769
(dp3770
g21
F0.5
sg22
I24980
sg23
g24
((dp3771
I00
I24935
sI01
I45
stp3772
Rp3773
sg28
I2
sg29
F24981.0
sbs(g8
S'contains(corrupt)'
p3774
tp3775
g0
(g17
g2
Ntp3776
Rp3777
(dp3778
g21
F0.5
sg22
I58606
sg23
g24
((dp3779
I00
I58606
stp3780
Rp3781
sg28
I2
sg29
F58607.0
sbs(g9
S'contains(variou)'
p3782
tp3783
g0
(g17
g2
Ntp3784
Rp3785
(dp3786
g21
F0.5
sg22
I4809
sg23
g24
((dp3787
I00
I4809
stp3788
Rp3789
sg28
I2
sg29
F4810.0
sbs(g8
S'contains(crazi)'
p3790
tp3791
g0
(g17
g2
Ntp3792
Rp3793
(dp3794
g21
F0.5
sg22
I58606
sg23
g24
((dp3795
I00
I58602
sI01
I4
stp3796
Rp3797
sg28
I2
sg29
F58607.0
sbs(g9
S'contains(unfair)'
p3798
tp3799
g0
(g17
g2
Ntp3800
Rp3801
(dp3802
g21
F0.5
sg22
I4809
sg23
g24
((dp3803
I00
I4746
sI01
I63
stp3804
Rp3805
sg28
I2
sg29
F4810.0
sbs(g12
S'contains(past)'
p3806
tp3807
g0
(g17
g2
Ntp3808
Rp3809
(dp3810
g21
F0.5
sg22
I53069
sg23
g24
((dp3811
I00
I53069
stp3812
Rp3813
sg28
I2
sg29
F53070.0
sbs(g10
S'contains(useless)'
p3814
tp3815
g0
(g17
g2
Ntp3816
Rp3817
(dp3818
g21
F0.5
sg22
I49914
sg23
g24
((dp3819
I00
I49910
sI01
I4
stp3820
Rp3821
sg28
I2
sg29
F49915.0
sbs(g11
S'contains(random)'
p3822
tp3823
g0
(g17
g2
Ntp3824
Rp3825
(dp3826
g21
F0.5
sg22
I24980
sg23
g24
((dp3827
I00
I24957
sI01
I23
stp3828
Rp3829
sg28
I2
sg29
F24981.0
sbs(g8
S'contains(destroy)'
p3830
tp3831
g0
(g17
g2
Ntp3832
Rp3833
(dp3834
g21
F0.5
sg22
I58606
sg23
g24
((dp3835
I00
I58602
sI01
I4
stp3836
Rp3837
sg28
I2
sg29
F58607.0
sbs(g12
S'contains(excess)'
p3838
tp3839
g0
(g17
g2
Ntp3840
Rp3841
(dp3842
g21
F0.5
sg22
I53069
sg23
g24
((dp3843
I00
I53069
stp3844
Rp3845
sg28
I2
sg29
F53070.0
sbs(g11
S'contains(less)'
p3846
tp3847
g0
(g17
g2
Ntp3848
Rp3849
(dp3850
g21
F0.5
sg22
I24980
sg23
g24
((dp3851
I00
I24300
sI01
I680
stp3852
Rp3853
sg28
I2
sg29
F24981.0
sbs(g12
S'contains(badli)'
p3854
tp3855
g0
(g17
g2
Ntp3856
Rp3857
(dp3858
g21
F0.5
sg22
I53069
sg23
g24
((dp3859
I00
I53069
stp3860
Rp3861
sg28
I2
sg29
F53070.0
sbs(g11
S'contains(bore)'
p3862
tp3863
g0
(g17
g2
Ntp3864
Rp3865
(dp3866
g21
F0.5
sg22
I24980
sg23
g24
((dp3867
I00
I24898
sI01
I82
stp3868
Rp3869
sg28
I2
sg29
F24981.0
sbs(g12
S'contains(easili)'
p3870
tp3871
g0
(g17
g2
Ntp3872
Rp3873
(dp3874
g21
F0.5
sg22
I53069
sg23
g24
((dp3875
I00
I53033
sI01
I36
stp3876
Rp3877
sg28
I2
sg29
F53070.0
sbs(g12
S'contains(variou)'
p3878
tp3879
g0
(g17
g2
Ntp3880
Rp3881
(dp3882
g21
F0.5
sg22
I53069
sg23
g24
((dp3883
I00
I53064
sI01
I5
stp3884
Rp3885
sg28
I2
sg29
F53070.0
sbs(g10
S'contains(entir)'
p3886
tp3887
g0
(g17
g2
Ntp3888
Rp3889
(dp3890
g21
F0.5
sg22
I49914
sg23
g24
((dp3891
I00
I49774
sI01
I140
stp3892
Rp3893
sg28
I2
sg29
F49915.0
sbs(g8
S'contains(extra)'
p3894
tp3895
g0
(g17
g2
Ntp3896
Rp3897
(dp3898
g21
F0.5
sg22
I58606
sg23
g24
((dp3899
I00
I58508
sI01
I98
stp3900
Rp3901
sg28
I2
sg29
F58607.0
sbs(g8
S'contains(uncomfort)'
p3902
tp3903
g0
(g17
g2
Ntp3904
Rp3905
(dp3906
g21
F0.5
sg22
I58606
sg23
g24
((dp3907
I00
I58599
sI01
I7
stp3908
Rp3909
sg28
I2
sg29
F58607.0
sbs(g9
S'contains(okay)'
p3910
tp3911
g0
(g17
g2
Ntp3912
Rp3913
(dp3914
g21
F0.5
sg22
I4809
sg23
g24
((dp3915
I00
I4809
stp3916
Rp3917
sg28
I2
sg29
F4810.0
sbs(g8
S'contains(sick)'
p3918
tp3919
g0
(g17
g2
Ntp3920
Rp3921
(dp3922
g21
F0.5
sg22
I58606
sg23
g24
((dp3923
I00
I58595
sI01
I11
stp3924
Rp3925
sg28
I2
sg29
F58607.0
sbs(g10
S'contains(displac)'
p3926
tp3927
g0
(g17
g2
Ntp3928
Rp3929
(dp3930
g21
F0.5
sg22
I49914
sg23
g24
((dp3931
I00
I49910
sI01
I4
stp3932
Rp3933
sg28
I2
sg29
F49915.0
sbs(g10
S'contains(bore)'
p3934
tp3935
g0
(g17
g2
Ntp3936
Rp3937
(dp3938
g21
F0.5
sg22
I49914
sg23
g24
((dp3939
I00
I49899
sI01
I15
stp3940
Rp3941
sg28
I2
sg29
F49915.0
sbs(g10
S'contains(depress)'
p3942
tp3943
g0
(g17
g2
Ntp3944
Rp3945
(dp3946
g21
F0.5
sg22
I49914
sg23
g24
((dp3947
I00
I49912
sI01
I2
stp3948
Rp3949
sg28
I2
sg29
F49915.0
sbs(g12
S'contains(fine)'
p3950
tp3951
g0
(g17
g2
Ntp3952
Rp3953
(dp3954
g21
F0.5
sg22
I53069
sg23
g24
((dp3955
I00
I53054
sI01
I15
stp3956
Rp3957
sg28
I2
sg29
F53070.0
sbs(g11
S'contains(horribl)'
p3958
tp3959
g0
(g17
g2
Ntp3960
Rp3961
(dp3962
g21
F0.5
sg22
I24980
sg23
g24
((dp3963
I00
I24935
sI01
I45
stp3964
Rp3965
sg28
I2
sg29
F24981.0
sbs(g11
S'contains(higher)'
p3966
tp3967
g0
(g17
g2
Ntp3968
Rp3969
(dp3970
g21
F0.5
sg22
I24980
sg23
g24
((dp3971
I00
I24963
sI01
I17
stp3972
Rp3973
sg28
I2
sg29
F24981.0
sbs(g11
S'contains(acut)'
p3974
tp3975
g0
(g17
g2
Ntp3976
Rp3977
(dp3978
g21
F0.5
sg22
I24980
sg23
g24
((dp3979
I00
I24980
stp3980
Rp3981
sg28
I2
sg29
F24981.0
sbs(g11
S'contains(whole)'
p3982
tp3983
g0
(g17
g2
Ntp3984
Rp3985
(dp3986
g21
F0.5
sg22
I24980
sg23
g24
((dp3987
I00
I24957
sI01
I23
stp3988
Rp3989
sg28
I2
sg29
F24981.0
sbs(g10
S'contains(poorli)'
p3990
tp3991
g0
(g17
g2
Ntp3992
Rp3993
(dp3994
g21
F0.5
sg22
I49914
sg23
g24
((dp3995
I00
I49913
sI01
I1
stp3996
Rp3997
sg28
I2
sg29
F49915.0
sbs(g10
S'contains(frustrat)'
p3998
tp3999
g0
(g17
g2
Ntp4000
Rp4001
(dp4002
g21
F0.5
sg22
I49914
sg23
g24
((dp4003
I00
I49880
sI01
I34
stp4004
Rp4005
sg28
I2
sg29
F49915.0
sbs(g9
S'contains(useless)'
p4006
tp4007
g0
(g17
g2
Ntp4008
Rp4009
(dp4010
g21
F0.5
sg22
I4809
sg23
g24
((dp4011
I00
I4786
sI01
I23
stp4012
Rp4013
sg28
I2
sg29
F4810.0
sbs(g12
S'contains(strong)'
p4014
tp4015
g0
(g17
g2
Ntp4016
Rp4017
(dp4018
g21
F0.5
sg22
I53069
sg23
g24
((dp4019
I00
I52135
sI01
I934
stp4020
Rp4021
sg28
I2
sg29
F53070.0
sbs(g10
S'contains(remot)'
p4022
tp4023
g0
(g17
g2
Ntp4024
Rp4025
(dp4026
g21
F0.5
sg22
I49914
sg23
g24
((dp4027
I00
I49892
sI01
I22
stp4028
Rp4029
sg28
I2
sg29
F49915.0
sbs(g10
S'contains(perfect)'
p4030
tp4031
g0
(g17
g2
Ntp4032
Rp4033
(dp4034
g21
F0.5
sg22
I49914
sg23
g24
((dp4035
I00
I49907
sI01
I7
stp4036
Rp4037
sg28
I2
sg29
F49915.0
sbs(g12
S'contains(awesom)'
p4038
tp4039
g0
(g17
g2
Ntp4040
Rp4041
(dp4042
g21
F0.5
sg22
I53069
sg23
g24
((dp4043
I00
I51973
sI01
I1096
stp4044
Rp4045
sg28
I2
sg29
F53070.0
sbs(g8
S'contains(disorgan)'
p4046
tp4047
g0
(g17
g2
Ntp4048
Rp4049
(dp4050
g21
F0.5
sg22
I58606
sg23
g24
((dp4051
I00
I58590
sI01
I16
stp4052
Rp4053
sg28
I2
sg29
F58607.0
sbs(g11
S'contains(blind)'
p4054
tp4055
g0
(g17
g2
Ntp4056
Rp4057
(dp4058
g21
F0.5
sg22
I24980
sg23
g24
((dp4059
I00
I24973
sI01
I7
stp4060
Rp4061
sg28
I2
sg29
F24981.0
sbs(g10
S'contains(imposs)'
p4062
tp4063
g0
(g17
g2
Ntp4064
Rp4065
(dp4066
g21
F0.5
sg22
I49914
sg23
g24
((dp4067
I00
I49903
sI01
I11
stp4068
Rp4069
sg28
I2
sg29
F49915.0
sbs(g10
S'contains(casual)'
p4070
tp4071
g0
(g17
g2
Ntp4072
Rp4073
(dp4074
g21
F0.5
sg22
I49914
sg23
g24
((dp4075
I00
I49897
sI01
I17
stp4076
Rp4077
sg28
I2
sg29
F49915.0
sbs(g9
S'contains(usual)'
p4078
tp4079
g0
(g17
g2
Ntp4080
Rp4081
(dp4082
g21
F0.5
sg22
I4809
sg23
g24
((dp4083
I00
I4798
sI01
I11
stp4084
Rp4085
sg28
I2
sg29
F4810.0
sbs(g11
S'contains(everyday)'
p4086
tp4087
g0
(g17
g2
Ntp4088
Rp4089
(dp4090
g21
F0.5
sg22
I24980
sg23
g24
((dp4091
I00
I24402
sI01
I578
stp4092
Rp4093
sg28
I2
sg29
F24981.0
sbs(g12
S'contains(higher)'
p4094
tp4095
g0
(g17
g2
Ntp4096
Rp4097
(dp4098
g21
F0.5
sg22
I53069
sg23
g24
((dp4099
I00
I53066
sI01
I3
stp4100
Rp4101
sg28
I2
sg29
F53070.0
sbs(g11
S'contains(hard)'
p4102
tp4103
g0
(g17
g2
Ntp4104
Rp4105
(dp4106
g21
F0.5
sg22
I24980
sg23
g24
((dp4107
I00
I20939
sI01
I4041
stp4108
Rp4109
sg28
I2
sg29
F24981.0
sbs(g10
S'contains(uncomfort)'
p4110
tp4111
g0
(g17
g2
Ntp4112
Rp4113
(dp4114
g21
F0.5
sg22
I49914
sg23
g24
((dp4115
I00
I49910
sI01
I4
stp4116
Rp4117
sg28
I2
sg29
F49915.0
sbs(g11
S'contains(neg)'
p4118
tp4119
g0
(g17
g2
Ntp4120
Rp4121
(dp4122
g21
F0.5
sg22
I24980
sg23
g24
((dp4123
I00
I24794
sI01
I186
stp4124
Rp4125
sg28
I2
sg29
F24981.0
sbs(g9
S'contains(horribl)'
p4126
tp4127
g0
(g17
g2
Ntp4128
Rp4129
(dp4130
g21
F0.5
sg22
I4809
sg23
g24
((dp4131
I00
I4548
sI01
I261
stp4132
Rp4133
sg28
I2
sg29
F4810.0
sbs(g8
S'contains(annoy)'
p4134
tp4135
g0
(g17
g2
Ntp4136
Rp4137
(dp4138
g21
F0.5
sg22
I58606
sg23
g24
((dp4139
I00
I58603
sI01
I3
stp4140
Rp4141
sg28
I2
sg29
F58607.0
sbs(g9
S'contains(destroy)'
p4142
tp4143
g0
(g17
g2
Ntp4144
Rp4145
(dp4146
g21
F0.5
sg22
I4809
sg23
g24
((dp4147
I00
I4809
stp4148
Rp4149
sg28
I2
sg29
F4810.0
sbs(g9
S'contains(worst)'
p4150
tp4151
g0
(g17
g2
Ntp4152
Rp4153
(dp4154
g21
F0.5
sg22
I4809
sg23
g24
((dp4155
I00
I4451
sI01
I358
stp4156
Rp4157
sg28
I2
sg29
F4810.0
sbs(g8
S'contains(critic)'
p4158
tp4159
g0
(g17
g2
Ntp4160
Rp4161
(dp4162
g21
F0.5
sg22
I58606
sg23
g24
((dp4163
I00
I58513
sI01
I93
stp4164
Rp4165
sg28
I2
sg29
F58607.0
sbs(g11
S'contains(desper)'
p4166
tp4167
g0
(g17
g2
Ntp4168
Rp4169
(dp4170
g21
F0.5
sg22
I24980
sg23
g24
((dp4171
I00
I24973
sI01
I7
stp4172
Rp4173
sg28
I2
sg29
F24981.0
sbs(g11
S'contains(wrong)'
p4174
tp4175
g0
(g17
g2
Ntp4176
Rp4177
(dp4178
g21
F0.5
sg22
I24980
sg23
g24
((dp4179
I00
I24920
sI01
I60
stp4180
Rp4181
sg28
I2
sg29
F24981.0
sbs(g8
S'contains(dirti)'
p4182
tp4183
g0
(g17
g2
Ntp4184
Rp4185
(dp4186
g21
F0.5
sg22
I58606
sg23
g24
((dp4187
I00
I58605
sI01
I1
stp4188
Rp4189
sg28
I2
sg29
F58607.0
sbs(g10
S'contains(traffic)'
p4190
tp4191
g0
(g17
g2
Ntp4192
Rp4193
(dp4194
g21
F0.5
sg22
I49914
sg23
g24
((dp4195
I00
I49904
sI01
I10
stp4196
Rp4197
sg28
I2
sg29
F49915.0
sbs(g8
S'contains(excel)'
p4198
tp4199
g0
(g17
g2
Ntp4200
Rp4201
(dp4202
g21
F0.5
sg22
I58606
sg23
g24
((dp4203
I00
I58327
sI01
I279
stp4204
Rp4205
sg28
I2
sg29
F58607.0
sbs(g10
S'contains(short)'
p4206
tp4207
g0
(g17
g2
Ntp4208
Rp4209
(dp4210
g21
F0.5
sg22
I49914
sg23
g24
((dp4211
I00
I49667
sI01
I247
stp4212
Rp4213
sg28
I2
sg29
F49915.0
sbs(g12
S'contains(nice)'
p4214
tp4215
g0
(g17
g2
Ntp4216
Rp4217
(dp4218
g21
F0.5
sg22
I53069
sg23
g24
((dp4219
I00
I49783
sI01
I3286
stp4220
Rp4221
sg28
I2
sg29
F53070.0
sbs(g8
S'contains(excess)'
p4222
tp4223
g0
(g17
g2
Ntp4224
Rp4225
(dp4226
g21
F0.5
sg22
I58606
sg23
g24
((dp4227
I00
I58604
sI01
I2
stp4228
Rp4229
sg28
I2
sg29
F58607.0
sbs(g11
S'contains(displac)'
p4230
tp4231
g0
(g17
g2
Ntp4232
Rp4233
(dp4234
g21
F0.5
sg22
I24980
sg23
g24
((dp4235
I00
I24980
stp4236
Rp4237
sg28
I2
sg29
F24981.0
sbs(g9
S'contains(weird)'
p4238
tp4239
g0
(g17
g2
Ntp4240
Rp4241
(dp4242
g21
F0.5
sg22
I4809
sg23
g24
((dp4243
I00
I4800
sI01
I9
stp4244
Rp4245
sg28
I2
sg29
F4810.0
sbs(g10
S'contains(lift)'
p4246
tp4247
g0
(g17
g2
Ntp4248
Rp4249
(dp4250
g21
F0.5
sg22
I49914
sg23
g24
((dp4251
I00
I49881
sI01
I33
stp4252
Rp4253
sg28
I2
sg29
F49915.0
sbs(g9
S'contains(mere)'
p4254
tp4255
g0
(g17
g2
Ntp4256
Rp4257
(dp4258
g21
F0.5
sg22
I4809
sg23
g24
((dp4259
I00
I4795
sI01
I14
stp4260
Rp4261
sg28
I2
sg29
F4810.0
sbs(g9
S'contains(best)'
p4262
tp4263
g0
(g17
g2
Ntp4264
Rp4265
(dp4266
g21
F0.5
sg22
I4809
sg23
g24
((dp4267
I00
I4803
sI01
I6
stp4268
Rp4269
sg28
I2
sg29
F4810.0
sbs(g11
S'contains(wonder)'
p4270
tp4271
g0
(g17
g2
Ntp4272
Rp4273
(dp4274
g21
F0.5
sg22
I24980
sg23
g24
((dp4275
I00
I24975
sI01
I5
stp4276
Rp4277
sg28
I2
sg29
F24981.0
sbs(g12
S'contains(slow)'
p4278
tp4279
g0
(g17
g2
Ntp4280
Rp4281
(dp4282
g21
F0.5
sg22
I53069
sg23
g24
((dp4283
I00
I53063
sI01
I6
stp4284
Rp4285
sg28
I2
sg29
F53070.0
sbs(g11
S'contains(center)'
p4286
tp4287
g0
(g17
g2
Ntp4288
Rp4289
(dp4290
g21
F0.5
sg22
I24980
sg23
g24
((dp4291
I00
I24609
sI01
I371
stp4292
Rp4293
sg28
I2
sg29
F24981.0
sbs(g10
S'contains(okay)'
p4294
tp4295
g0
(g17
g2
Ntp4296
Rp4297
(dp4298
g21
F0.5
sg22
I49914
sg23
g24
((dp4299
I00
I49911
sI01
I3
stp4300
Rp4301
sg28
I2
sg29
F49915.0
sbs(g9
S'contains(yeah)'
p4302
tp4303
g0
(g17
g2
Ntp4304
Rp4305
(dp4306
g21
F0.5
sg22
I4809
sg23
g24
((dp4307
I00
I4805
sI01
I4
stp4308
Rp4309
sg28
I2
sg29
F4810.0
sbs(g11
S'contains(dirti)'
p4310
tp4311
g0
(g17
g2
Ntp4312
Rp4313
(dp4314
g21
F0.5
sg22
I24980
sg23
g24
((dp4315
I00
I24970
sI01
I10
stp4316
Rp4317
sg28
I2
sg29
F24981.0
sbs(g11
S'contains(scenario)'
p4318
tp4319
g0
(g17
g2
Ntp4320
Rp4321
(dp4322
g21
F0.5
sg22
I24980
sg23
g24
((dp4323
I00
I24968
sI01
I12
stp4324
Rp4325
sg28
I2
sg29
F24981.0
sbs(g11
S'contains(best)'
p4326
tp4327
g0
(g17
g2
Ntp4328
Rp4329
(dp4330
g21
F0.5
sg22
I24980
sg23
g24
((dp4331
I00
I24970
sI01
I10
stp4332
Rp4333
sg28
I2
sg29
F24981.0
sbs(g11
S'contains(casual)'
p4334
tp4335
g0
(g17
g2
Ntp4336
Rp4337
(dp4338
g21
F0.5
sg22
I24980
sg23
g24
((dp4339
I00
I24954
sI01
I26
stp4340
Rp4341
sg28
I2
sg29
F24981.0
sbs(g8
S'contains(useless)'
p4342
tp4343
g0
(g17
g2
Ntp4344
Rp4345
(dp4346
g21
F0.5
sg22
I58606
sg23
g24
((dp4347
I00
I58603
sI01
I3
stp4348
Rp4349
sg28
I2
sg29
F58607.0
sbs(g8
S'contains(interest)'
p4350
tp4351
g0
(g17
g2
Ntp4352
Rp4353
(dp4354
g21
F0.5
sg22
I58606
sg23
g24
((dp4355
I00
I57832
sI01
I774
stp4356
Rp4357
sg28
I2
sg29
F58607.0
sbs(g12
S'contains(good)'
p4358
tp4359
g0
(g17
g2
Ntp4360
Rp4361
(dp4362
g21
F0.5
sg22
I53069
sg23
g24
((dp4363
I00
I35191
sI01
I17878
stp4364
Rp4365
sg28
I2
sg29
F53070.0
sbs(g9
S'contains(fantast)'
p4366
tp4367
g0
(g17
g2
Ntp4368
Rp4369
(dp4370
g21
F0.5
sg22
I4809
sg23
g24
((dp4371
I00
I4809
stp4372
Rp4373
sg28
I2
sg29
F4810.0
sbs(g8
S'contains(honestli)'
p4374
tp4375
g0
(g17
g2
Ntp4376
Rp4377
(dp4378
g21
F0.5
sg22
I58606
sg23
g24
((dp4379
I00
I58587
sI01
I19
stp4380
Rp4381
sg28
I2
sg29
F58607.0
sbs(g12
S'contains(remot)'
p4382
tp4383
g0
(g17
g2
Ntp4384
Rp4385
(dp4386
g21
F0.5
sg22
I53069
sg23
g24
((dp4387
I00
I53064
sI01
I5
stp4388
Rp4389
sg28
I2
sg29
F53070.0
sbs(g10
S'contains(awesom)'
p4390
tp4391
g0
(g17
g2
Ntp4392
Rp4393
(dp4394
g21
F0.5
sg22
I49914
sg23
g24
((dp4395
I00
I49908
sI01
I6
stp4396
Rp4397
sg28
I2
sg29
F49915.0
sbs(g11
S'contains(due)'
p4398
tp4399
g0
(g17
g2
Ntp4400
Rp4401
(dp4402
g21
F0.5
sg22
I24980
sg23
g24
((dp4403
I00
I24243
sI01
I737
stp4404
Rp4405
sg28
I2
sg29
F24981.0
sbs(g8
S'contains(lift)'
p4406
tp4407
g0
(g17
g2
Ntp4408
Rp4409
(dp4410
g21
F0.5
sg22
I58606
sg23
g24
((dp4411
I00
I58586
sI01
I20
stp4412
Rp4413
sg28
I2
sg29
F58607.0
sbs(g8
S'contains(center)'
p4414
tp4415
g0
(g17
g2
Ntp4416
Rp4417
(dp4418
g21
F0.5
sg22
I58606
sg23
g24
((dp4419
I00
I58453
sI01
I153
stp4420
Rp4421
sg28
I2
sg29
F58607.0
sbs(g11
S'contains(faint)'
p4422
tp4423
g0
(g17
g2
Ntp4424
Rp4425
(dp4426
g21
F0.5
sg22
I24980
sg23
g24
((dp4427
I00
I24969
sI01
I11
stp4428
Rp4429
sg28
I2
sg29
F24981.0
sbs(g8
S'contains(averag)'
p4430
tp4431
g0
(g17
g2
Ntp4432
Rp4433
(dp4434
g21
F0.5
sg22
I58606
sg23
g24
((dp4435
I00
I58516
sI01
I90
stp4436
Rp4437
sg28
I2
sg29
F58607.0
sbs(g9
S'contains(easili)'
p4438
tp4439
g0
(g17
g2
Ntp4440
Rp4441
(dp4442
g21
F0.5
sg22
I4809
sg23
g24
((dp4443
I00
I4808
sI01
I1
stp4444
Rp4445
sg28
I2
sg29
F4810.0
sbs(g9
S'contains(outsid)'
p4446
tp4447
g0
(g17
g2
Ntp4448
Rp4449
(dp4450
g21
F0.5
sg22
I4809
sg23
g24
((dp4451
I00
I4809
stp4452
Rp4453
sg28
I2
sg29
F4810.0
sbs(g11
S'contains(great)'
p4454
tp4455
g0
(g17
g2
Ntp4456
Rp4457
(dp4458
g21
F0.5
sg22
I24980
sg23
g24
((dp4459
I00
I24876
sI01
I104
stp4460
Rp4461
sg28
I2
sg29
F24981.0
sbs(g12
S'contains(black)'
p4462
tp4463
g0
(g17
g2
Ntp4464
Rp4465
(dp4466
g21
F0.5
sg22
I53069
sg23
g24
((dp4467
I00
I53069
stp4468
Rp4469
sg28
I2
sg29
F53070.0
sbs(g12
S'contains(okay)'
p4470
tp4471
g0
(g17
g2
Ntp4472
Rp4473
(dp4474
g21
F0.5
sg22
I53069
sg23
g24
((dp4475
I00
I53054
sI01
I15
stp4476
Rp4477
sg28
I2
sg29
F53070.0
sbs(g10
S'contains(mainli)'
p4478
tp4479
g0
(g17
g2
Ntp4480
Rp4481
(dp4482
g21
F0.5
sg22
I49914
sg23
g24
((dp4483
I00
I49893
sI01
I21
stp4484
Rp4485
sg28
I2
sg29
F49915.0
sbs(g10
S'contains(great)'
p4486
tp4487
g0
(g17
g2
Ntp4488
Rp4489
(dp4490
g21
F0.5
sg22
I49914
sg23
g24
((dp4491
I00
I49824
sI01
I90
stp4492
Rp4493
sg28
I2
sg29
F49915.0
sbs(g12
S'contains(heavi)'
p4494
tp4495
g0
(g17
g2
Ntp4496
Rp4497
(dp4498
g21
F0.5
sg22
I53069
sg23
g24
((dp4499
I00
I53068
sI01
I1
stp4500
Rp4501
sg28
I2
sg29
F53070.0
sbs(g8
S'contains(edg)'
p4502
tp4503
g0
(g17
g2
Ntp4504
Rp4505
(dp4506
g21
F0.5
sg22
I58606
sg23
g24
((dp4507
I00
I58572
sI01
I34
stp4508
Rp4509
sg28
I2
sg29
F58607.0
sbs(g9
S'contains(neg)'
p4510
tp4511
g0
(g17
g2
Ntp4512
Rp4513
(dp4514
g21
F0.5
sg22
I4809
sg23
g24
((dp4515
I00
I4805
sI01
I4
stp4516
Rp4517
sg28
I2
sg29
F4810.0
sbs(g12
S'contains(societi)'
p4518
tp4519
g0
(g17
g2
Ntp4520
Rp4521
(dp4522
g21
F0.5
sg22
I53069
sg23
g24
((dp4523
I00
I53068
sI01
I1
stp4524
Rp4525
sg28
I2
sg29
F53070.0
sbs(g10
S'contains(poor)'
p4526
tp4527
g0
(g17
g2
Ntp4528
Rp4529
(dp4530
g21
F0.5
sg22
I49914
sg23
g24
((dp4531
I00
I49861
sI01
I53
stp4532
Rp4533
sg28
I2
sg29
F49915.0
sbs(g9
S'contains(honestli)'
p4534
tp4535
g0
(g17
g2
Ntp4536
Rp4537
(dp4538
g21
F0.5
sg22
I4809
sg23
g24
((dp4539
I00
I4809
stp4540
Rp4541
sg28
I2
sg29
F4810.0
sbs(g9
S'contains(consist)'
p4542
tp4543
g0
(g17
g2
Ntp4544
Rp4545
(dp4546
g21
F0.5
sg22
I4809
sg23
g24
((dp4547
I00
I4808
sI01
I1
stp4548
Rp4549
sg28
I2
sg29
F4810.0
sbs(g11
S'contains(fine)'
p4550
tp4551
g0
(g17
g2
Ntp4552
Rp4553
(dp4554
g21
F0.5
sg22
I24980
sg23
g24
((dp4555
I00
I24979
sI01
I1
stp4556
Rp4557
sg28
I2
sg29
F24981.0
sbs(g9
S'contains(insan)'
p4558
tp4559
g0
(g17
g2
Ntp4560
Rp4561
(dp4562
g21
F0.5
sg22
I4809
sg23
g24
((dp4563
I00
I4789
sI01
I20
stp4564
Rp4565
sg28
I2
sg29
F4810.0
sbs(g10
S'contains(miser)'
p4566
tp4567
g0
(g17
g2
Ntp4568
Rp4569
(dp4570
g21
F0.5
sg22
I49914
sg23
g24
((dp4571
I00
I49910
sI01
I4
stp4572
Rp4573
sg28
I2
sg29
F49915.0
sbs(g8
S'contains(great)'
p4574
tp4575
g0
(g17
g2
Ntp4576
Rp4577
(dp4578
g21
F0.5
sg22
I58606
sg23
g24
((dp4579
I00
I55221
sI01
I3385
stp4580
Rp4581
sg28
I2
sg29
F58607.0
sbs(g9
S'contains(redund)'
p4582
tp4583
g0
(g17
g2
Ntp4584
Rp4585
(dp4586
g21
F0.5
sg22
I4809
sg23
g24
((dp4587
I00
I4808
sI01
I1
stp4588
Rp4589
sg28
I2
sg29
F4810.0
sbs(g11
S'contains(nearli)'
p4590
tp4591
g0
(g17
g2
Ntp4592
Rp4593
(dp4594
g21
F0.5
sg22
I24980
sg23
g24
((dp4595
I00
I24962
sI01
I18
stp4596
Rp4597
sg28
I2
sg29
F24981.0
sbs(g12
S'contains(add)'
p4598
tp4599
g0
(g17
g2
Ntp4600
Rp4601
(dp4602
g21
F0.5
sg22
I53069
sg23
g24
((dp4603
I00
I53068
sI01
I1
stp4604
Rp4605
sg28
I2
sg29
F53070.0
sbs(g12
S'contains(lift)'
p4606
tp4607
g0
(g17
g2
Ntp4608
Rp4609
(dp4610
g21
F0.5
sg22
I53069
sg23
g24
((dp4611
I00
I53068
sI01
I1
stp4612
Rp4613
sg28
I2
sg29
F53070.0
sbs(g9
S'contains(past)'
p4614
tp4615
g0
(g17
g2
Ntp4616
Rp4617
(dp4618
g21
F0.5
sg22
I4809
sg23
g24
((dp4619
I00
I4808
sI01
I1
stp4620
Rp4621
sg28
I2
sg29
F4810.0
sbs(g10
S'contains(happi)'
p4622
tp4623
g0
(g17
g2
Ntp4624
Rp4625
(dp4626
g21
F0.5
sg22
I49914
sg23
g24
((dp4627
I00
I49910
sI01
I4
stp4628
Rp4629
sg28
I2
sg29
F49915.0
sbs(g9
S'contains(depress)'
p4630
tp4631
g0
(g17
g2
Ntp4632
Rp4633
(dp4634
g21
F0.5
sg22
I4809
sg23
g24
((dp4635
I00
I4794
sI01
I15
stp4636
Rp4637
sg28
I2
sg29
F4810.0
sbs(g9
S'contains(bore)'
p4638
tp4639
g0
(g17
g2
Ntp4640
Rp4641
(dp4642
g21
F0.5
sg22
I4809
sg23
g24
((dp4643
I00
I4617
sI01
I192
stp4644
Rp4645
sg28
I2
sg29
F4810.0
sbs(g9
S'contains(difficult)'
p4646
tp4647
g0
(g17
g2
Ntp4648
Rp4649
(dp4650
g21
F0.5
sg22
I4809
sg23
g24
((dp4651
I00
I4166
sI01
I643
stp4652
Rp4653
sg28
I2
sg29
F4810.0
sbs(g12
S'contains(consist)'
p4654
tp4655
g0
(g17
g2
Ntp4656
Rp4657
(dp4658
g21
F0.5
sg22
I53069
sg23
g24
((dp4659
I00
I53045
sI01
I24
stp4660
Rp4661
sg28
I2
sg29
F53070.0
sbs(g11
S'contains(difficult)'
p4662
tp4663
g0
(g17
g2
Ntp4664
Rp4665
(dp4666
g21
F0.5
sg22
I24980
sg23
g24
((dp4667
I00
I24604
sI01
I376
stp4668
Rp4669
sg28
I2
sg29
F24981.0
sbs(g8
S'contains(capabl)'
p4670
tp4671
g0
(g17
g2
Ntp4672
Rp4673
(dp4674
g21
F0.5
sg22
I58606
sg23
g24
((dp4675
I00
I58534
sI01
I72
stp4676
Rp4677
sg28
I2
sg29
F58607.0
sbs(g8
S'contains(poor)'
p4678
tp4679
g0
(g17
g2
Ntp4680
Rp4681
(dp4682
g21
F0.5
sg22
I58606
sg23
g24
((dp4683
I00
I58520
sI01
I86
stp4684
Rp4685
sg28
I2
sg29
F58607.0
sbs(g12
S'contains(independ)'
p4686
tp4687
g0
(g17
g2
Ntp4688
Rp4689
(dp4690
g21
F0.5
sg22
I53069
sg23
g24
((dp4691
I00
I53068
sI01
I1
stp4692
Rp4693
sg28
I2
sg29
F53070.0
sbs(g9
S'contains(enough)'
p4694
tp4695
g0
(g17
g2
Ntp4696
Rp4697
(dp4698
g21
F0.5
sg22
I4809
sg23
g24
((dp4699
I00
I4805
sI01
I4
stp4700
Rp4701
sg28
I2
sg29
F4810.0
sbs(g9
S'contains(excel)'
p4702
tp4703
g0
(g17
g2
Ntp4704
Rp4705
(dp4706
g21
F0.5
sg22
I4809
sg23
g24
((dp4707
I00
I4809
stp4708
Rp4709
sg28
I2
sg29
F4810.0
sbs(g9
S'contains(black)'
p4710
tp4711
g0
(g17
g2
Ntp4712
Rp4713
(dp4714
g21
F0.5
sg22
I4809
sg23
g24
((dp4715
I00
I4807
sI01
I2
stp4716
Rp4717
sg28
I2
sg29
F4810.0
sbs(g8
S'contains(miser)'
p4718
tp4719
g0
(g17
g2
Ntp4720
Rp4721
(dp4722
g21
F0.5
sg22
I58606
sg23
g24
((dp4723
I00
I58606
stp4724
Rp4725
sg28
I2
sg29
F58607.0
sbs(g8
S'contains(invalu)'
p4726
tp4727
g0
(g17
g2
Ntp4728
Rp4729
(dp4730
g21
F0.5
sg22
I58606
sg23
g24
((dp4731
I00
I58601
sI01
I5
stp4732
Rp4733
sg28
I2
sg29
F58607.0
sbs(g9
S'contains(remot)'
p4734
tp4735
g0
(g17
g2
Ntp4736
Rp4737
(dp4738
g21
F0.5
sg22
I4809
sg23
g24
((dp4739
I00
I4809
stp4740
Rp4741
sg28
I2
sg29
F4810.0
sbs(g9
S'contains(edg)'
p4742
tp4743
g0
(g17
g2
Ntp4744
Rp4745
(dp4746
g21
F0.5
sg22
I4809
sg23
g24
((dp4747
I00
I4749
sI01
I60
stp4748
Rp4749
sg28
I2
sg29
F4810.0
sbs(g9
S'contains(second)'
p4750
tp4751
g0
(g17
g2
Ntp4752
Rp4753
(dp4754
g21
F0.5
sg22
I4809
sg23
g24
((dp4755
I00
I4809
stp4756
Rp4757
sg28
I2
sg29
F4810.0
sbs(g9
S'contains(multipl)'
p4758
tp4759
g0
(g17
g2
Ntp4760
Rp4761
(dp4762
g21
F0.5
sg22
I4809
sg23
g24
((dp4763
I00
I4808
sI01
I1
stp4764
Rp4765
sg28
I2
sg29
F4810.0
sbs(g12
S'contains(winter)'
p4766
tp4767
g0
(g17
g2
Ntp4768
Rp4769
(dp4770
g21
F0.5
sg22
I53069
sg23
g24
((dp4771
I00
I53067
sI01
I2
stp4772
Rp4773
sg28
I2
sg29
F53070.0
sbs(g8
S'contains(higher)'
p4774
tp4775
g0
(g17
g2
Ntp4776
Rp4777
(dp4778
g21
F0.5
sg22
I58606
sg23
g24
((dp4779
I00
I58269
sI01
I337
stp4780
Rp4781
sg28
I2
sg29
F58607.0
sbs(g10
S'contains(sad)'
p4782
tp4783
g0
(g17
g2
Ntp4784
Rp4785
(dp4786
g21
F0.5
sg22
I49914
sg23
g24
((dp4787
I00
I49904
sI01
I10
stp4788
Rp4789
sg28
I2
sg29
F49915.0
sbs(g12
S'contains(proud)'
p4790
tp4791
g0
(g17
g2
Ntp4792
Rp4793
(dp4794
g21
F0.5
sg22
I53069
sg23
g24
((dp4795
I00
I52916
sI01
I153
stp4796
Rp4797
sg28
I2
sg29
F53070.0
sbs(g11
S'contains(dull)'
p4798
tp4799
g0
(g17
g2
Ntp4800
Rp4801
(dp4802
g21
F0.5
sg22
I24980
sg23
g24
((dp4803
I00
I24952
sI01
I28
stp4804
Rp4805
sg28
I2
sg29
F24981.0
sbs(g12
S'contains(uncomfort)'
p4806
tp4807
g0
(g17
g2
Ntp4808
Rp4809
(dp4810
g21
F0.5
sg22
I53069
sg23
g24
((dp4811
I00
I53069
stp4812
Rp4813
sg28
I2
sg29
F53070.0
sbs(g11
S'contains(current)'
p4814
tp4815
g0
(g17
g2
Ntp4816
Rp4817
(dp4818
g21
F0.5
sg22
I24980
sg23
g24
((dp4819
I00
I24933
sI01
I47
stp4820
Rp4821
sg28
I2
sg29
F24981.0
sbs(g8
S'contains(entir)'
p4822
tp4823
g0
(g17
g2
Ntp4824
Rp4825
(dp4826
g21
F0.5
sg22
I58606
sg23
g24
((dp4827
I00
I58523
sI01
I83
stp4828
Rp4829
sg28
I2
sg29
F58607.0
sbs(g9
S'contains(fair)'
p4830
tp4831
g0
(g17
g2
Ntp4832
Rp4833
(dp4834
g21
F0.5
sg22
I4809
sg23
g24
((dp4835
I00
I4808
sI01
I1
stp4836
Rp4837
sg28
I2
sg29
F4810.0
sbs(g9
S'contains(annoy)'
p4838
tp4839
g0
(g17
g2
Ntp4840
Rp4841
(dp4842
g21
F0.5
sg22
I4809
sg23
g24
((dp4843
I00
I4794
sI01
I15
stp4844
Rp4845
sg28
I2
sg29
F4810.0
sbs(g11
S'contains(poor)'
p4846
tp4847
g0
(g17
g2
Ntp4848
Rp4849
(dp4850
g21
F0.5
sg22
I24980
sg23
g24
((dp4851
I00
I24405
sI01
I575
stp4852
Rp4853
sg28
I2
sg29
F24981.0
sbs(g12
S'contains(neg)'
p4854
tp4855
g0
(g17
g2
Ntp4856
Rp4857
(dp4858
g21
F0.5
sg22
I53069
sg23
g24
((dp4859
I00
I53065
sI01
I4
stp4860
Rp4861
sg28
I2
sg29
F53070.0
sbs(g9
S'contains(differ)'
p4862
tp4863
g0
(g17
g2
Ntp4864
Rp4865
(dp4866
g21
F0.5
sg22
I4809
sg23
g24
((dp4867
I00
I4797
sI01
I12
stp4868
Rp4869
sg28
I2
sg29
F4810.0
sbs(g12
S'contains(random)'
p4870
tp4871
g0
(g17
g2
Ntp4872
Rp4873
(dp4874
g21
F0.5
sg22
I53069
sg23
g24
((dp4875
I00
I53068
sI01
I1
stp4876
Rp4877
sg28
I2
sg29
F53070.0
sbs(g9
S'contains(dull)'
p4878
tp4879
g0
(g17
g2
Ntp4880
Rp4881
(dp4882
g21
F0.5
sg22
I4809
sg23
g24
((dp4883
I00
I4809
stp4884
Rp4885
sg28
I2
sg29
F4810.0
sbs(g10
S'contains(heavi)'
p4886
tp4887
g0
(g17
g2
Ntp4888
Rp4889
(dp4890
g21
F0.5
sg22
I49914
sg23
g24
((dp4891
I00
I49886
sI01
I28
stp4892
Rp4893
sg28
I2
sg29
F49915.0
sbs(g8
S'contains(happi)'
p4894
tp4895
g0
(g17
g2
Ntp4896
Rp4897
(dp4898
g21
F0.5
sg22
I58606
sg23
g24
((dp4899
I00
I58415
sI01
I191
stp4900
Rp4901
sg28
I2
sg29
F58607.0
sbs(g11
S'contains(unfortun)'
p4902
tp4903
g0
(g17
g2
Ntp4904
Rp4905
(dp4906
g21
F0.5
sg22
I24980
sg23
g24
((dp4907
I00
I24888
sI01
I92
stp4908
Rp4909
sg28
I2
sg29
F24981.0
sbs(g10
S'contains(ill)'
p4910
tp4911
g0
(g17
g2
Ntp4912
Rp4913
(dp4914
g21
F0.5
sg22
I49914
sg23
g24
((dp4915
I00
I49903
sI01
I11
stp4916
Rp4917
sg28
I2
sg29
F49915.0
sbs(g10
S'contains(disappoint)'
p4918
tp4919
g0
(g17
g2
Ntp4920
Rp4921
(dp4922
g21
F0.5
sg22
I49914
sg23
g24
((dp4923
I00
I49902
sI01
I12
stp4924
Rp4925
sg28
I2
sg29
F49915.0
sbs(g9
S'contains(firm)'
p4926
tp4927
g0
(g17
g2
Ntp4928
Rp4929
(dp4930
g21
F0.5
sg22
I4809
sg23
g24
((dp4931
I00
I4809
stp4932
Rp4933
sg28
I2
sg29
F4810.0
sbs(g10
S'contains(unfortun)'
p4934
tp4935
g0
(g17
g2
Ntp4936
Rp4937
(dp4938
g21
F0.5
sg22
I49914
sg23
g24
((dp4939
I00
I49900
sI01
I14
stp4940
Rp4941
sg28
I2
sg29
F49915.0
sbs(g8
S'contains(love)'
p4942
tp4943
g0
(g17
g2
Ntp4944
Rp4945
(dp4946
g21
F0.5
sg22
I58606
sg23
g24
((dp4947
I00
I57346
sI01
I1260
stp4948
Rp4949
sg28
I2
sg29
F58607.0
sbs(g12
S'contains(crazi)'
p4950
tp4951
g0
(g17
g2
Ntp4952
Rp4953
(dp4954
g21
F0.5
sg22
I53069
sg23
g24
((dp4955
I00
I53069
stp4956
Rp4957
sg28
I2
sg29
F53070.0
sbs(g12
S'contains(great)'
p4958
tp4959
g0
(g17
g2
Ntp4960
Rp4961
(dp4962
g21
F0.5
sg22
I53069
sg23
g24
((dp4963
I00
I38352
sI01
I14717
stp4964
Rp4965
sg28
I2
sg29
F53070.0
sbs(g8
S'contains(current)'
p4966
tp4967
g0
(g17
g2
Ntp4968
Rp4969
(dp4970
g21
F0.5
sg22
I58606
sg23
g24
((dp4971
I00
I58454
sI01
I152
stp4972
Rp4973
sg28
I2
sg29
F58607.0
sbs(g8
S'contains(needless)'
p4974
tp4975
g0
(g17
g2
Ntp4976
Rp4977
(dp4978
g21
F0.5
sg22
I58606
sg23
g24
((dp4979
I00
I58606
stp4980
Rp4981
sg28
I2
sg29
F58607.0
sbs(g11
S'contains(firm)'
p4982
tp4983
g0
(g17
g2
Ntp4984
Rp4985
(dp4986
g21
F0.5
sg22
I24980
sg23
g24
((dp4987
I00
I24770
sI01
I210
stp4988
Rp4989
sg28
I2
sg29
F24981.0
sbs(g8
S'contains(rude)'
p4990
tp4991
g0
(g17
g2
Ntp4992
Rp4993
(dp4994
g21
F0.5
sg22
I58606
sg23
g24
((dp4995
I00
I58586
sI01
I20
stp4996
Rp4997
sg28
I2
sg29
F58607.0
sbs(g9
S'contains(slowli)'
p4998
tp4999
g0
(g17
g2
Ntp5000
Rp5001
(dp5002
g21
F0.5
sg22
I4809
sg23
g24
((dp5003
I00
I4809
stp5004
Rp5005
sg28
I2
sg29
F4810.0
sbs(g10
S'contains(terribl)'
p5006
tp5007
g0
(g17
g2
Ntp5008
Rp5009
(dp5010
g21
F0.5
sg22
I49914
sg23
g24
((dp5011
I00
I49913
sI01
I1
stp5012
Rp5013
sg28
I2
sg29
F49915.0
sbs(g9
S'contains(random)'
p5014
tp5015
g0
(g17
g2
Ntp5016
Rp5017
(dp5018
g21
F0.5
sg22
I4809
sg23
g24
((dp5019
I00
I4785
sI01
I24
stp5020
Rp5021
sg28
I2
sg29
F4810.0
sbs(g9
S'contains(extra)'
p5022
tp5023
g0
(g17
g2
Ntp5024
Rp5025
(dp5026
g21
F0.5
sg22
I4809
sg23
g24
((dp5027
I00
I4809
stp5028
Rp5029
sg28
I2
sg29
F4810.0
sbs(g8
S'contains(unfortun)'
p5030
tp5031
g0
(g17
g2
Ntp5032
Rp5033
(dp5034
g21
F0.5
sg22
I58606
sg23
g24
((dp5035
I00
I58567
sI01
I39
stp5036
Rp5037
sg28
I2
sg29
F58607.0
sbs(g8
S'contains(hate)'
p5038
tp5039
g0
(g17
g2
Ntp5040
Rp5041
(dp5042
g21
F0.5
sg22
I58606
sg23
g24
((dp5043
I00
I58603
sI01
I3
stp5044
Rp5045
sg28
I2
sg29
F58607.0
sbs(g11
S'contains(frustrat)'
p5046
tp5047
g0
(g17
g2
Ntp5048
Rp5049
(dp5050
g21
F0.5
sg22
I24980
sg23
g24
((dp5051
I00
I24948
sI01
I32
stp5052
Rp5053
sg28
I2
sg29
F24981.0
sbs(g12
S'contains(happi)'
p5054
tp5055
g0
(g17
g2
Ntp5056
Rp5057
(dp5058
g21
F0.5
sg22
I53069
sg23
g24
((dp5059
I00
I52294
sI01
I775
stp5060
Rp5061
sg28
I2
sg29
F53070.0
sbs(g10
S'contains(multipl)'
p5062
tp5063
g0
(g17
g2
Ntp5064
Rp5065
(dp5066
g21
F0.5
sg22
I49914
sg23
g24
((dp5067
I00
I49618
sI01
I296
stp5068
Rp5069
sg28
I2
sg29
F49915.0
sbs(g9
S'contains(slow)'
p5070
tp5071
g0
(g17
g2
Ntp5072
Rp5073
(dp5074
g21
F0.5
sg22
I4809
sg23
g24
((dp5075
I00
I4808
sI01
I1
stp5076
Rp5077
sg28
I2
sg29
F4810.0
sbs(g9
S'contains(hate)'
p5078
tp5079
g0
(g17
g2
Ntp5080
Rp5081
(dp5082
g21
F0.5
sg22
I4809
sg23
g24
((dp5083
I00
I4732
sI01
I77
stp5084
Rp5085
sg28
I2
sg29
F4810.0
sbs(g10
S'contains(consist)'
p5086
tp5087
g0
(g17
g2
Ntp5088
Rp5089
(dp5090
g21
F0.5
sg22
I49914
sg23
g24
((dp5091
I00
I49851
sI01
I63
stp5092
Rp5093
sg28
I2
sg29
F49915.0
sbs(g11
S'contains(fail)'
p5094
tp5095
g0
(g17
g2
Ntp5096
Rp5097
(dp5098
g21
F0.5
sg22
I24980
sg23
g24
((dp5099
I00
I24907
sI01
I73
stp5100
Rp5101
sg28
I2
sg29
F24981.0
sbs(g9
S'contains(wide)'
p5102
tp5103
g0
(g17
g2
Ntp5104
Rp5105
(dp5106
g21
F0.5
sg22
I4809
sg23
g24
((dp5107
I00
I4809
stp5108
Rp5109
sg28
I2
sg29
F4810.0
sbs(g11
S'contains(needless)'
p5110
tp5111
g0
(g17
g2
Ntp5112
Rp5113
(dp5114
g21
F0.5
sg22
I24980
sg23
g24
((dp5115
I00
I24979
sI01
I1
stp5116
Rp5117
sg28
I2
sg29
F24981.0
sbs(g12
S'contains(spent)'
p5118
tp5119
g0
(g17
g2
Ntp5120
Rp5121
(dp5122
g21
F0.5
sg22
I53069
sg23
g24
((dp5123
I00
I53065
sI01
I4
stp5124
Rp5125
sg28
I2
sg29
F53070.0
sbs(g8
S'contains(spent)'
p5126
tp5127
g0
(g17
g2
Ntp5128
Rp5129
(dp5130
g21
F0.5
sg22
I58606
sg23
g24
((dp5131
I00
I58476
sI01
I130
stp5132
Rp5133
sg28
I2
sg29
F58607.0
sbs(g9
S'contains(amaz)'
p5134
tp5135
g0
(g17
g2
Ntp5136
Rp5137
(dp5138
g21
F0.5
sg22
I4809
sg23
g24
((dp5139
I00
I4809
stp5140
Rp5141
sg28
I2
sg29
F4810.0
sbs(g8
S'contains(poorli)'
p5142
tp5143
g0
(g17
g2
Ntp5144
Rp5145
(dp5146
g21
F0.5
sg22
I58606
sg23
g24
((dp5147
I00
I58605
sI01
I1
stp5148
Rp5149
sg28
I2
sg29
F58607.0
sbs(g11
S'contains(rude)'
p5150
tp5151
g0
(g17
g2
Ntp5152
Rp5153
(dp5154
g21
F0.5
sg22
I24980
sg23
g24
((dp5155
I00
I24797
sI01
I183
stp5156
Rp5157
sg28
I2
sg29
F24981.0
sbs(g10
S'contains(neg)'
p5158
tp5159
g0
(g17
g2
Ntp5160
Rp5161
(dp5162
g21
F0.5
sg22
I49914
sg23
g24
((dp5163
I00
I49878
sI01
I36
stp5164
Rp5165
sg28
I2
sg29
F49915.0
sbs(g10
S'contains(tiresom)'
p5166
tp5167
g0
(g17
g2
Ntp5168
Rp5169
(dp5170
g21
F0.5
sg22
I49914
sg23
g24
((dp5171
I00
I49912
sI01
I2
stp5172
Rp5173
sg28
I2
sg29
F49915.0
sbs(g11
S'contains(silli)'
p5174
tp5175
g0
(g17
g2
Ntp5176
Rp5177
(dp5178
g21
F0.5
sg22
I24980
sg23
g24
((dp5179
I00
I24970
sI01
I10
stp5180
Rp5181
sg28
I2
sg29
F24981.0
sbs(g12
S'contains(extra)'
p5182
tp5183
g0
(g17
g2
Ntp5184
Rp5185
(dp5186
g21
F0.5
sg22
I53069
sg23
g24
((dp5187
I00
I53066
sI01
I3
stp5188
Rp5189
sg28
I2
sg29
F53070.0
sbs(g12
S'contains(critic)'
p5190
tp5191
g0
(g17
g2
Ntp5192
Rp5193
(dp5194
g21
F0.5
sg22
I53069
sg23
g24
((dp5195
I00
I53067
sI01
I2
stp5196
Rp5197
sg28
I2
sg29
F53070.0
sbs(g12
S'contains(disappoint)'
p5198
tp5199
g0
(g17
g2
Ntp5200
Rp5201
(dp5202
g21
F0.5
sg22
I53069
sg23
g24
((dp5203
I00
I53069
stp5204
Rp5205
sg28
I2
sg29
F53070.0
sbs(g8
S'contains(frustrat)'
p5206
tp5207
g0
(g17
g2
Ntp5208
Rp5209
(dp5210
g21
F0.5
sg22
I58606
sg23
g24
((dp5211
I00
I58567
sI01
I39
stp5212
Rp5213
sg28
I2
sg29
F58607.0
sbs(g12
S'contains(sad)'
p5214
tp5215
g0
(g17
g2
Ntp5216
Rp5217
(dp5218
g21
F0.5
sg22
I53069
sg23
g24
((dp5219
I00
I53069
stp5220
Rp5221
sg28
I2
sg29
F53070.0
sbs(g8
S'contains(top)'
p5222
tp5223
g0
(g17
g2
Ntp5224
Rp5225
(dp5226
g21
F0.5
sg22
I58606
sg23
g24
((dp5227
I00
I58112
sI01
I494
stp5228
Rp5229
sg28
I2
sg29
F58607.0
sbs(g10
S'contains(societi)'
p5230
tp5231
g0
(g17
g2
Ntp5232
Rp5233
(dp5234
g21
F0.5
sg22
I49914
sg23
g24
((dp5235
I00
I49907
sI01
I7
stp5236
Rp5237
sg28
I2
sg29
F49915.0
sbs(g12
S'contains(uniqu)'
p5238
tp5239
g0
(g17
g2
Ntp5240
Rp5241
(dp5242
g21
F0.5
sg22
I53069
sg23
g24
((dp5243
I00
I53059
sI01
I10
stp5244
Rp5245
sg28
I2
sg29
F53070.0
sbs(g10
S'contains(easili)'
p5246
tp5247
g0
(g17
g2
Ntp5248
Rp5249
(dp5250
g21
F0.5
sg22
I49914
sg23
g24
((dp5251
I00
I49910
sI01
I4
stp5252
Rp5253
sg28
I2
sg29
F49915.0
sbs(g12
S'contains(mere)'
p5254
tp5255
g0
(g17
g2
Ntp5256
Rp5257
(dp5258
g21
F0.5
sg22
I53069
sg23
g24
((dp5259
I00
I53069
stp5260
Rp5261
sg28
I2
sg29
F53070.0
sbs(g9
S'contains(troubl)'
p5262
tp5263
g0
(g17
g2
Ntp5264
Rp5265
(dp5266
g21
F0.5
sg22
I4809
sg23
g24
((dp5267
I00
I4807
sI01
I2
stp5268
Rp5269
sg28
I2
sg29
F4810.0
sbs(g9
S'contains(nearli)'
p5270
tp5271
g0
(g17
g2
Ntp5272
Rp5273
(dp5274
g21
F0.5
sg22
I4809
sg23
g24
((dp5275
I00
I4786
sI01
I23
stp5276
Rp5277
sg28
I2
sg29
F4810.0
sbs(g9
S'contains(wrong)'
p5278
tp5279
g0
(g17
g2
Ntp5280
Rp5281
(dp5282
g21
F0.5
sg22
I4809
sg23
g24
((dp5283
I00
I4646
sI01
I163
stp5284
Rp5285
sg28
I2
sg29
F4810.0
sbs(g11
S'contains(traffic)'
p5286
tp5287
g0
(g17
g2
Ntp5288
Rp5289
(dp5290
g21
F0.5
sg22
I24980
sg23
g24
((dp5291
I00
I24961
sI01
I19
stp5292
Rp5293
sg28
I2
sg29
F24981.0
sbs(g12
S'contains(bore)'
p5294
tp5295
g0
(g17
g2
Ntp5296
Rp5297
(dp5298
g21
F0.5
sg22
I53069
sg23
g24
((dp5299
I00
I53068
sI01
I1
stp5300
Rp5301
sg28
I2
sg29
F53070.0
sbs(g8
S'contains(usual)'
p5302
tp5303
g0
(g17
g2
Ntp5304
Rp5305
(dp5306
g21
F0.5
sg22
I58606
sg23
g24
((dp5307
I00
I58492
sI01
I114
stp5308
Rp5309
sg28
I2
sg29
F58607.0
sbs(g9
S'contains(tediou)'
p5310
tp5311
g0
(g17
g2
Ntp5312
Rp5313
(dp5314
g21
F0.5
sg22
I4809
sg23
g24
((dp5315
I00
I4760
sI01
I49
stp5316
Rp5317
sg28
I2
sg29
F4810.0
sbs(g12
S'contains(insan)'
p5318
tp5319
g0
(g17
g2
Ntp5320
Rp5321
(dp5322
g21
F0.5
sg22
I53069
sg23
g24
((dp5323
I00
I53069
stp5324
Rp5325
sg28
I2
sg29
F53070.0
sbs(g12
S'contains(afraid)'
p5326
tp5327
g0
(g17
g2
Ntp5328
Rp5329
(dp5330
g21
F0.5
sg22
I53069
sg23
g24
((dp5331
I00
I53069
stp5332
Rp5333
sg28
I2
sg29
F53070.0
sbs(g12
S'contains(readi)'
p5334
tp5335
g0
(g17
g2
Ntp5336
Rp5337
(dp5338
g21
F0.5
sg22
I53069
sg23
g24
((dp5339
I00
I53066
sI01
I3
stp5340
Rp5341
sg28
I2
sg29
F53070.0
sbs(g9
S'contains(societi)'
p5342
tp5343
g0
(g17
g2
Ntp5344
Rp5345
(dp5346
g21
F0.5
sg22
I4809
sg23
g24
((dp5347
I00
I4803
sI01
I6
stp5348
Rp5349
sg28
I2
sg29
F4810.0
sbs(g10
S'contains(spent)'
p5350
tp5351
g0
(g17
g2
Ntp5352
Rp5353
(dp5354
g21
F0.5
sg22
I49914
sg23
g24
((dp5355
I00
I49868
sI01
I46
stp5356
Rp5357
sg28
I2
sg29
F49915.0
sbs(g8
S'contains(fast)'
p5358
tp5359
g0
(g17
g2
Ntp5360
Rp5361
(dp5362
g21
F0.5
sg22
I58606
sg23
g24
((dp5363
I00
I56938
sI01
I1668
stp5364
Rp5365
sg28
I2
sg29
F58607.0
sbs(g11
S'contains(fault)'
p5366
tp5367
g0
(g17
g2
Ntp5368
Rp5369
(dp5370
g21
F0.5
sg22
I24980
sg23
g24
((dp5371
I00
I24969
sI01
I11
stp5372
Rp5373
sg28
I2
sg29
F24981.0
sbs(g10
S'contains(strong)'
p5374
tp5375
g0
(g17
g2
Ntp5376
Rp5377
(dp5378
g21
F0.5
sg22
I49914
sg23
g24
((dp5379
I00
I49901
sI01
I13
stp5380
Rp5381
sg28
I2
sg29
F49915.0
sbs(g10
S'contains(insecur)'
p5382
tp5383
g0
(g17
g2
Ntp5384
Rp5385
(dp5386
g21
F0.5
sg22
I49914
sg23
g24
((dp5387
I00
I49914
stp5388
Rp5389
sg28
I2
sg29
F49915.0
sbs(g12
S'contains(faint)'
p5390
tp5391
g0
(g17
g2
Ntp5392
Rp5393
(dp5394
g21
F0.5
sg22
I53069
sg23
g24
((dp5395
I00
I53068
sI01
I1
stp5396
Rp5397
sg28
I2
sg29
F53070.0
sbs(g9
S'contains(unfortun)'
p5398
tp5399
g0
(g17
g2
Ntp5400
Rp5401
(dp5402
g21
F0.5
sg22
I4809
sg23
g24
((dp5403
I00
I4722
sI01
I87
stp5404
Rp5405
sg28
I2
sg29
F4810.0
sbs(g11
S'contains(troubl)'
p5406
tp5407
g0
(g17
g2
Ntp5408
Rp5409
(dp5410
g21
F0.5
sg22
I24980
sg23
g24
((dp5411
I00
I24852
sI01
I128
stp5412
Rp5413
sg28
I2
sg29
F24981.0
sbs(g9
S'contains(stupid)'
p5414
tp5415
g0
(g17
g2
Ntp5416
Rp5417
(dp5418
g21
F0.5
sg22
I4809
sg23
g24
((dp5419
I00
I4780
sI01
I29
stp5420
Rp5421
sg28
I2
sg29
F4810.0
sbs(g8
S'contains(short)'
p5422
tp5423
g0
(g17
g2
Ntp5424
Rp5425
(dp5426
g21
F0.5
sg22
I58606
sg23
g24
((dp5427
I00
I58395
sI01
I211
stp5428
Rp5429
sg28
I2
sg29
F58607.0
sbs(g10
S'contains(outsid)'
p5430
tp5431
g0
(g17
g2
Ntp5432
Rp5433
(dp5434
g21
F0.5
sg22
I49914
sg23
g24
((dp5435
I00
I49755
sI01
I159
stp5436
Rp5437
sg28
I2
sg29
F49915.0
sbs(g9
S'contains(complic)'
p5438
tp5439
g0
(g17
g2
Ntp5440
Rp5441
(dp5442
g21
F0.5
sg22
I4809
sg23
g24
((dp5443
I00
I4784
sI01
I25
stp5444
Rp5445
sg28
I2
sg29
F4810.0
sbs(g10
S'contains(slow)'
p5446
tp5447
g0
(g17
g2
Ntp5448
Rp5449
(dp5450
g21
F0.5
sg22
I49914
sg23
g24
((dp5451
I00
I49901
sI01
I13
stp5452
Rp5453
sg28
I2
sg29
F49915.0
sbs(g12
S'contains(solid)'
p5454
tp5455
g0
(g17
g2
Ntp5456
Rp5457
(dp5458
g21
F0.5
sg22
I53069
sg23
g24
((dp5459
I00
I53068
sI01
I1
stp5460
Rp5461
sg28
I2
sg29
F53070.0
sbs(g8
S'contains(tremend)'
p5462
tp5463
g0
(g17
g2
Ntp5464
Rp5465
(dp5466
g21
F0.5
sg22
I58606
sg23
g24
((dp5467
I00
I58504
sI01
I102
stp5468
Rp5469
sg28
I2
sg29
F58607.0
sbs(g11
S'contains(yeah)'
p5470
tp5471
g0
(g17
g2
Ntp5472
Rp5473
(dp5474
g21
F0.5
sg22
I24980
sg23
g24
((dp5475
I00
I24978
sI01
I2
stp5476
Rp5477
sg28
I2
sg29
F24981.0
sbs(g8
S'contains(everyday)'
p5478
tp5479
g0
(g17
g2
Ntp5480
Rp5481
(dp5482
g21
F0.5
sg22
I58606
sg23
g24
((dp5483
I00
I58348
sI01
I258
stp5484
Rp5485
sg28
I2
sg29
F58607.0
sbs(g10
S'contains(higher)'
p5486
tp5487
g0
(g17
g2
Ntp5488
Rp5489
(dp5490
g21
F0.5
sg22
I49914
sg23
g24
((dp5491
I00
I49880
sI01
I34
stp5492
Rp5493
sg28
I2
sg29
F49915.0
sbs(g10
S'contains(mere)'
p5494
tp5495
g0
(g17
g2
Ntp5496
Rp5497
(dp5498
g21
F0.5
sg22
I49914
sg23
g24
((dp5499
I00
I49914
stp5500
Rp5501
sg28
I2
sg29
F49915.0
sbs(g9
S'contains(imposs)'
p5502
tp5503
g0
(g17
g2
Ntp5504
Rp5505
(dp5506
g21
F0.5
sg22
I4809
sg23
g24
((dp5507
I00
I4717
sI01
I92
stp5508
Rp5509
sg28
I2
sg29
F4810.0
sbs(g9
S'contains(rare)'
p5510
tp5511
g0
(g17
g2
Ntp5512
Rp5513
(dp5514
g21
F0.5
sg22
I4809
sg23
g24
((dp5515
I00
I4808
sI01
I1
stp5516
Rp5517
sg28
I2
sg29
F4810.0
sbs(g9
S'contains(terribl)'
p5518
tp5519
g0
(g17
g2
Ntp5520
Rp5521
(dp5522
g21
F0.5
sg22
I4809
sg23
g24
((dp5523
I00
I4572
sI01
I237
stp5524
Rp5525
sg28
I2
sg29
F4810.0
sbs(g12
S'contains(entir)'
p5526
tp5527
g0
(g17
g2
Ntp5528
Rp5529
(dp5530
g21
F0.5
sg22
I53069
sg23
g24
((dp5531
I00
I53069
stp5532
Rp5533
sg28
I2
sg29
F53070.0
sbs(g11
S'contains(ten)'
p5534
tp5535
g0
(g17
g2
Ntp5536
Rp5537
(dp5538
g21
F0.5
sg22
I24980
sg23
g24
((dp5539
I00
I24948
sI01
I32
stp5540
Rp5541
sg28
I2
sg29
F24981.0
sbs(g9
S'contains(sick)'
p5542
tp5543
g0
(g17
g2
Ntp5544
Rp5545
(dp5546
g21
F0.5
sg22
I4809
sg23
g24
((dp5547
I00
I4708
sI01
I101
stp5548
Rp5549
sg28
I2
sg29
F4810.0
sbs(g10
S'contains(love)'
p5550
tp5551
g0
(g17
g2
Ntp5552
Rp5553
(dp5554
g21
F0.5
sg22
I49914
sg23
g24
((dp5555
I00
I49875
sI01
I39
stp5556
Rp5557
sg28
I2
sg29
F49915.0
sbs(g11
S'contains(slowli)'
p5558
tp5559
g0
(g17
g2
Ntp5560
Rp5561
(dp5562
g21
F0.5
sg22
I24980
sg23
g24
((dp5563
I00
I24942
sI01
I38
stp5564
Rp5565
sg28
I2
sg29
F24981.0
sbs(g10
S'contains(broken)'
p5566
tp5567
g0
(g17
g2
Ntp5568
Rp5569
(dp5570
g21
F0.5
sg22
I49914
sg23
g24
((dp5571
I00
I49912
sI01
I2
stp5572
Rp5573
sg28
I2
sg29
F49915.0
sbs(g10
S'contains(independ)'
p5574
tp5575
g0
(g17
g2
Ntp5576
Rp5577
(dp5578
g21
F0.5
sg22
I49914
sg23
g24
((dp5579
I00
I49866
sI01
I48
stp5580
Rp5581
sg28
I2
sg29
F49915.0
sbs(g8
S'contains(hard)'
p5582
tp5583
g0
(g17
g2
Ntp5584
Rp5585
(dp5586
g21
F0.5
sg22
I58606
sg23
g24
((dp5587
I00
I58019
sI01
I587
stp5588
Rp5589
sg28
I2
sg29
F58607.0
sbs(g12
S'contains(traffic)'
p5590
tp5591
g0
(g17
g2
Ntp5592
Rp5593
(dp5594
g21
F0.5
sg22
I53069
sg23
g24
((dp5595
I00
I53068
sI01
I1
stp5596
Rp5597
sg28
I2
sg29
F53070.0
sbs(g10
S'contains(bad)'
p5598
tp5599
g0
(g17
g2
Ntp5600
Rp5601
(dp5602
g21
F0.5
sg22
I49914
sg23
g24
((dp5603
I00
I49813
sI01
I101
stp5604
Rp5605
sg28
I2
sg29
F49915.0
sbs(g12
S'contains(ten)'
p5606
tp5607
g0
(g17
g2
Ntp5608
Rp5609
(dp5610
g21
F0.5
sg22
I53069
sg23
g24
((dp5611
I00
I53068
sI01
I1
stp5612
Rp5613
sg28
I2
sg29
F53070.0
sbs(g10
S'contains(faint)'
p5614
tp5615
g0
(g17
g2
Ntp5616
Rp5617
(dp5618
g21
F0.5
sg22
I49914
sg23
g24
((dp5619
I00
I49914
stp5620
Rp5621
sg28
I2
sg29
F49915.0
sbs(g11
S'contains(crazi)'
p5622
tp5623
g0
(g17
g2
Ntp5624
Rp5625
(dp5626
g21
F0.5
sg22
I24980
sg23
g24
((dp5627
I00
I24930
sI01
I50
stp5628
Rp5629
sg28
I2
sg29
F24981.0
sbs(g9
S'contains(disgust)'
p5630
tp5631
g0
(g17
g2
Ntp5632
Rp5633
(dp5634
g21
F0.5
sg22
I4809
sg23
g24
((dp5635
I00
I4800
sI01
I9
stp5636
Rp5637
sg28
I2
sg29
F4810.0
sbs(g12
S'contains(difficult)'
p5638
tp5639
g0
(g17
g2
Ntp5640
Rp5641
(dp5642
g21
F0.5
sg22
I53069
sg23
g24
((dp5643
I00
I53069
stp5644
Rp5645
sg28
I2
sg29
F53070.0
sbs(g11
S'contains(easili)'
p5646
tp5647
g0
(g17
g2
Ntp5648
Rp5649
(dp5650
g21
F0.5
sg22
I24980
sg23
g24
((dp5651
I00
I24972
sI01
I8
stp5652
Rp5653
sg28
I2
sg29
F24981.0
sbs(g8
S'contains(good)'
p5654
tp5655
g0
(g17
g2
Ntp5656
Rp5657
(dp5658
g21
F0.5
sg22
I58606
sg23
g24
((dp5659
I00
I53379
sI01
I5227
stp5660
Rp5661
sg28
I2
sg29
F58607.0
sbs(g10
S'contains(honestli)'
p5662
tp5663
g0
(g17
g2
Ntp5664
Rp5665
(dp5666
g21
F0.5
sg22
I49914
sg23
g24
((dp5667
I00
I49913
sI01
I1
stp5668
Rp5669
sg28
I2
sg29
F49915.0
sbs(g11
S'contains(disappoint)'
p5670
tp5671
g0
(g17
g2
Ntp5672
Rp5673
(dp5674
g21
F0.5
sg22
I24980
sg23
g24
((dp5675
I00
I24952
sI01
I28
stp5676
Rp5677
sg28
I2
sg29
F24981.0
sbs(g12
S'contains(latest)'
p5678
tp5679
g0
(g17
g2
Ntp5680
Rp5681
(dp5682
g21
F0.5
sg22
I53069
sg23
g24
((dp5683
I00
I53023
sI01
I46
stp5684
Rp5685
sg28
I2
sg29
F53070.0
sbs(g9
S'contains(afraid)'
p5686
tp5687
g0
(g17
g2
Ntp5688
Rp5689
(dp5690
g21
F0.5
sg22
I4809
sg23
g24
((dp5691
I00
I4792
sI01
I17
stp5692
Rp5693
sg28
I2
sg29
F4810.0
sbs(g8
S'contains(mirror)'
p5694
tp5695
g0
(g17
g2
Ntp5696
Rp5697
(dp5698
g21
F0.5
sg22
I58606
sg23
g24
((dp5699
I00
I58605
sI01
I1
stp5700
Rp5701
sg28
I2
sg29
F58607.0
sbs(g9
S'contains(left)'
p5702
tp5703
g0
(g17
g2
Ntp5704
Rp5705
(dp5706
g21
F0.5
sg22
I4809
sg23
g24
((dp5707
I00
I4809
stp5708
Rp5709
sg28
I2
sg29
F4810.0
sbs(g9
S'contains(silli)'
p5710
tp5711
g0
(g17
g2
Ntp5712
Rp5713
(dp5714
g21
F0.5
sg22
I4809
sg23
g24
((dp5715
I00
I4800
sI01
I9
stp5716
Rp5717
sg28
I2
sg29
F4810.0
sbs(g10
S'contains(interest)'
p5718
tp5719
g0
(g17
g2
Ntp5720
Rp5721
(dp5722
g21
F0.5
sg22
I49914
sg23
g24
((dp5723
I00
I49834
sI01
I80
stp5724
Rp5725
sg28
I2
sg29
F49915.0
sbs(g9
S'contains(fine)'
p5726
tp5727
g0
(g17
g2
Ntp5728
Rp5729
(dp5730
g21
F0.5
sg22
I4809
sg23
g24
((dp5731
I00
I4809
stp5732
Rp5733
sg28
I2
sg29
F4810.0
sbs(g9
S'contains(typic)'
p5734
tp5735
g0
(g17
g2
Ntp5736
Rp5737
(dp5738
g21
F0.5
sg22
I4809
sg23
g24
((dp5739
I00
I4792
sI01
I17
stp5740
Rp5741
sg28
I2
sg29
F4810.0
sbs(g11
S'contains(excess)'
p5742
tp5743
g0
(g17
g2
Ntp5744
Rp5745
(dp5746
g21
F0.5
sg22
I24980
sg23
g24
((dp5747
I00
I24939
sI01
I41
stp5748
Rp5749
sg28
I2
sg29
F24981.0
sbs(g9
S'contains(disappoint)'
p5750
tp5751
g0
(g17
g2
Ntp5752
Rp5753
(dp5754
g21
F0.5
sg22
I4809
sg23
g24
((dp5755
I00
I4777
sI01
I32
stp5756
Rp5757
sg28
I2
sg29
F4810.0
sbs(g9
S'contains(win)'
p5758
tp5759
g0
(g17
g2
Ntp5760
Rp5761
(dp5762
g21
F0.5
sg22
I4809
sg23
g24
((dp5763
I00
I4809
stp5764
Rp5765
sg28
I2
sg29
F4810.0
sbs(g12
S'contains(perfect)'
p5766
tp5767
g0
(g17
g2
Ntp5768
Rp5769
(dp5770
g21
F0.5
sg22
I53069
sg23
g24
((dp5771
I00
I52702
sI01
I367
stp5772
Rp5773
sg28
I2
sg29
F53070.0
sbs(g9
S'contains(casual)'
p5774
tp5775
g0
(g17
g2
Ntp5776
Rp5777
(dp5778
g21
F0.5
sg22
I4809
sg23
g24
((dp5779
I00
I4766
sI01
I43
stp5780
Rp5781
sg28
I2
sg29
F4810.0
sbs(g10
S'contains(rare)'
p5782
tp5783
g0
(g17
g2
Ntp5784
Rp5785
(dp5786
g21
F0.5
sg22
I49914
sg23
g24
((dp5787
I00
I49905
sI01
I9
stp5788
Rp5789
sg28
I2
sg29
F49915.0
sbs(g9
S'contains(everyday)'
p5790
tp5791
g0
(g17
g2
Ntp5792
Rp5793
(dp5794
g21
F0.5
sg22
I4809
sg23
g24
((dp5795
I00
I4804
sI01
I5
stp5796
Rp5797
sg28
I2
sg29
F4810.0
sbs(g8
S'contains(second)'
p5798
tp5799
g0
(g17
g2
Ntp5800
Rp5801
(dp5802
g21
F0.5
sg22
I58606
sg23
g24
((dp5803
I00
I58550
sI01
I56
stp5804
Rp5805
sg28
I2
sg29
F58607.0
sbs(g12
S'contains(ill)'
p5806
tp5807
g0
(g17
g2
Ntp5808
Rp5809
(dp5810
g21
F0.5
sg22
I53069
sg23
g24
((dp5811
I00
I53069
stp5812
Rp5813
sg28
I2
sg29
F53070.0
sbs(g9
S'contains(fault)'
p5814
tp5815
g0
(g17
g2
Ntp5816
Rp5817
(dp5818
g21
F0.5
sg22
I4809
sg23
g24
((dp5819
I00
I4802
sI01
I7
stp5820
Rp5821
sg28
I2
sg29
F4810.0
sbs(g9
S'contains(excess)'
p5822
tp5823
g0
(g17
g2
Ntp5824
Rp5825
(dp5826
g21
F0.5
sg22
I4809
sg23
g24
((dp5827
I00
I4809
stp5828
Rp5829
sg28
I2
sg29
F4810.0
sbs(g10
S'contains(current)'
p5830
tp5831
g0
(g17
g2
Ntp5832
Rp5833
(dp5834
g21
F0.5
sg22
I49914
sg23
g24
((dp5835
I00
I49752
sI01
I162
stp5836
Rp5837
sg28
I2
sg29
F49915.0
sbs(g12
S'contains(decent)'
p5838
tp5839
g0
(g17
g2
Ntp5840
Rp5841
(dp5842
g21
F0.5
sg22
I53069
sg23
g24
((dp5843
I00
I53067
sI01
I2
stp5844
Rp5845
sg28
I2
sg29
F53070.0
sbs(g12
S'contains(bad)'
p5846
tp5847
g0
(g17
g2
Ntp5848
Rp5849
(dp5850
g21
F0.5
sg22
I53069
sg23
g24
((dp5851
I00
I53063
sI01
I6
stp5852
Rp5853
sg28
I2
sg29
F53070.0
sbs(g8
S'contains(enjoy)'
p5854
tp5855
g0
(g17
g2
Ntp5856
Rp5857
(dp5858
g21
F0.5
sg22
I58606
sg23
g24
((dp5859
I00
I52589
sI01
I6017
stp5860
Rp5861
sg28
I2
sg29
F58607.0
sbs(g11
S'contains(invalu)'
p5862
tp5863
g0
(g17
g2
Ntp5864
Rp5865
(dp5866
g21
F0.5
sg22
I24980
sg23
g24
((dp5867
I00
I24980
stp5868
Rp5869
sg28
I2
sg29
F24981.0
sbs(g12
S'contains(usual)'
p5870
tp5871
g0
(g17
g2
Ntp5872
Rp5873
(dp5874
g21
F0.5
sg22
I53069
sg23
g24
((dp5875
I00
I53048
sI01
I21
stp5876
Rp5877
sg28
I2
sg29
F53070.0
sbs(g8
S'contains(nice)'
p5878
tp5879
g0
(g17
g2
Ntp5880
Rp5881
(dp5882
g21
F0.5
sg22
I58606
sg23
g24
((dp5883
I00
I57759
sI01
I847
stp5884
Rp5885
sg28
I2
sg29
F58607.0
sbs(g9
S'contains(disorgan)'
p5886
tp5887
g0
(g17
g2
Ntp5888
Rp5889
(dp5890
g21
F0.5
sg22
I4809
sg23
g24
((dp5891
I00
I4803
sI01
I6
stp5892
Rp5893
sg28
I2
sg29
F4810.0
sbs(g9
S'contains(angri)'
p5894
tp5895
g0
(g17
g2
Ntp5896
Rp5897
(dp5898
g21
F0.5
sg22
I4809
sg23
g24
((dp5899
I00
I4764
sI01
I45
stp5900
Rp5901
sg28
I2
sg29
F4810.0
sbs(g8
S'contains(sure)'
p5902
tp5903
g0
(g17
g2
Ntp5904
Rp5905
(dp5906
g21
F0.5
sg22
I58606
sg23
g24
((dp5907
I00
I57940
sI01
I666
stp5908
Rp5909
sg28
I2
sg29
F58607.0
sbs(g11
S'contains(worst)'
p5910
tp5911
g0
(g17
g2
Ntp5912
Rp5913
(dp5914
g21
F0.5
sg22
I24980
sg23
g24
((dp5915
I00
I24857
sI01
I123
stp5916
Rp5917
sg28
I2
sg29
F24981.0
sbs(g9
S'contains(seriou)'
p5918
tp5919
g0
(g17
g2
Ntp5920
Rp5921
(dp5922
g21
F0.5
sg22
I4809
sg23
g24
((dp5923
I00
I4807
sI01
I2
stp5924
Rp5925
sg28
I2
sg29
F4810.0
sbs(g11
S'contains(happi)'
p5926
tp5927
g0
(g17
g2
Ntp5928
Rp5929
(dp5930
g21
F0.5
sg22
I24980
sg23
g24
((dp5931
I00
I24948
sI01
I32
stp5932
Rp5933
sg28
I2
sg29
F24981.0
sbs(g9
S'contains(blind)'
p5934
tp5935
g0
(g17
g2
Ntp5936
Rp5937
(dp5938
g21
F0.5
sg22
I4809
sg23
g24
((dp5939
I00
I4802
sI01
I7
stp5940
Rp5941
sg28
I2
sg29
F4810.0
sbs(g11
S'contains(broken)'
p5942
tp5943
g0
(g17
g2
Ntp5944
Rp5945
(dp5946
g21
F0.5
sg22
I24980
sg23
g24
((dp5947
I00
I24927
sI01
I53
stp5948
Rp5949
sg28
I2
sg29
F24981.0
sbs(g12
S'contains(multipl)'
p5950
tp5951
g0
(g17
g2
Ntp5952
Rp5953
(dp5954
g21
F0.5
sg22
I53069
sg23
g24
((dp5955
I00
I53064
sI01
I5
stp5956
Rp5957
sg28
I2
sg29
F53070.0
sbs(g12
S'contains(late)'
p5958
tp5959
g0
(g17
g2
Ntp5960
Rp5961
(dp5962
g21
F0.5
sg22
I53069
sg23
g24
((dp5963
I00
I53065
sI01
I4
stp5964
Rp5965
sg28
I2
sg29
F53070.0
sbs(g11
S'contains(solid)'
p5966
tp5967
g0
(g17
g2
Ntp5968
Rp5969
(dp5970
g21
F0.5
sg22
I24980
sg23
g24
((dp5971
I00
I24974
sI01
I6
stp5972
Rp5973
sg28
I2
sg29
F24981.0
sbs(g10
S'contains(solid)'
p5974
tp5975
g0
(g17
g2
Ntp5976
Rp5977
(dp5978
g21
F0.5
sg22
I49914
sg23
g24
((dp5979
I00
I49864
sI01
I50
stp5980
Rp5981
sg28
I2
sg29
F49915.0
sbs(g9
S'contains(averag)'
p5982
tp5983
g0
(g17
g2
Ntp5984
Rp5985
(dp5986
g21
F0.5
sg22
I4809
sg23
g24
((dp5987
I00
I4808
sI01
I1
stp5988
Rp5989
sg28
I2
sg29
F4810.0
sbs(g11
S'contains(behind)'
p5990
tp5991
g0
(g17
g2
Ntp5992
Rp5993
(dp5994
g21
F0.5
sg22
I24980
sg23
g24
((dp5995
I00
I24830
sI01
I150
stp5996
Rp5997
sg28
I2
sg29
F24981.0
sbs(g8
S'contains(imposs)'
p5998
tp5999
g0
(g17
g2
Ntp6000
Rp6001
(dp6002
g21
F0.5
sg22
I58606
sg23
g24
((dp6003
I00
I58600
sI01
I6
stp6004
Rp6005
sg28
I2
sg29
F58607.0
sbs(g12
S'contains(mainli)'
p6006
tp6007
g0
(g17
g2
Ntp6008
Rp6009
(dp6010
g21
F0.5
sg22
I53069
sg23
g24
((dp6011
I00
I53068
sI01
I1
stp6012
Rp6013
sg28
I2
sg29
F53070.0
sbs(g12
S'contains(annoy)'
p6014
tp6015
g0
(g17
g2
Ntp6016
Rp6017
(dp6018
g21
F0.5
sg22
I53069
sg23
g24
((dp6019
I00
I53069
stp6020
Rp6021
sg28
I2
sg29
F53070.0
sbs(g11
S'contains(enjoy)'
p6022
tp6023
g0
(g17
g2
Ntp6024
Rp6025
(dp6026
g21
F0.5
sg22
I24980
sg23
g24
((dp6027
I00
I24898
sI01
I82
stp6028
Rp6029
sg28
I2
sg29
F24981.0
sbs(g11
S'contains(add)'
p6030
tp6031
g0
(g17
g2
Ntp6032
Rp6033
(dp6034
g21
F0.5
sg22
I24980
sg23
g24
((dp6035
I00
I24979
sI01
I1
stp6036
Rp6037
sg28
I2
sg29
F24981.0
sbs(g12
S'contains(angri)'
p6038
tp6039
g0
(g17
g2
Ntp6040
Rp6041
(dp6042
g21
F0.5
sg22
I53069
sg23
g24
((dp6043
I00
I53069
stp6044
Rp6045
sg28
I2
sg29
F53070.0
sbs(g9
S'contains(readi)'
p6046
tp6047
g0
(g17
g2
Ntp6048
Rp6049
(dp6050
g21
F0.5
sg22
I4809
sg23
g24
((dp6051
I00
I4809
stp6052
Rp6053
sg28
I2
sg29
F4810.0
sbs(g12
S'contains(broken)'
p6054
tp6055
g0
(g17
g2
Ntp6056
Rp6057
(dp6058
g21
F0.5
sg22
I53069
sg23
g24
((dp6059
I00
I53069
stp6060
Rp6061
sg28
I2
sg29
F53070.0
sbs(g10
S'contains(decent)'
p6062
tp6063
g0
(g17
g2
Ntp6064
Rp6065
(dp6066
g21
F0.5
sg22
I49914
sg23
g24
((dp6067
I00
I49871
sI01
I43
stp6068
Rp6069
sg28
I2
sg29
F49915.0
sbs(g8
S'contains(solid)'
p6070
tp6071
g0
(g17
g2
Ntp6072
Rp6073
(dp6074
g21
F0.5
sg22
I58606
sg23
g24
((dp6075
I00
I58583
sI01
I23
stp6076
Rp6077
sg28
I2
sg29
F58607.0
sbs(g11
S'contains(insan)'
p6078
tp6079
g0
(g17
g2
Ntp6080
Rp6081
(dp6082
g21
F0.5
sg22
I24980
sg23
g24
((dp6083
I00
I24961
sI01
I19
stp6084
Rp6085
sg28
I2
sg29
F24981.0
sbs(g12
S'contains(poor)'
p6086
tp6087
g0
(g17
g2
Ntp6088
Rp6089
(dp6090
g21
F0.5
sg22
I53069
sg23
g24
((dp6091
I00
I53065
sI01
I4
stp6092
Rp6093
sg28
I2
sg29
F53070.0
sbs(g10
S'contains(ten)'
p6094
tp6095
g0
(g17
g2
Ntp6096
Rp6097
(dp6098
g21
F0.5
sg22
I49914
sg23
g24
((dp6099
I00
I49891
sI01
I23
stp6100
Rp6101
sg28
I2
sg29
F49915.0
sbs(g8
S'contains(fantast)'
p6102
tp6103
g0
(g17
g2
Ntp6104
Rp6105
(dp6106
g21
F0.5
sg22
I58606
sg23
g24
((dp6107
I00
I58355
sI01
I251
stp6108
Rp6109
sg28
I2
sg29
F58607.0
sbs(g8
S'contains(sever)'
p6110
tp6111
g0
(g17
g2
Ntp6112
Rp6113
(dp6114
g21
F0.5
sg22
I58606
sg23
g24
((dp6115
I00
I58473
sI01
I133
stp6116
Rp6117
sg28
I2
sg29
F58607.0
sbs(g8
S'contains(due)'
p6118
tp6119
g0
(g17
g2
Ntp6120
Rp6121
(dp6122
g21
F0.5
sg22
I58606
sg23
g24
((dp6123
I00
I58399
sI01
I207
stp6124
Rp6125
sg28
I2
sg29
F58607.0
sbs(g11
S'contains(seriou)'
p6126
tp6127
g0
(g17
g2
Ntp6128
Rp6129
(dp6130
g21
F0.5
sg22
I24980
sg23
g24
((dp6131
I00
I24890
sI01
I90
stp6132
Rp6133
sg28
I2
sg29
F24981.0
sbs(g11
S'contains(pleasant)'
p6134
tp6135
g0
(g17
g2
Ntp6136
Rp6137
(dp6138
g21
F0.5
sg22
I24980
sg23
g24
((dp6139
I00
I24972
sI01
I8
stp6140
Rp6141
sg28
I2
sg29
F24981.0
sbs(g8
S'contains(tediou)'
p6142
tp6143
g0
(g17
g2
Ntp6144
Rp6145
(dp6146
g21
F0.5
sg22
I58606
sg23
g24
((dp6147
I00
I58604
sI01
I2
stp6148
Rp6149
sg28
I2
sg29
F58607.0
sbs(g10
S'contains(random)'
p6150
tp6151
g0
(g17
g2
Ntp6152
Rp6153
(dp6154
g21
F0.5
sg22
I49914
sg23
g24
((dp6155
I00
I49911
sI01
I3
stp6156
Rp6157
sg28
I2
sg29
F49915.0
sbs(g10
S'contains(silli)'
p6158
tp6159
g0
(g17
g2
Ntp6160
Rp6161
(dp6162
g21
F0.5
sg22
I49914
sg23
g24
((dp6163
I00
I49913
sI01
I1
stp6164
Rp6165
sg28
I2
sg29
F49915.0
sbs(g10
S'contains(uniqu)'
p6166
tp6167
g0
(g17
g2
Ntp6168
Rp6169
(dp6170
g21
F0.5
sg22
I49914
sg23
g24
((dp6171
I00
I49905
sI01
I9
stp6172
Rp6173
sg28
I2
sg29
F49915.0
sbs(g8
S'contains(illeg)'
p6174
tp6175
g0
(g17
g2
Ntp6176
Rp6177
(dp6178
g21
F0.5
sg22
I58606
sg23
g24
((dp6179
I00
I58606
stp6180
Rp6181
sg28
I2
sg29
F58607.0
sbs(g11
S'contains(ill)'
p6182
tp6183
g0
(g17
g2
Ntp6184
Rp6185
(dp6186
g21
F0.5
sg22
I24980
sg23
g24
((dp6187
I00
I24952
sI01
I28
stp6188
Rp6189
sg28
I2
sg29
F24981.0
sbs(g11
S'contains(remot)'
p6190
tp6191
g0
(g17
g2
Ntp6192
Rp6193
(dp6194
g21
F0.5
sg22
I24980
sg23
g24
((dp6195
I00
I24795
sI01
I185
stp6196
Rp6197
sg28
I2
sg29
F24981.0
sbs(g8
S'contains(troubl)'
p6198
tp6199
g0
(g17
g2
Ntp6200
Rp6201
(dp6202
g21
F0.5
sg22
I58606
sg23
g24
((dp6203
I00
I58578
sI01
I28
stp6204
Rp6205
sg28
I2
sg29
F58607.0
sbs(g11
S'contains(readi)'
p6206
tp6207
g0
(g17
g2
Ntp6208
Rp6209
(dp6210
g21
F0.5
sg22
I24980
sg23
g24
((dp6211
I00
I24973
sI01
I7
stp6212
Rp6213
sg28
I2
sg29
F24981.0
sbs(g11
S'contains(edg)'
p6214
tp6215
g0
(g17
g2
Ntp6216
Rp6217
(dp6218
g21
F0.5
sg22
I24980
sg23
g24
((dp6219
I00
I24960
sI01
I20
stp6220
Rp6221
sg28
I2
sg29
F24981.0
sbs(g8
S'contains(silli)'
p6222
tp6223
g0
(g17
g2
Ntp6224
Rp6225
(dp6226
g21
F0.5
sg22
I58606
sg23
g24
((dp6227
I00
I58606
stp6228
Rp6229
sg28
I2
sg29
F58607.0
sbs(g9
S'contains(faint)'
p6230
tp6231
g0
(g17
g2
Ntp6232
Rp6233
(dp6234
g21
F0.5
sg22
I4809
sg23
g24
((dp6235
I00
I4790
sI01
I19
stp6236
Rp6237
sg28
I2
sg29
F4810.0
sbs(g11
S'contains(good)'
p6238
tp6239
g0
(g17
g2
Ntp6240
Rp6241
(dp6242
g21
F0.5
sg22
I24980
sg23
g24
((dp6243
I00
I24506
sI01
I474
stp6244
Rp6245
sg28
I2
sg29
F24981.0
sbs(g8
S'contains(terribl)'
p6246
tp6247
g0
(g17
g2
Ntp6248
Rp6249
(dp6250
g21
F0.5
sg22
I58606
sg23
g24
((dp6251
I00
I58602
sI01
I4
stp6252
Rp6253
sg28
I2
sg29
F58607.0
sbs(g11
S'contains(typic)'
p6254
tp6255
g0
(g17
g2
Ntp6256
Rp6257
(dp6258
g21
F0.5
sg22
I24980
sg23
g24
((dp6259
I00
I22514
sI01
I2466
stp6260
Rp6261
sg28
I2
sg29
F24981.0
sbssS'_label_probdist'
p6262
g0
(g17
g2
Ntp6263
Rp6264
(dp6265
g21
F0.5
sg22
I191378
sg23
g24
((dp6266
g9
I4809
sg8
I58606
sg11
I24980
sg10
I49914
sg12
I53069
stp6267
Rp6268
sg28
I5
sg29
F191380.5
sbsb.